
========================================================================

** ELF Header Information

    File Name: .\output\pandent.axf

    Machine class: ELFCLASS32 (32-bit)
    Data encoding: ELFDATA2LSB (Little endian)
    Header version: EV_CURRENT (Current version)
    Operating System ABI: none
    ABI Version: 0
    File Type: ET_EXEC (Executable) (2)
    Machine: EM_ARM (ARM)

    Image Entry point: 0x000003a5
    Flags: EF_ARM_HASENTRY (0x05000002)

    ARM ELF revision: 5 (ABI version 2)

    Built with
    ARM C/C++ Compiler, 5.03 [Build 76]
    ARM Assembler, 5.03 [Build 76]
    ARM Linker, 5.03 [Build 76] 

    Header size: 52 bytes (0x34)
    Program header entry size: 32 bytes (0x20)
    Section header entry size: 40 bytes (0x28)

    Program header entries: 1
    Section header entries: 16

    Program header offset: 316144 (0x0004d2f0)
    Section header offset: 316176 (0x0004d310)

    Section header string table index: 15

========================================================================

** Program header #0 (PT_LOAD) [PF_X + PF_W + PF_R + PF_ARM_ENTRY]
    Size : 34804 bytes (32720 bytes in file)
    Virtual address: 0x00000000 (Alignment 8)


========================================================================

** Section #1 'ER_IROM1' (SHT_PROGBITS) [SHF_ALLOC + SHF_EXECINSTR]
    Size   : 32444 bytes (alignment 4)
    Address: 0x00000000

    $d.realdata
    RESET
    __Vectors
        0x00000000:    20000938    8..     DCD    536873272
        0x00000004:    000003a5    ....    DCD    933
        0x00000008:    000003c5    ....    DCD    965
        0x0000000c:    000003c7    ....    DCD    967
        0x00000010:    00000000    ....    DCD    0
        0x00000014:    00000000    ....    DCD    0
        0x00000018:    00000000    ....    DCD    0
        0x0000001c:    00000000    ....    DCD    0
        0x00000020:    00000000    ....    DCD    0
        0x00000024:    00000000    ....    DCD    0
        0x00000028:    00000000    ....    DCD    0
        0x0000002c:    000003c9    ....    DCD    969
        0x00000030:    00000000    ....    DCD    0
        0x00000034:    00000000    ....    DCD    0
        0x00000038:    000003cb    ....    DCD    971
        0x0000003c:    00001b21    !...    DCD    6945
        0x00000040:    000003cf    ....    DCD    975
        0x00000044:    000003cf    ....    DCD    975
        0x00000048:    000003cf    ....    DCD    975
        0x0000004c:    000003cf    ....    DCD    975
        0x00000050:    000003cf    ....    DCD    975
        0x00000054:    000003cf    ....    DCD    975
        0x00000058:    000003cf    ....    DCD    975
        0x0000005c:    000003cf    ....    DCD    975
        0x00000060:    000003cf    ....    DCD    975
        0x00000064:    000003cf    ....    DCD    975
        0x00000068:    000003cf    ....    DCD    975
        0x0000006c:    000003cf    ....    DCD    975
        0x00000070:    00001ab7    ....    DCD    6839
        0x00000074:    00001a09    ....    DCD    6665
        0x00000078:    000003cf    ....    DCD    975
        0x0000007c:    000003cf    ....    DCD    975
        0x00000080:    000003cf    ....    DCD    975
        0x00000084:    000003cf    ....    DCD    975
        0x00000088:    000003cf    ....    DCD    975
        0x0000008c:    000003cf    ....    DCD    975
        0x00000090:    000003cf    ....    DCD    975
        0x00000094:    000003cf    ....    DCD    975
        0x00000098:    000003cf    ....    DCD    975
        0x0000009c:    000003cf    ....    DCD    975
        0x000000a0:    000003cf    ....    DCD    975
        0x000000a4:    000003cf    ....    DCD    975
        0x000000a8:    000003cf    ....    DCD    975
        0x000000ac:    000003cf    ....    DCD    975
        0x000000b0:    000003cf    ....    DCD    975
        0x000000b4:    00001d09    ....    DCD    7433
        0x000000b8:    000003cf    ....    DCD    975
        0x000000bc:    000003cf    ....    DCD    975
    $t
    !!!main
    __main
        0x000000c0:    f000f802    ....    BL       __scatterload ; 0xc8
        0x000000c4:    f000f8bf    ....    BL       __rt_entry ; 0x246
    !!!scatter
    __scatterload
    __scatterload_rt2
    __scatterload_rt2_thumb_only
        0x000000c8:    a00c        ..      ADR      r0,{pc}+0x34 ; 0xfc
        0x000000ca:    c830        0.      LDM      r0!,{r4,r5}
        0x000000cc:    3808        .8      SUBS     r0,r0,#8
        0x000000ce:    1824        $.      ADDS     r4,r4,r0
        0x000000d0:    182d        -.      ADDS     r5,r5,r0
        0x000000d2:    46a2        .F      MOV      r10,r4
        0x000000d4:    1e67        g.      SUBS     r7,r4,#1
        0x000000d6:    46ab        .F      MOV      r11,r5
    __scatterload_null
        0x000000d8:    4654        TF      MOV      r4,r10
        0x000000da:    465d        ]F      MOV      r5,r11
        0x000000dc:    42ac        .B      CMP      r4,r5
        0x000000de:    d101        ..      BNE      0xe4 ; __scatterload_null + 12
        0x000000e0:    f000f8b1    ....    BL       __rt_entry ; 0x246
        0x000000e4:    467e        ~F      MOV      r6,pc
        0x000000e6:    3e0f        .>      SUBS     r6,r6,#0xf
        0x000000e8:    cc0f        ..      LDM      r4!,{r0-r3}
        0x000000ea:    46b6        .F      MOV      lr,r6
        0x000000ec:    2601        .&      MOVS     r6,#1
        0x000000ee:    4233        3B      TST      r3,r6
        0x000000f0:    d000        ..      BEQ      0xf4 ; __scatterload_null + 28
        0x000000f2:    1afb        ..      SUBS     r3,r7,r3
        0x000000f4:    46a2        .F      MOV      r10,r4
        0x000000f6:    46ab        .F      MOV      r11,r5
        0x000000f8:    4333        3C      ORRS     r3,r3,r6
        0x000000fa:    4718        .G      BX       r3
    $d
        0x000000fc:    00007c74    t|..    DCD    31860
        0x00000100:    00007c94    .|..    DCD    31892
    $t
    !!handler_copy
    __scatterload_copy
        0x00000104:    3a10        .:      SUBS     r2,r2,#0x10
        0x00000106:    d302        ..      BCC      0x10e ; __scatterload_copy + 10
        0x00000108:    c878        x.      LDM      r0!,{r3-r6}
        0x0000010a:    c178        x.      STM      r1!,{r3-r6}
        0x0000010c:    d8fa        ..      BHI      __scatterload_copy ; 0x104
        0x0000010e:    0752        R.      LSLS     r2,r2,#29
        0x00000110:    d301        ..      BCC      0x116 ; __scatterload_copy + 18
        0x00000112:    c830        0.      LDM      r0!,{r4,r5}
        0x00000114:    c130        0.      STM      r1!,{r4,r5}
        0x00000116:    d501        ..      BPL      0x11c ; __scatterload_copy + 24
        0x00000118:    6804        .h      LDR      r4,[r0,#0]
        0x0000011a:    600c        .`      STR      r4,[r1,#0]
        0x0000011c:    4770        pG      BX       lr
        0x0000011e:    0000        ..      MOVS     r0,r0
    !!handler_zi
    __scatterload_zeroinit
        0x00000120:    2300        .#      MOVS     r3,#0
        0x00000122:    2400        .$      MOVS     r4,#0
        0x00000124:    2500        .%      MOVS     r5,#0
        0x00000126:    2600        .&      MOVS     r6,#0
        0x00000128:    3a10        .:      SUBS     r2,r2,#0x10
        0x0000012a:    d301        ..      BCC      0x130 ; __scatterload_zeroinit + 16
        0x0000012c:    c178        x.      STM      r1!,{r3-r6}
        0x0000012e:    d8fb        ..      BHI      0x128 ; __scatterload_zeroinit + 8
        0x00000130:    0752        R.      LSLS     r2,r2,#29
        0x00000132:    d300        ..      BCC      0x136 ; __scatterload_zeroinit + 22
        0x00000134:    c130        0.      STM      r1!,{r4,r5}
        0x00000136:    d500        ..      BPL      0x13a ; __scatterload_zeroinit + 26
        0x00000138:    600b        .`      STR      r3,[r1,#0]
        0x0000013a:    4770        pG      BX       lr
    .ARM.Collect$$_printf_percent$$00000000
    _printf_percent
        0x0000013c:    b510        ..      PUSH     {r4,lr}
    .ARM.Collect$$_printf_percent$$00000001
    _printf_n
        0x0000013e:    296e        n)      CMP      r1,#0x6e
        0x00000140:    d102        ..      BNE      _printf_p ; 0x148
        0x00000142:    f006fbb0    ....    BL       _printf_charcount ; 0x68a6
        0x00000146:    bd10        ..      POP      {r4,pc}
    .ARM.Collect$$_printf_percent$$00000002
    _printf_p
        0x00000148:    2970        p)      CMP      r1,#0x70
        0x0000014a:    d102        ..      BNE      _printf_f ; 0x152
        0x0000014c:    f006fcf3    ....    BL       _printf_hex_ptr ; 0x6b36
        0x00000150:    bd10        ..      POP      {r4,pc}
    .ARM.Collect$$_printf_percent$$00000003
    _printf_f
        0x00000152:    2966        f)      CMP      r1,#0x66
        0x00000154:    d102        ..      BNE      _printf_e ; 0x15c
        0x00000156:    f007fb95    ....    BL       _printf_fp_dec ; 0x7884
        0x0000015a:    bd10        ..      POP      {r4,pc}
    .ARM.Collect$$_printf_percent$$00000004
    _printf_e
        0x0000015c:    2965        e)      CMP      r1,#0x65
        0x0000015e:    d102        ..      BNE      _printf_g ; 0x166
        0x00000160:    f007fb90    ....    BL       _printf_fp_dec ; 0x7884
        0x00000164:    bd10        ..      POP      {r4,pc}
    .ARM.Collect$$_printf_percent$$00000005
    _printf_g
        0x00000166:    2967        g)      CMP      r1,#0x67
        0x00000168:    d102        ..      BNE      _printf_a ; 0x170
        0x0000016a:    f007fb8b    ....    BL       _printf_fp_dec ; 0x7884
        0x0000016e:    bd10        ..      POP      {r4,pc}
    .ARM.Collect$$_printf_percent$$00000006
    _printf_a
        0x00000170:    2961        a)      CMP      r1,#0x61
        0x00000172:    d102        ..      BNE      _printf_ll ; 0x17a
        0x00000174:    46c0        .F      MOV      r8,r8
        0x00000176:    46c0        .F      MOV      r8,r8
        0x00000178:    bd10        ..      POP      {r4,pc}
    .ARM.Collect$$_printf_percent$$00000007
    _printf_ll
        0x0000017a:    6803        .h      LDR      r3,[r0,#0]
        0x0000017c:    0a1b        ..      LSRS     r3,r3,#8
        0x0000017e:    d301        ..      BCC      _printf_i ; 0x184
        0x00000180:    2380        .#      MOVS     r3,#0x80
        0x00000182:    4319        .C      ORRS     r1,r1,r3
    .ARM.Collect$$_printf_percent$$00000008
    _printf_i
        0x00000184:    2969        i)      CMP      r1,#0x69
        0x00000186:    d102        ..      BNE      _printf_d ; 0x18e
        0x00000188:    f005ffee    ....    BL       _printf_int_dec ; 0x6168
        0x0000018c:    bd10        ..      POP      {r4,pc}
    .ARM.Collect$$_printf_percent$$00000009
    _printf_d
        0x0000018e:    2964        d)      CMP      r1,#0x64
        0x00000190:    d102        ..      BNE      _printf_u ; 0x198
        0x00000192:    f005ffe9    ....    BL       _printf_int_dec ; 0x6168
        0x00000196:    bd10        ..      POP      {r4,pc}
    .ARM.Collect$$_printf_percent$$0000000A
    _printf_u
        0x00000198:    2975        u)      CMP      r1,#0x75
        0x0000019a:    d102        ..      BNE      _printf_o ; 0x1a2
        0x0000019c:    f005ffe4    ....    BL       _printf_int_dec ; 0x6168
        0x000001a0:    bd10        ..      POP      {r4,pc}
    .ARM.Collect$$_printf_percent$$0000000B
    _printf_o
        0x000001a2:    296f        o)      CMP      r1,#0x6f
        0x000001a4:    d102        ..      BNE      _printf_x ; 0x1ac
        0x000001a6:    f006fc71    ..q.    BL       _printf_int_oct ; 0x6a8c
        0x000001aa:    bd10        ..      POP      {r4,pc}
    .ARM.Collect$$_printf_percent$$0000000C
    _printf_x
        0x000001ac:    2978        x)      CMP      r1,#0x78
        0x000001ae:    d102        ..      BNE      _printf_lli ; 0x1b6
        0x000001b0:    f006fcae    ....    BL       _printf_int_hex ; 0x6b10
        0x000001b4:    bd10        ..      POP      {r4,pc}
    .ARM.Collect$$_printf_percent$$0000000D
    _printf_lli
        0x000001b6:    29e9        .)      CMP      r1,#0xe9
        0x000001b8:    d102        ..      BNE      _printf_lld ; 0x1c0
        0x000001ba:    f006fc0d    ....    BL       _printf_longlong_dec ; 0x69d8
        0x000001be:    bd10        ..      POP      {r4,pc}
    .ARM.Collect$$_printf_percent$$0000000E
    _printf_lld
        0x000001c0:    29e4        .)      CMP      r1,#0xe4
        0x000001c2:    d102        ..      BNE      _printf_llu ; 0x1ca
        0x000001c4:    f006fc08    ....    BL       _printf_longlong_dec ; 0x69d8
        0x000001c8:    bd10        ..      POP      {r4,pc}
    .ARM.Collect$$_printf_percent$$0000000F
    _printf_llu
        0x000001ca:    29f5        .)      CMP      r1,#0xf5
        0x000001cc:    d102        ..      BNE      _printf_llo ; 0x1d4
        0x000001ce:    f006fc03    ....    BL       _printf_longlong_dec ; 0x69d8
        0x000001d2:    bd10        ..      POP      {r4,pc}
    .ARM.Collect$$_printf_percent$$00000010
    _printf_llo
        0x000001d4:    29ef        .)      CMP      r1,#0xef
        0x000001d6:    d102        ..      BNE      _printf_llx ; 0x1de
        0x000001d8:    f006fc64    ..d.    BL       _printf_ll_oct ; 0x6aa4
        0x000001dc:    bd10        ..      POP      {r4,pc}
    .ARM.Collect$$_printf_percent$$00000011
    _printf_llx
        0x000001de:    29f8        .)      CMP      r1,#0xf8
        0x000001e0:    d102        ..      BNE      _printf_l ; 0x1e8
        0x000001e2:    f006fca3    ....    BL       _printf_ll_hex ; 0x6b2c
        0x000001e6:    bd10        ..      POP      {r4,pc}
    .ARM.Collect$$_printf_percent$$00000012
    _printf_l
        0x000001e8:    6803        .h      LDR      r3,[r0,#0]
        0x000001ea:    09db        ..      LSRS     r3,r3,#7
        0x000001ec:    d301        ..      BCC      _printf_c ; 0x1f2
        0x000001ee:    2380        .#      MOVS     r3,#0x80
        0x000001f0:    4319        .C      ORRS     r1,r1,r3
    .ARM.Collect$$_printf_percent$$00000013
    _printf_c
        0x000001f2:    2963        c)      CMP      r1,#0x63
        0x000001f4:    d102        ..      BNE      _printf_s ; 0x1fc
        0x000001f6:    f006ff12    ....    BL       _printf_char ; 0x701e
        0x000001fa:    bd10        ..      POP      {r4,pc}
    .ARM.Collect$$_printf_percent$$00000014
    _printf_s
        0x000001fc:    2973        s)      CMP      r1,#0x73
        0x000001fe:    d102        ..      BNE      _printf_lc ; 0x206
        0x00000200:    f006ff15    ....    BL       _printf_string ; 0x702e
        0x00000204:    bd10        ..      POP      {r4,pc}
    .ARM.Collect$$_printf_percent$$00000015
    _printf_lc
        0x00000206:    29e3        .)      CMP      r1,#0xe3
        0x00000208:    d102        ..      BNE      _printf_ls ; 0x210
        0x0000020a:    f006ff1f    ....    BL       _printf_wchar ; 0x704c
        0x0000020e:    bd10        ..      POP      {r4,pc}
    .ARM.Collect$$_printf_percent$$00000016
    _printf_ls
        0x00000210:    29f3        .)      CMP      r1,#0xf3
        0x00000212:    d102        ..      BNE      _printf_percent_end ; 0x21a
        0x00000214:    f006ff22    ..".    BL       _printf_wstring ; 0x705c
        0x00000218:    bd10        ..      POP      {r4,pc}
    .ARM.Collect$$_printf_percent$$00000017
    _printf_percent_end
        0x0000021a:    2000        .       MOVS     r0,#0
        0x0000021c:    bd10        ..      POP      {r4,pc}
    .ARM.Collect$$libinit$$00000000
    __rt_lib_init
        0x0000021e:    b51f        ..      PUSH     {r0-r4,lr}
    .ARM.Collect$$libinit$$00000001
    __rt_lib_init_fp_1
        0x00000220:    46c0        .F      MOV      r8,r8
        0x00000222:    46c0        .F      MOV      r8,r8
    .ARM.Collect$$libinit$$00000008
    .ARM.Collect$$libinit$$0000000A
    .ARM.Collect$$libinit$$0000000C
    .ARM.Collect$$libinit$$0000000D
    __rt_lib_init_heap_1
    __rt_lib_init_lc_common
    __rt_lib_init_rand_1
    __rt_lib_init_user_alloc_1
        0x00000224:    f006ff68    ..h.    BL       __rt_locale ; 0x70f8
        0x00000228:    0004        ..      MOVS     r4,r0
    .ARM.Collect$$libinit$$0000000F
    .ARM.Collect$$libinit$$00000010
    __rt_lib_init_lc_collate_1
    __rt_lib_init_lc_ctype_2
        0x0000022a:    2000        .       MOVS     r0,#0
        0x0000022c:    2100        .!      MOVS     r1,#0
        0x0000022e:    f007fb13    ....    BL       _get_lc_ctype ; 0x7858
        0x00000232:    1c40        @.      ADDS     r0,r0,#1
        0x00000234:    6060        ``      STR      r0,[r4,#4]
    .ARM.Collect$$libinit$$00000011
    .ARM.Collect$$libinit$$00000013
    .ARM.Collect$$libinit$$00000014
    __rt_lib_init_lc_ctype_1
    __rt_lib_init_lc_monetary_1
    __rt_lib_init_lc_numeric_2
        0x00000236:    2000        .       MOVS     r0,#0
        0x00000238:    2100        .!      MOVS     r1,#0
        0x0000023a:    f007faf7    ....    BL       _get_lc_numeric ; 0x782c
        0x0000023e:    60e0        .`      STR      r0,[r4,#0xc]
    .ARM.Collect$$libinit$$00000015
    .ARM.Collect$$libinit$$00000017
    .ARM.Collect$$libinit$$00000019
    .ARM.Collect$$libinit$$0000001B
    .ARM.Collect$$libinit$$0000001D
    .ARM.Collect$$libinit$$0000001F
    .ARM.Collect$$libinit$$00000021
    .ARM.Collect$$libinit$$00000023
    .ARM.Collect$$libinit$$0000002A
    .ARM.Collect$$libinit$$0000002C
    .ARM.Collect$$libinit$$0000002E
    .ARM.Collect$$libinit$$00000030
    .ARM.Collect$$libinit$$00000031
    __rt_lib_init_alloca_1
    __rt_lib_init_argv_1
    __rt_lib_init_atexit_1
    __rt_lib_init_clock_1
    __rt_lib_init_cpp_1
    __rt_lib_init_exceptions_1
    __rt_lib_init_fp_trap_1
    __rt_lib_init_getenv_1
    __rt_lib_init_lc_numeric_1
    __rt_lib_init_lc_time_1
    __rt_lib_init_return
    __rt_lib_init_signal_1
    __rt_lib_init_stdio_1
        0x00000240:    bd1f        ..      POP      {r0-r4,pc}
    .ARM.Collect$$libshutdown$$00000000
    __rt_lib_shutdown
        0x00000242:    b510        ..      PUSH     {r4,lr}
    .ARM.Collect$$libshutdown$$00000003
    .ARM.Collect$$libshutdown$$00000006
    .ARM.Collect$$libshutdown$$00000009
    .ARM.Collect$$libshutdown$$0000000B
    .ARM.Collect$$libshutdown$$0000000E
    .ARM.Collect$$libshutdown$$0000000F
    __rt_lib_shutdown_fp_trap_1
    __rt_lib_shutdown_heap_1
    __rt_lib_shutdown_return
    __rt_lib_shutdown_signal_1
    __rt_lib_shutdown_stdio_1
    __rt_lib_shutdown_user_alloc_1
        0x00000244:    bd10        ..      POP      {r4,pc}
    .ARM.Collect$$rtentry$$00000000
    .ARM.Collect$$rtentry$$00000002
    .ARM.Collect$$rtentry$$00000004
    __rt_entry
    __rt_entry_presh_1
    __rt_entry_sh
        0x00000246:    f006ff2f    ../.    BL       __user_setup_stackheap ; 0x70a8
        0x0000024a:    4611        .F      MOV      r1,r2
    .ARM.Collect$$rtentry$$00000009
    .ARM.Collect$$rtentry$$0000000A
    __rt_entry_li
    __rt_entry_postsh_1
        0x0000024c:    f7ffffe7    ....    BL       __rt_lib_init ; 0x21e
    .ARM.Collect$$rtentry$$0000000C
    .ARM.Collect$$rtentry$$0000000D
    __rt_entry_main
    __rt_entry_postli_1
        0x00000250:    f001fddc    ....    BL       main ; 0x1e0c
        0x00000254:    f007fa52    ..R.    BL       exit ; 0x76fc
    .ARM.Collect$$rtexit$$00000000
    __rt_exit
        0x00000258:    b403        ..      PUSH     {r0,r1}
    .ARM.Collect$$rtexit$$00000002
    .ARM.Collect$$rtexit$$00000003
    __rt_exit_ls
    __rt_exit_prels_1
        0x0000025a:    f7fffff2    ....    BL       __rt_lib_shutdown ; 0x242
    .ARM.Collect$$rtexit$$00000004
    __rt_exit_exit
        0x0000025e:    bc03        ..      POP      {r0,r1}
        0x00000260:    f007fa9a    ....    BL       _sys_exit ; 0x7798
    .emb_text
    __aeabi_memcpy4
    __aeabi_memcpy8
        0x00000264:    b570        p.      PUSH     {r4-r6,lr}
        0x00000266:    4605        .F      MOV      r5,r0
        0x00000268:    460c        .F      MOV      r4,r1
        0x0000026a:    4616        .F      MOV      r6,r2
        0x0000026c:    e002        ..      B        0x274 ; __aeabi_memcpy4 + 16
        0x0000026e:    cc0f        ..      LDM      r4!,{r0-r3}
        0x00000270:    c50f        ..      STM      r5!,{r0-r3}
        0x00000272:    3e10        .>      SUBS     r6,r6,#0x10
        0x00000274:    2e10        ..      CMP      r6,#0x10
        0x00000276:    d2fa        ..      BCS      0x26e ; __aeabi_memcpy4 + 10
        0x00000278:    2e08        ..      CMP      r6,#8
        0x0000027a:    d302        ..      BCC      0x282 ; __aeabi_memcpy4 + 30
        0x0000027c:    cc03        ..      LDM      r4!,{r0,r1}
        0x0000027e:    c503        ..      STM      r5!,{r0,r1}
        0x00000280:    3e08        .>      SUBS     r6,r6,#8
        0x00000282:    2e04        ..      CMP      r6,#4
        0x00000284:    d307        ..      BCC      0x296 ; __aeabi_memcpy4 + 50
        0x00000286:    cc01        ..      LDM      r4!,{r0}
        0x00000288:    c501        ..      STM      r5!,{r0}
        0x0000028a:    1f36        6.      SUBS     r6,r6,#4
        0x0000028c:    e003        ..      B        0x296 ; __aeabi_memcpy4 + 50
        0x0000028e:    7821        !x      LDRB     r1,[r4,#0]
        0x00000290:    7029        )p      STRB     r1,[r5,#0]
        0x00000292:    1c64        d.      ADDS     r4,r4,#1
        0x00000294:    1c6d        m.      ADDS     r5,r5,#1
        0x00000296:    1e76        v.      SUBS     r6,r6,#1
        0x00000298:    d2f9        ..      BCS      0x28e ; __aeabi_memcpy4 + 42
        0x0000029a:    bd70        p.      POP      {r4-r6,pc}
    .text
    SystemCoreClockUpdate
        0x0000029c:    b538        8.      PUSH     {r3-r5,lr}
        0x0000029e:    a035        5.      ADR      r0,{pc}+0xd6 ; 0x374
        0x000002a0:    6800        .h      LDR      r0,[r0,#0]
        0x000002a2:    9000        ..      STR      r0,[sp,#0]
        0x000002a4:    2000        .       MOVS     r0,#0
        0x000002a6:    4c34        4L      LDR      r4,[pc,#208] ; [0x378] = 0x50000200
        0x000002a8:    6a21        !j      LDR      r1,[r4,#0x20]
        0x000002aa:    1322        ".      ASRS     r2,r4,#12
        0x000002ac:    4211        .B      TST      r1,r2
        0x000002ae:    d116        ..      BNE      0x2de ; SystemCoreClockUpdate + 66
        0x000002b0:    0308        ..      LSLS     r0,r1,#12
        0x000002b2:    d501        ..      BPL      0x2b8 ; SystemCoreClockUpdate + 28
        0x000002b4:    4831        1H      LDR      r0,[pc,#196] ; [0x37c] = 0x1518000
        0x000002b6:    e000        ..      B        0x2ba ; SystemCoreClockUpdate + 30
        0x000002b8:    4831        1H      LDR      r0,[pc,#196] ; [0x380] = 0xb71b00
        0x000002ba:    038a        ..      LSLS     r2,r1,#14
        0x000002bc:    d40f        ..      BMI      0x2de ; SystemCoreClockUpdate + 66
        0x000002be:    040a        ..      LSLS     r2,r1,#16
        0x000002c0:    0f92        ..      LSRS     r2,r2,#30
        0x000002c2:    466b        kF      MOV      r3,sp
        0x000002c4:    5c9b        .\      LDRB     r3,[r3,r2]
        0x000002c6:    05ca        ..      LSLS     r2,r1,#23
        0x000002c8:    0dd2        ..      LSRS     r2,r2,#23
        0x000002ca:    1c92        ..      ADDS     r2,r2,#2
        0x000002cc:    0489        ..      LSLS     r1,r1,#18
        0x000002ce:    0ec9        ..      LSRS     r1,r1,#27
        0x000002d0:    1c89        ..      ADDS     r1,r1,#2
        0x000002d2:    0880        ..      LSRS     r0,r0,#2
        0x000002d4:    4359        YC      MULS     r1,r3,r1
        0x000002d6:    4350        PC      MULS     r0,r2,r0
        0x000002d8:    f006f9a2    ....    BL       __aeabi_uidiv ; 0x6620
        0x000002dc:    0080        ..      LSLS     r0,r0,#2
        0x000002de:    4d29        )M      LDR      r5,[pc,#164] ; [0x384] = 0x20000000
        0x000002e0:    60a8        .`      STR      r0,[r5,#8]
        0x000002e2:    6921        !i      LDR      r1,[r4,#0x10]
        0x000002e4:    0749        I.      LSLS     r1,r1,#29
        0x000002e6:    0f49        I.      LSRS     r1,r1,#29
        0x000002e8:    2902        .)      CMP      r1,#2
        0x000002ea:    d002        ..      BEQ      0x2f2 ; SystemCoreClockUpdate + 86
        0x000002ec:    0088        ..      LSLS     r0,r1,#2
        0x000002ee:    4926        &I      LDR      r1,[pc,#152] ; [0x388] = 0x7894
        0x000002f0:    5808        .X      LDR      r0,[r1,r0]
        0x000002f2:    69a1        .i      LDR      r1,[r4,#0x18]
        0x000002f4:    0709        ..      LSLS     r1,r1,#28
        0x000002f6:    0f09        ..      LSRS     r1,r1,#28
        0x000002f8:    1c49        I.      ADDS     r1,r1,#1
        0x000002fa:    f006f991    ....    BL       __aeabi_uidiv ; 0x6620
        0x000002fe:    6028        (`      STR      r0,[r5,#0]
        0x00000300:    4922        "I      LDR      r1,[pc,#136] ; [0x38c] = 0xf4240
        0x00000302:    104a        J.      ASRS     r2,r1,#1
        0x00000304:    1880        ..      ADDS     r0,r0,r2
        0x00000306:    f006f98b    ....    BL       __aeabi_uidiv ; 0x6620
        0x0000030a:    6068        h`      STR      r0,[r5,#4]
        0x0000030c:    bd38        8.      POP      {r3-r5,pc}
    SystemInit
        0x0000030e:    481d        .H      LDR      r0,[pc,#116] ; [0x384] = 0x20000000
        0x00000310:    2200        ."      MOVS     r2,#0
        0x00000312:    6082        .`      STR      r2,[r0,#8]
        0x00000314:    2000        .       MOVS     r0,#0
        0x00000316:    4918        .I      LDR      r1,[pc,#96] ; [0x378] = 0x50000200
        0x00000318:    690b        .i      LDR      r3,[r1,#0x10]
        0x0000031a:    075b        [.      LSLS     r3,r3,#29
        0x0000031c:    0f5b        [.      LSRS     r3,r3,#29
        0x0000031e:    2b00        .+      CMP      r3,#0
        0x00000320:    d002        ..      BEQ      0x328 ; SystemInit + 26
        0x00000322:    2b07        .+      CMP      r3,#7
        0x00000324:    d00d        ..      BEQ      0x342 ; SystemInit + 52
        0x00000326:    e018        ..      B        0x35a ; SystemInit + 76
        0x00000328:    4819        .H      LDR      r0,[pc,#100] ; [0x390] = 0x4217
        0x0000032a:    6208        .b      STR      r0,[r1,#0x20]
        0x0000032c:    4819        .H      LDR      r0,[pc,#100] ; [0x394] = 0x2ee0
        0x0000032e:    e003        ..      B        0x338 ; SystemInit + 42
        0x00000330:    4603        .F      MOV      r3,r0
        0x00000332:    1e40        @.      SUBS     r0,r0,#1
        0x00000334:    2b00        .+      CMP      r3,#0
        0x00000336:    dd02        ..      BLE      0x33e ; SystemInit + 48
        0x00000338:    68cb        .h      LDR      r3,[r1,#0xc]
        0x0000033a:    075b        [.      LSLS     r3,r3,#29
        0x0000033c:    d5f8        ..      BPL      0x330 ; SystemInit + 34
        0x0000033e:    2001        .       MOVS     r0,#1
        0x00000340:    e00b        ..      B        0x35a ; SystemInit + 76
        0x00000342:    4815        .H      LDR      r0,[pc,#84] ; [0x398] = 0x85639
        0x00000344:    6208        .b      STR      r0,[r1,#0x20]
        0x00000346:    4815        .H      LDR      r0,[pc,#84] ; [0x39c] = 0x5666
        0x00000348:    e003        ..      B        0x352 ; SystemInit + 68
        0x0000034a:    4603        .F      MOV      r3,r0
        0x0000034c:    1e40        @.      SUBS     r0,r0,#1
        0x0000034e:    2b00        .+      CMP      r3,#0
        0x00000350:    dd02        ..      BLE      0x358 ; SystemInit + 74
        0x00000352:    68cb        .h      LDR      r3,[r1,#0xc]
        0x00000354:    075b        [.      LSLS     r3,r3,#29
        0x00000356:    d5f8        ..      BPL      0x34a ; SystemInit + 60
        0x00000358:    2001        .       MOVS     r0,#1
        0x0000035a:    2800        .(      CMP      r0,#0
        0x0000035c:    d009        ..      BEQ      0x372 ; SystemInit + 100
        0x0000035e:    4810        .H      LDR      r0,[pc,#64] ; [0x3a0] = 0x50000100
        0x00000360:    2359        Y#      MOVS     r3,#0x59
        0x00000362:    6003        .`      STR      r3,[r0,#0]
        0x00000364:    2316        .#      MOVS     r3,#0x16
        0x00000366:    6003        .`      STR      r3,[r0,#0]
        0x00000368:    2388        .#      MOVS     r3,#0x88
        0x0000036a:    6003        .`      STR      r3,[r0,#0]
        0x0000036c:    2302        .#      MOVS     r3,#2
        0x0000036e:    610b        .a      STR      r3,[r1,#0x10]
        0x00000370:    6002        .`      STR      r2,[r0,#0]
        0x00000372:    4770        pG      BX       lr
    $d
        0x00000374:    04020201    ....    DCD    67240449
        0x00000378:    50000200    ...P    DCD    1342177792
        0x0000037c:    01518000    ..Q.    DCD    22118400
        0x00000380:    00b71b00    ....    DCD    12000000
        0x00000384:    20000000    ...     DCD    536870912
        0x00000388:    00007894    .x..    DCD    30868
        0x0000038c:    000f4240    @B..    DCD    1000000
        0x00000390:    00004217    .B..    DCD    16919
        0x00000394:    00002ee0    ....    DCD    12000
        0x00000398:    00085639    9V..    DCD    546361
        0x0000039c:    00005666    fV..    DCD    22118
        0x000003a0:    50000100    ...P    DCD    1342177536
    $t
    .text
    Reset_Handler
        0x000003a4:    480d        .H      LDR      r0,[pc,#52] ; [0x3dc] = 0x50000100
        0x000003a6:    490e        .I      LDR      r1,[pc,#56] ; [0x3e0] = 0x59
        0x000003a8:    6001        .`      STR      r1,[r0,#0]
        0x000003aa:    490e        .I      LDR      r1,[pc,#56] ; [0x3e4] = 0x16
        0x000003ac:    6001        .`      STR      r1,[r0,#0]
        0x000003ae:    490e        .I      LDR      r1,[pc,#56] ; [0x3e8] = 0x88
        0x000003b0:    6001        .`      STR      r1,[r0,#0]
        0x000003b2:    4a0e        .J      LDR      r2,[pc,#56] ; [0x3ec] = 0x50000024
        0x000003b4:    490e        .I      LDR      r1,[pc,#56] ; [0x3f0] = 0x5aa5
        0x000003b6:    6011        .`      STR      r1,[r2,#0]
        0x000003b8:    2100        .!      MOVS     r1,#0
        0x000003ba:    6001        .`      STR      r1,[r0,#0]
        0x000003bc:    480d        .H      LDR      r0,[pc,#52] ; [0x3f4] = 0x30f
        0x000003be:    4780        .G      BLX      r0
        0x000003c0:    480d        .H      LDR      r0,[pc,#52] ; [0x3f8] = 0xc1
        0x000003c2:    4700        .G      BX       r0
    NMI_Handler
        0x000003c4:    e7fe        ..      B        NMI_Handler ; 0x3c4
    HardFault_Handler
        0x000003c6:    e7fe        ..      B        HardFault_Handler ; 0x3c6
    SVC_Handler
        0x000003c8:    e7fe        ..      B        SVC_Handler ; 0x3c8
    PendSV_Handler
        0x000003ca:    e7fe        ..      B        PendSV_Handler ; 0x3ca
        0x000003cc:    e7fe        ..      B        0x3cc ; PendSV_Handler + 2
    Default_Handler
    ACMP0_IRQHandler
    ACMP1_IRQHandler
    BOD_IRQHandler
    EINT0_IRQHandler
    EINT1_IRQHandler
    GPIOP0P1_IRQHandler
    GPIOP2P3P4_IRQHandler
    I2C0_IRQHandler
    I2C1_IRQHandler
    PWMA_IRQHandler
    PWMB_IRQHandler
    PWRWU_IRQHandler
    RTC_IRQHandler
    SPI0_IRQHandler
    SPI1_IRQHandler
    TMR0_IRQHandler
    TMR1_IRQHandler
    TMR2_IRQHandler
    TMR3_IRQHandler
    WDT_IRQHandler
        0x000003ce:    e7fe        ..      B        Default_Handler ; 0x3ce
    __user_initial_stackheap
        0x000003d0:    480a        .H      LDR      r0,[pc,#40] ; [0x3fc] = 0x20000738
        0x000003d2:    490b        .I      LDR      r1,[pc,#44] ; [0x400] = 0x20000938
        0x000003d4:    4a09        .J      LDR      r2,[pc,#36] ; [0x3fc] = 0x20000738
        0x000003d6:    4b0b        .K      LDR      r3,[pc,#44] ; [0x404] = 0x20000738
        0x000003d8:    4770        pG      BX       lr
    $d
        0x000003da:    0000        ..      DCW    0
        0x000003dc:    50000100    ...P    DCD    1342177536
        0x000003e0:    00000059    Y...    DCD    89
        0x000003e4:    00000016    ....    DCD    22
        0x000003e8:    00000088    ....    DCD    136
        0x000003ec:    50000024    $..P    DCD    1342177316
        0x000003f0:    00005aa5    .Z..    DCD    23205
        0x000003f4:    0000030f    ....    DCD    783
        0x000003f8:    000000c1    ....    DCD    193
        0x000003fc:    20000738    8..     DCD    536872760
        0x00000400:    20000938    8..     DCD    536873272
        0x00000404:    20000738    8..     DCD    536872760
    $t
    .text
    FMC_Read
        0x00000408:    49f9        .I      LDR      r1,[pc,#996] ; [0x7f0] = 0x5000c000
        0x0000040a:    2200        ."      MOVS     r2,#0
        0x0000040c:    60ca        .`      STR      r2,[r1,#0xc]
        0x0000040e:    6048        H`      STR      r0,[r1,#4]
        0x00000410:    608a        .`      STR      r2,[r1,#8]
        0x00000412:    2001        .       MOVS     r0,#1
        0x00000414:    6108        .a      STR      r0,[r1,#0x10]
        0x00000416:    f3bf8f60    ..`.    ISB      #0x0
        0x0000041a:    6908        .i      LDR      r0,[r1,#0x10]
        0x0000041c:    2800        .(      CMP      r0,#0
        0x0000041e:    d1fc        ..      BNE      0x41a ; FMC_Read + 18
        0x00000420:    6888        .h      LDR      r0,[r1,#8]
        0x00000422:    4770        pG      BX       lr
    NvVersionCheck
        0x00000424:    b570        p.      PUSH     {r4-r6,lr}
        0x00000426:    2400        .$      MOVS     r4,#0
        0x00000428:    261f        .&      MOVS     r6,#0x1f
        0x0000042a:    4df2        .M      LDR      r5,[pc,#968] ; [0x7f4] = 0xabcd0007
        0x0000042c:    0336        6.      LSLS     r6,r6,#12
        0x0000042e:    4630        0F      MOV      r0,r6
        0x00000430:    f7ffffea    ....    BL       FMC_Read ; 0x408
        0x00000434:    42a8        .B      CMP      r0,r5
        0x00000436:    d101        ..      BNE      0x43c ; NvVersionCheck + 24
        0x00000438:    2001        .       MOVS     r0,#1
        0x0000043a:    bd70        p.      POP      {r4-r6,pc}
        0x0000043c:    1c64        d.      ADDS     r4,r4,#1
        0x0000043e:    b2e4        ..      UXTB     r4,r4
        0x00000440:    2c04        .,      CMP      r4,#4
        0x00000442:    d3f4        ..      BCC      0x42e ; NvVersionCheck + 10
        0x00000444:    a0ec        ..      ADR      r0,{pc}+0x3b4 ; 0x7f8
        0x00000446:    f001fee8    ....    BL       debug ; 0x221a
        0x0000044a:    2000        .       MOVS     r0,#0
        0x0000044c:    bd70        p.      POP      {r4-r6,pc}
    ErasePage
        0x0000044e:    b510        ..      PUSH     {r4,lr}
        0x00000450:    1d00        ..      ADDS     r0,r0,#4
        0x00000452:    49e7        .I      LDR      r1,[pc,#924] ; [0x7f0] = 0x5000c000
        0x00000454:    2222        ""      MOVS     r2,#0x22
        0x00000456:    60ca        .`      STR      r2,[r1,#0xc]
        0x00000458:    6048        H`      STR      r0,[r1,#4]
        0x0000045a:    2001        .       MOVS     r0,#1
        0x0000045c:    6108        .a      STR      r0,[r1,#0x10]
        0x0000045e:    f3bf8f60    ..`.    ISB      #0x0
        0x00000462:    6908        .i      LDR      r0,[r1,#0x10]
        0x00000464:    2800        .(      CMP      r0,#0
        0x00000466:    d1fc        ..      BNE      0x462 ; ErasePage + 20
        0x00000468:    2014        .       MOVS     r0,#0x14
        0x0000046a:    f001feeb    ....    BL       delay_ms ; 0x2244
        0x0000046e:    bd10        ..      POP      {r4,pc}
    IsEmptySect
        0x00000470:    b570        p.      PUSH     {r4-r6,lr}
        0x00000472:    4605        .F      MOV      r5,r0
        0x00000474:    2400        .$      MOVS     r4,#0
        0x00000476:    4628        (F      MOV      r0,r5
        0x00000478:    f7ffffc6    ....    BL       FMC_Read ; 0x408
        0x0000047c:    1c40        @.      ADDS     r0,r0,#1
        0x0000047e:    d001        ..      BEQ      0x484 ; IsEmptySect + 20
        0x00000480:    2000        .       MOVS     r0,#0
        0x00000482:    bd70        p.      POP      {r4-r6,pc}
        0x00000484:    1d2d        -.      ADDS     r5,r5,#4
        0x00000486:    1c64        d.      ADDS     r4,r4,#1
        0x00000488:    b2e4        ..      UXTB     r4,r4
        0x0000048a:    2c20         ,      CMP      r4,#0x20
        0x0000048c:    d3f3        ..      BCC      0x476 ; IsEmptySect + 6
        0x0000048e:    2001        .       MOVS     r0,#1
        0x00000490:    bd70        p.      POP      {r4-r6,pc}
    IsEmptyPage
        0x00000492:    b570        p.      PUSH     {r4-r6,lr}
        0x00000494:    4605        .F      MOV      r5,r0
        0x00000496:    2400        .$      MOVS     r4,#0
        0x00000498:    4628        (F      MOV      r0,r5
        0x0000049a:    f7ffffe9    ....    BL       IsEmptySect ; 0x470
        0x0000049e:    2800        .(      CMP      r0,#0
        0x000004a0:    d006        ..      BEQ      0x4b0 ; IsEmptyPage + 30
        0x000004a2:    3580        .5      ADDS     r5,r5,#0x80
        0x000004a4:    1c64        d.      ADDS     r4,r4,#1
        0x000004a6:    b2e4        ..      UXTB     r4,r4
        0x000004a8:    2c04        .,      CMP      r4,#4
        0x000004aa:    d3f5        ..      BCC      0x498 ; IsEmptyPage + 6
        0x000004ac:    2001        .       MOVS     r0,#1
        0x000004ae:    bd70        p.      POP      {r4-r6,pc}
        0x000004b0:    2000        .       MOVS     r0,#0
        0x000004b2:    bd70        p.      POP      {r4-r6,pc}
    NvVersionWrite
        0x000004b4:    b510        ..      PUSH     {r4,lr}
        0x000004b6:    241f        .$      MOVS     r4,#0x1f
        0x000004b8:    0324        $.      LSLS     r4,r4,#12
        0x000004ba:    4620         F      MOV      r0,r4
        0x000004bc:    f7ffffe9    ....    BL       IsEmptyPage ; 0x492
        0x000004c0:    2800        .(      CMP      r0,#0
        0x000004c2:    d102        ..      BNE      0x4ca ; NvVersionWrite + 22
        0x000004c4:    4620         F      MOV      r0,r4
        0x000004c6:    f7ffffc2    ....    BL       ErasePage ; 0x44e
        0x000004ca:    49ca        .I      LDR      r1,[pc,#808] ; [0x7f4] = 0xabcd0007
        0x000004cc:    4620         F      MOV      r0,r4
        0x000004ce:    f001fa47    ..G.    BL       FMC_Write ; 0x1960
        0x000004d2:    bd10        ..      POP      {r4,pc}
    WritePage
        0x000004d4:    b5f8        ..      PUSH     {r3-r7,lr}
        0x000004d6:    4607        .F      MOV      r7,r0
        0x000004d8:    460d        .F      MOV      r5,r1
        0x000004da:    264f        O&      MOVS     r6,#0x4f
        0x000004dc:    2400        .$      MOVS     r4,#0
        0x000004de:    e007        ..      B        0x4f0 ; WritePage + 28
        0x000004e0:    00a0        ..      LSLS     r0,r4,#2
        0x000004e2:    5839        9X      LDR      r1,[r7,r0]
        0x000004e4:    4628        (F      MOV      r0,r5
        0x000004e6:    f001fa3b    ..;.    BL       FMC_Write ; 0x1960
        0x000004ea:    1d2d        -.      ADDS     r5,r5,#4
        0x000004ec:    1c64        d.      ADDS     r4,r4,#1
        0x000004ee:    b2e4        ..      UXTB     r4,r4
        0x000004f0:    42b4        .B      CMP      r4,r6
        0x000004f2:    d3f5        ..      BCC      0x4e0 ; WritePage + 12
        0x000004f4:    bdf8        ..      POP      {r3-r7,pc}
    InitDefault
        0x000004f6:    b510        ..      PUSH     {r4,lr}
        0x000004f8:    21ff        .!      MOVS     r1,#0xff
        0x000004fa:    22ff        ."      MOVS     r2,#0xff
        0x000004fc:    313d        =1      ADDS     r1,r1,#0x3d
        0x000004fe:    48c1        .H      LDR      r0,[pc,#772] ; [0x804] = 0x20000120
        0x00000500:    f006f82f    ../.    BL       __aeabi_memset ; 0x6562
        0x00000504:    a1c0        ..      ADR      r1,{pc}+0x304 ; 0x808
        0x00000506:    48bf        .H      LDR      r0,[pc,#764] ; [0x804] = 0x20000120
        0x00000508:    f005ff46    ..F.    BL       strcpy ; 0x6398
        0x0000050c:    48bd        .H      LDR      r0,[pc,#756] ; [0x804] = 0x20000120
        0x0000050e:    a1c4        ..      ADR      r1,{pc}+0x312 ; 0x820
        0x00000510:    3028        (0      ADDS     r0,r0,#0x28
        0x00000512:    f005ff41    ..A.    BL       strcpy ; 0x6398
        0x00000516:    48bb        .H      LDR      r0,[pc,#748] ; [0x804] = 0x20000120
        0x00000518:    2128        (!      MOVS     r1,#0x28
        0x0000051a:    3050        P0      ADDS     r0,r0,#0x50
        0x0000051c:    f006f848    ..H.    BL       __aeabi_memclr4 ; 0x65b0
        0x00000520:    48b8        .H      LDR      r0,[pc,#736] ; [0x804] = 0x20000120
        0x00000522:    a1c3        ..      ADR      r1,{pc}+0x30e ; 0x830
        0x00000524:    30a0        .0      ADDS     r0,r0,#0xa0
        0x00000526:    f005ff37    ..7.    BL       strcpy ; 0x6398
        0x0000052a:    48b6        .H      LDR      r0,[pc,#728] ; [0x804] = 0x20000120
        0x0000052c:    a1c3        ..      ADR      r1,{pc}+0x310 ; 0x83c
        0x0000052e:    30b0        .0      ADDS     r0,r0,#0xb0
        0x00000530:    f005ff32    ..2.    BL       strcpy ; 0x6398
        0x00000534:    48b3        .H      LDR      r0,[pc,#716] ; [0x804] = 0x20000120
        0x00000536:    a1c4        ..      ADR      r1,{pc}+0x312 ; 0x848
        0x00000538:    30c0        .0      ADDS     r0,r0,#0xc0
        0x0000053a:    f005ff2d    ..-.    BL       strcpy ; 0x6398
        0x0000053e:    48b1        .H      LDR      r0,[pc,#708] ; [0x804] = 0x20000120
        0x00000540:    a1c1        ..      ADR      r1,{pc}+0x308 ; 0x848
        0x00000542:    30d8        .0      ADDS     r0,r0,#0xd8
        0x00000544:    f005ff28    ..(.    BL       strcpy ; 0x6398
        0x00000548:    48ae        .H      LDR      r0,[pc,#696] ; [0x804] = 0x20000120
        0x0000054a:    a1c4        ..      ADR      r1,{pc}+0x312 ; 0x85c
        0x0000054c:    30f0        .0      ADDS     r0,r0,#0xf0
        0x0000054e:    f005ff23    ..#.    BL       strcpy ; 0x6398
        0x00000552:    a1c4        ..      ADR      r1,{pc}+0x312 ; 0x864
        0x00000554:    48c5        .H      LDR      r0,[pc,#788] ; [0x86c] = 0x2000023d
        0x00000556:    f005ff1f    ....    BL       strcpy ; 0x6398
        0x0000055a:    48c4        .H      LDR      r0,[pc,#784] ; [0x86c] = 0x2000023d
        0x0000055c:    a1c4        ..      ADR      r1,{pc}+0x314 ; 0x870
        0x0000055e:    300a        .0      ADDS     r0,r0,#0xa
        0x00000560:    f005ff1a    ....    BL       strcpy ; 0x6398
        0x00000564:    48c1        .H      LDR      r0,[pc,#772] ; [0x86c] = 0x2000023d
        0x00000566:    a1c4        ..      ADR      r1,{pc}+0x312 ; 0x878
        0x00000568:    3818        .8      SUBS     r0,r0,#0x18
        0x0000056a:    f005ff15    ....    BL       strcpy ; 0x6398
        0x0000056e:    48bf        .H      LDR      r0,[pc,#764] ; [0x86c] = 0x2000023d
        0x00000570:    a1c6        ..      ADR      r1,{pc}+0x31c ; 0x88c
        0x00000572:    3014        .0      ADDS     r0,r0,#0x14
        0x00000574:    f005ff10    ....    BL       strcpy ; 0x6398
        0x00000578:    48bc        .H      LDR      r0,[pc,#752] ; [0x86c] = 0x2000023d
        0x0000057a:    2131        1!      MOVS     r1,#0x31
        0x0000057c:    381d        .8      SUBS     r0,r0,#0x1d
        0x0000057e:    70c1        .p      STRB     r1,[r0,#3]
        0x00000580:    2130        0!      MOVS     r1,#0x30
        0x00000582:    7101        .q      STRB     r1,[r0,#4]
        0x00000584:    22ff        ."      MOVS     r2,#0xff
        0x00000586:    322d        -2      ADDS     r2,r2,#0x2d
        0x00000588:    4601        .F      MOV      r1,r0
        0x0000058a:    3920         9      SUBS     r1,r1,#0x20
        0x0000058c:    830a        ..      STRH     r2,[r1,#0x18]
        0x0000058e:    4ac1        .J      LDR      r2,[pc,#772] ; [0x894] = 0xbb8
        0x00000590:    834a        J.      STRH     r2,[r1,#0x1a]
        0x00000592:    4ac0        .J      LDR      r2,[pc,#768] ; [0x894] = 0xbb8
        0x00000594:    3a64        d:      SUBS     r2,r2,#0x64
        0x00000596:    838a        ..      STRH     r2,[r1,#0x1c]
        0x00000598:    22af        ."      MOVS     r2,#0xaf
        0x0000059a:    0112        ..      LSLS     r2,r2,#4
        0x0000059c:    83ca        ..      STRH     r2,[r1,#0x1e]
        0x0000059e:    49be        .I      LDR      r1,[pc,#760] ; [0x898] = 0xa8c
        0x000005a0:    8001        ..      STRH     r1,[r0,#0]
        0x000005a2:    2100        .!      MOVS     r1,#0
        0x000005a4:    7081        .p      STRB     r1,[r0,#2]
        0x000005a6:    48bd        .H      LDR      r0,[pc,#756] ; [0x89c] = 0x2000000c
        0x000005a8:    7001        .p      STRB     r1,[r0,#0]
        0x000005aa:    24f9        .$      MOVS     r4,#0xf9
        0x000005ac:    0264        d.      LSLS     r4,r4,#9
        0x000005ae:    4620         F      MOV      r0,r4
        0x000005b0:    f7ffff4d    ..M.    BL       ErasePage ; 0x44e
        0x000005b4:    49ba        .I      LDR      r1,[pc,#744] ; [0x8a0] = 0x1f208
        0x000005b6:    4893        .H      LDR      r0,[pc,#588] ; [0x804] = 0x20000120
        0x000005b8:    f7ffff8c    ....    BL       WritePage ; 0x4d4
        0x000005bc:    49b9        .I      LDR      r1,[pc,#740] ; [0x8a4] = 0xff1240
        0x000005be:    4620         F      MOV      r0,r4
        0x000005c0:    f001f9ce    ....    BL       FMC_Write ; 0x1960
        0x000005c4:    207d        }       MOVS     r0,#0x7d
        0x000005c6:    0280        ..      LSLS     r0,r0,#10
        0x000005c8:    f7ffff41    ..A.    BL       ErasePage ; 0x44e
        0x000005cc:    bd10        ..      POP      {r4,pc}
    IsEmptyLog
        0x000005ce:    01c0        ..      LSLS     r0,r0,#7
        0x000005d0:    21fb        .!      MOVS     r1,#0xfb
        0x000005d2:    0249        I.      LSLS     r1,r1,#9
        0x000005d4:    1840        @.      ADDS     r0,r0,r1
        0x000005d6:    e74b        K.      B        IsEmptySect ; 0x470
    GetEmptyLogIndex
        0x000005d8:    b570        p.      PUSH     {r4-r6,lr}
        0x000005da:    4606        .F      MOV      r6,r0
        0x000005dc:    2504        .%      MOVS     r5,#4
        0x000005de:    2403        .$      MOVS     r4,#3
        0x000005e0:    1930        0.      ADDS     r0,r6,r4
        0x000005e2:    b2c0        ..      UXTB     r0,r0
        0x000005e4:    f7fffff3    ....    BL       IsEmptyLog ; 0x5ce
        0x000005e8:    2800        .(      CMP      r0,#0
        0x000005ea:    d004        ..      BEQ      0x5f6 ; GetEmptyLogIndex + 30
        0x000005ec:    b2e5        ..      UXTB     r5,r4
        0x000005ee:    1e64        d.      SUBS     r4,r4,#1
        0x000005f0:    b264        d.      SXTB     r4,r4
        0x000005f2:    2c00        .,      CMP      r4,#0
        0x000005f4:    daf4        ..      BGE      0x5e0 ; GetEmptyLogIndex + 8
        0x000005f6:    4628        (F      MOV      r0,r5
        0x000005f8:    bd70        p.      POP      {r4-r6,pc}
    IsEmptyLogPage
        0x000005fa:    0240        @.      LSLS     r0,r0,#9
        0x000005fc:    21fb        .!      MOVS     r1,#0xfb
        0x000005fe:    0249        I.      LSLS     r1,r1,#9
        0x00000600:    1840        @.      ADDS     r0,r0,r1
        0x00000602:    e746        F.      B        IsEmptyPage ; 0x492
    LogInit
        0x00000604:    b570        p.      PUSH     {r4-r6,lr}
        0x00000606:    2400        .$      MOVS     r4,#0
        0x00000608:    4620         F      MOV      r0,r4
        0x0000060a:    f7fffff6    ....    BL       IsEmptyLogPage ; 0x5fa
        0x0000060e:    2800        .(      CMP      r0,#0
        0x00000610:    d103        ..      BNE      0x61a ; LogInit + 22
        0x00000612:    1c64        d.      ADDS     r4,r4,#1
        0x00000614:    b2e4        ..      UXTB     r4,r4
        0x00000616:    2c04        .,      CMP      r4,#4
        0x00000618:    d3f6        ..      BCC      0x608 ; LogInit + 4
        0x0000061a:    2600        .&      MOVS     r6,#0
        0x0000061c:    4d9f        .M      LDR      r5,[pc,#636] ; [0x89c] = 0x2000000c
        0x0000061e:    2c00        .,      CMP      r4,#0
        0x00000620:    d005        ..      BEQ      0x62e ; LogInit + 42
        0x00000622:    706c        lp      STRB     r4,[r5,#1]
        0x00000624:    7868        hx      LDRB     r0,[r5,#1]
        0x00000626:    2800        .(      CMP      r0,#0
        0x00000628:    d00b        ..      BEQ      0x642 ; LogInit + 62
        0x0000062a:    1e40        @.      SUBS     r0,r0,#1
        0x0000062c:    e00a        ..      B        0x644 ; LogInit + 64
        0x0000062e:    2001        .       MOVS     r0,#1
        0x00000630:    f7ffffe3    ....    BL       IsEmptyLogPage ; 0x5fa
        0x00000634:    2800        .(      CMP      r0,#0
        0x00000636:    d001        ..      BEQ      0x63c ; LogInit + 56
        0x00000638:    706e        np      STRB     r6,[r5,#1]
        0x0000063a:    e7f3        ..      B        0x624 ; LogInit + 32
        0x0000063c:    2003        .       MOVS     r0,#3
        0x0000063e:    7068        hp      STRB     r0,[r5,#1]
        0x00000640:    e7f0        ..      B        0x624 ; LogInit + 32
        0x00000642:    2003        .       MOVS     r0,#3
        0x00000644:    0084        ..      LSLS     r4,r0,#2
        0x00000646:    b2e0        ..      UXTB     r0,r4
        0x00000648:    f7ffffc6    ....    BL       GetEmptyLogIndex ; 0x5d8
        0x0000064c:    1820         .      ADDS     r0,r4,r0
        0x0000064e:    b2c0        ..      UXTB     r0,r0
        0x00000650:    7068        hp      STRB     r0,[r5,#1]
        0x00000652:    2810        .(      CMP      r0,#0x10
        0x00000654:    d300        ..      BCC      0x658 ; LogInit + 84
        0x00000656:    706e        np      STRB     r6,[r5,#1]
        0x00000658:    bd70        p.      POP      {r4-r6,pc}
    ReadPage
        0x0000065a:    b5f8        ..      PUSH     {r3-r7,lr}
        0x0000065c:    4607        .F      MOV      r7,r0
        0x0000065e:    460d        .F      MOV      r5,r1
        0x00000660:    264f        O&      MOVS     r6,#0x4f
        0x00000662:    2400        .$      MOVS     r4,#0
        0x00000664:    e007        ..      B        0x676 ; ReadPage + 28
        0x00000666:    4628        (F      MOV      r0,r5
        0x00000668:    f7fffece    ....    BL       FMC_Read ; 0x408
        0x0000066c:    00a1        ..      LSLS     r1,r4,#2
        0x0000066e:    5078        xP      STR      r0,[r7,r1]
        0x00000670:    1d2d        -.      ADDS     r5,r5,#4
        0x00000672:    1c64        d.      ADDS     r4,r4,#1
        0x00000674:    b2e4        ..      UXTB     r4,r4
        0x00000676:    42b4        .B      CMP      r4,r6
        0x00000678:    d3f5        ..      BCC      0x666 ; ReadPage + 12
        0x0000067a:    bdf8        ..      POP      {r3-r7,pc}
    ReadFromNv
        0x0000067c:    4987        .I      LDR      r1,[pc,#540] ; [0x89c] = 0x2000000c
        0x0000067e:    7809        .x      LDRB     r1,[r1,#0]
        0x00000680:    2900        .)      CMP      r1,#0
        0x00000682:    d001        ..      BEQ      0x688 ; ReadFromNv + 12
        0x00000684:    4988        .I      LDR      r1,[pc,#544] ; [0x8a8] = 0x1f408
        0x00000686:    e7e8        ..      B        ReadPage ; 0x65a
        0x00000688:    4985        .I      LDR      r1,[pc,#532] ; [0x8a0] = 0x1f208
        0x0000068a:    e7fc        ..      B        0x686 ; ReadFromNv + 10
    ParamInit
        0x0000068c:    b5f8        ..      PUSH     {r3-r7,lr}
        0x0000068e:    2400        .$      MOVS     r4,#0
        0x00000690:    20f9        .       MOVS     r0,#0xf9
        0x00000692:    0240        @.      LSLS     r0,r0,#9
        0x00000694:    f7fffeb8    ....    BL       FMC_Read ; 0x408
        0x00000698:    4e82        .N      LDR      r6,[pc,#520] ; [0x8a4] = 0xff1240
        0x0000069a:    2701        .'      MOVS     r7,#1
        0x0000069c:    4d7f        .M      LDR      r5,[pc,#508] ; [0x89c] = 0x2000000c
        0x0000069e:    42b0        .B      CMP      r0,r6
        0x000006a0:    d120         .      BNE      0x6e4 ; ParamInit + 88
        0x000006a2:    487f        .H      LDR      r0,[pc,#508] ; [0x8a0] = 0x1f208
        0x000006a4:    1f00        ..      SUBS     r0,r0,#4
        0x000006a6:    f7fffeaf    ....    BL       FMC_Read ; 0x408
        0x000006aa:    4980        .I      LDR      r1,[pc,#512] ; [0x8ac] = 0xabcdffff
        0x000006ac:    4288        .B      CMP      r0,r1
        0x000006ae:    d002        ..      BEQ      0x6b6 ; ParamInit + 42
        0x000006b0:    2000        .       MOVS     r0,#0
        0x000006b2:    7028        (p      STRB     r0,[r5,#0]
        0x000006b4:    e022        ".      B        0x6fc ; ParamInit + 112
        0x000006b6:    207d        }       MOVS     r0,#0x7d
        0x000006b8:    0280        ..      LSLS     r0,r0,#10
        0x000006ba:    f7fffea5    ....    BL       FMC_Read ; 0x408
        0x000006be:    42b0        .B      CMP      r0,r6
        0x000006c0:    d10d        ..      BNE      0x6de ; ParamInit + 82
        0x000006c2:    4879        yH      LDR      r0,[pc,#484] ; [0x8a8] = 0x1f408
        0x000006c4:    1f00        ..      SUBS     r0,r0,#4
        0x000006c6:    f7fffe9f    ....    BL       FMC_Read ; 0x408
        0x000006ca:    4978        xI      LDR      r1,[pc,#480] ; [0x8ac] = 0xabcdffff
        0x000006cc:    4288        .B      CMP      r0,r1
        0x000006ce:    d001        ..      BEQ      0x6d4 ; ParamInit + 72
        0x000006d0:    702f        /p      STRB     r7,[r5,#0]
        0x000006d2:    e013        ..      B        0x6fc ; ParamInit + 112
        0x000006d4:    2401        .$      MOVS     r4,#1
        0x000006d6:    a076        v.      ADR      r0,{pc}+0x1da ; 0x8b0
        0x000006d8:    f001fd9f    ....    BL       debug ; 0x221a
        0x000006dc:    e00e        ..      B        0x6fc ; ParamInit + 112
        0x000006de:    2000        .       MOVS     r0,#0
        0x000006e0:    7028        (p      STRB     r0,[r5,#0]
        0x000006e2:    e00b        ..      B        0x6fc ; ParamInit + 112
        0x000006e4:    207d        }       MOVS     r0,#0x7d
        0x000006e6:    0280        ..      LSLS     r0,r0,#10
        0x000006e8:    f7fffe8e    ....    BL       FMC_Read ; 0x408
        0x000006ec:    42b0        .B      CMP      r0,r6
        0x000006ee:    d101        ..      BNE      0x6f4 ; ParamInit + 104
        0x000006f0:    702f        /p      STRB     r7,[r5,#0]
        0x000006f2:    e003        ..      B        0x6fc ; ParamInit + 112
        0x000006f4:    2401        .$      MOVS     r4,#1
        0x000006f6:    a06e        n.      ADR      r0,{pc}+0x1ba ; 0x8b0
        0x000006f8:    f001fd8f    ....    BL       debug ; 0x221a
        0x000006fc:    2c01        .,      CMP      r4,#1
        0x000006fe:    d010        ..      BEQ      0x722 ; ParamInit + 150
        0x00000700:    4840        @H      LDR      r0,[pc,#256] ; [0x804] = 0x20000120
        0x00000702:    f7ffffbb    ....    BL       ReadFromNv ; 0x67c
        0x00000706:    7828        (x      LDRB     r0,[r5,#0]
        0x00000708:    2800        .(      CMP      r0,#0
        0x0000070a:    d00d        ..      BEQ      0x728 ; ParamInit + 156
        0x0000070c:    24f9        .$      MOVS     r4,#0xf9
        0x0000070e:    0264        d.      LSLS     r4,r4,#9
        0x00000710:    4620         F      MOV      r0,r4
        0x00000712:    f7fffebe    ....    BL       IsEmptyPage ; 0x492
        0x00000716:    2800        .(      CMP      r0,#0
        0x00000718:    d102        ..      BNE      0x720 ; ParamInit + 148
        0x0000071a:    4620         F      MOV      r0,r4
        0x0000071c:    f7fffe97    ....    BL       ErasePage ; 0x44e
        0x00000720:    bdf8        ..      POP      {r3-r7,pc}
        0x00000722:    f7fffee8    ....    BL       InitDefault ; 0x4f6
        0x00000726:    bdf8        ..      POP      {r3-r7,pc}
        0x00000728:    247d        }$      MOVS     r4,#0x7d
        0x0000072a:    02a4        ..      LSLS     r4,r4,#10
        0x0000072c:    e7f0        ..      B        0x710 ; ParamInit + 132
    LogClean
        0x0000072e:    b570        p.      PUSH     {r4-r6,lr}
        0x00000730:    25fb        .%      MOVS     r5,#0xfb
        0x00000732:    026d        m.      LSLS     r5,r5,#9
        0x00000734:    2400        .$      MOVS     r4,#0
        0x00000736:    4620         F      MOV      r0,r4
        0x00000738:    f7ffff5f    .._.    BL       IsEmptyLogPage ; 0x5fa
        0x0000073c:    2800        .(      CMP      r0,#0
        0x0000073e:    d102        ..      BNE      0x746 ; LogClean + 24
        0x00000740:    4628        (F      MOV      r0,r5
        0x00000742:    f7fffe84    ....    BL       ErasePage ; 0x44e
        0x00000746:    35ff        .5      ADDS     r5,r5,#0xff
        0x00000748:    35ff        .5      ADDS     r5,r5,#0xff
        0x0000074a:    3502        .5      ADDS     r5,#2
        0x0000074c:    1c64        d.      ADDS     r4,r4,#1
        0x0000074e:    b2e4        ..      UXTB     r4,r4
        0x00000750:    2c04        .,      CMP      r4,#4
        0x00000752:    d3f0        ..      BCC      0x736 ; LogClean + 8
        0x00000754:    bd70        p.      POP      {r4-r6,pc}
    NvInit
        0x00000756:    b510        ..      PUSH     {r4,lr}
        0x00000758:    4858        XH      LDR      r0,[pc,#352] ; [0x8bc] = 0x50000100
        0x0000075a:    2159        Y!      MOVS     r1,#0x59
        0x0000075c:    6001        .`      STR      r1,[r0,#0]
        0x0000075e:    2116        .!      MOVS     r1,#0x16
        0x00000760:    6001        .`      STR      r1,[r0,#0]
        0x00000762:    2188        .!      MOVS     r1,#0x88
        0x00000764:    6001        .`      STR      r1,[r0,#0]
        0x00000766:    4822        "H      LDR      r0,[pc,#136] ; [0x7f0] = 0x5000c000
        0x00000768:    6801        .h      LDR      r1,[r0,#0]
        0x0000076a:    2201        ."      MOVS     r2,#1
        0x0000076c:    4311        .C      ORRS     r1,r1,r2
        0x0000076e:    6001        .`      STR      r1,[r0,#0]
        0x00000770:    f7fffe58    ..X.    BL       NvVersionCheck ; 0x424
        0x00000774:    2800        .(      CMP      r0,#0
        0x00000776:    d004        ..      BEQ      0x782 ; NvInit + 44
        0x00000778:    f7ffff88    ....    BL       ParamInit ; 0x68c
        0x0000077c:    f7ffff42    ..B.    BL       LogInit ; 0x604
        0x00000780:    bd10        ..      POP      {r4,pc}
        0x00000782:    f7fffeb8    ....    BL       InitDefault ; 0x4f6
        0x00000786:    f7ffffd2    ....    BL       LogClean ; 0x72e
        0x0000078a:    f7fffe93    ....    BL       NvVersionWrite ; 0x4b4
        0x0000078e:    bd10        ..      POP      {r4,pc}
    WriteToNv
        0x00000790:    b570        p.      PUSH     {r4-r6,lr}
        0x00000792:    4606        .F      MOV      r6,r0
        0x00000794:    4c41        AL      LDR      r4,[pc,#260] ; [0x89c] = 0x2000000c
        0x00000796:    4945        EI      LDR      r1,[pc,#276] ; [0x8ac] = 0xabcdffff
        0x00000798:    7820         x      LDRB     r0,[r4,#0]
        0x0000079a:    2800        .(      CMP      r0,#0
        0x0000079c:    d019        ..      BEQ      0x7d2 ; WriteToNv + 66
        0x0000079e:    4d40        @M      LDR      r5,[pc,#256] ; [0x8a0] = 0x1f208
        0x000007a0:    4841        AH      LDR      r0,[pc,#260] ; [0x8a8] = 0x1f408
        0x000007a2:    1f00        ..      SUBS     r0,r0,#4
        0x000007a4:    f001f8dc    ....    BL       FMC_Write ; 0x1960
        0x000007a8:    4629        )F      MOV      r1,r5
        0x000007aa:    4630        0F      MOV      r0,r6
        0x000007ac:    f7fffe92    ....    BL       WritePage ; 0x4d4
        0x000007b0:    7822        "x      LDRB     r2,[r4,#0]
        0x000007b2:    257d        }%      MOVS     r5,#0x7d
        0x000007b4:    26f9        .&      MOVS     r6,#0xf9
        0x000007b6:    493b        ;I      LDR      r1,[pc,#236] ; [0x8a4] = 0xff1240
        0x000007b8:    02ad        ..      LSLS     r5,r5,#10
        0x000007ba:    0276        v.      LSLS     r6,r6,#9
        0x000007bc:    2a00        .*      CMP      r2,#0
        0x000007be:    d00e        ..      BEQ      0x7de ; WriteToNv + 78
        0x000007c0:    4630        0F      MOV      r0,r6
        0x000007c2:    f001f8cd    ....    BL       FMC_Write ; 0x1960
        0x000007c6:    4628        (F      MOV      r0,r5
        0x000007c8:    f7fffe41    ..A.    BL       ErasePage ; 0x44e
        0x000007cc:    2000        .       MOVS     r0,#0
        0x000007ce:    7020         p      STRB     r0,[r4,#0]
        0x000007d0:    bd70        p.      POP      {r4-r6,pc}
        0x000007d2:    4d35        5M      LDR      r5,[pc,#212] ; [0x8a8] = 0x1f408
        0x000007d4:    4832        2H      LDR      r0,[pc,#200] ; [0x8a0] = 0x1f208
        0x000007d6:    1f00        ..      SUBS     r0,r0,#4
        0x000007d8:    f001f8c2    ....    BL       FMC_Write ; 0x1960
        0x000007dc:    e7e4        ..      B        0x7a8 ; WriteToNv + 24
        0x000007de:    4628        (F      MOV      r0,r5
        0x000007e0:    f001f8be    ....    BL       FMC_Write ; 0x1960
        0x000007e4:    4630        0F      MOV      r0,r6
        0x000007e6:    f7fffe32    ..2.    BL       ErasePage ; 0x44e
        0x000007ea:    2001        .       MOVS     r0,#1
        0x000007ec:    7020         p      STRB     r0,[r4,#0]
        0x000007ee:    bd70        p.      POP      {r4-r6,pc}
    $d
        0x000007f0:    5000c000    ...P    DCD    1342226432
        0x000007f4:    abcd0007    ....    DCD    2882338823
        0x000007f8:    5620564e    NV V    DCD    1444959822
        0x000007fc:    20737265    ers     DCD    544436837
        0x00000800:    00646162    bad.    DCD    6578530
        0x00000804:    20000120     ..     DCD    536871200
        0x00000808:    65706d22    "mpe    DCD    1701866786
        0x0000080c:    6c2e7372    rs.l    DCD    1814983538
        0x00000810:    61656669    ifea    DCD    1634035305
        0x00000814:    7472656c    lert    DCD    1953654124
        0x00000818:    6d6f632e    .com    DCD    1836016430
        0x0000081c:    00000022    "...    DCD    34
        0x00000820:    6e706122    "apn    DCD    1852858658
        0x00000824:    70612e32    2.ap    DCD    1885417010
        0x00000828:    632e326e    n2.c    DCD    1663971950
        0x0000082c:    00226d6f    om".    DCD    2256239
        0x00000830:    30303831    1800    DCD    808466481
        0x00000834:    30303334    4300    DCD    808465204
        0x00000838:    00393638    869.    DCD    3749432
        0x0000083c:    30303831    1800    DCD    808466481
        0x00000840:    30303534    4500    DCD    808465716
        0x00000844:    00393639    969.    DCD    3749433
        0x00000848:    38303222    "208    DCD    942682658
        0x0000084c:    2e39342e    .49.    DCD    775500846
        0x00000850:    332e3438    84.3    DCD    858666040
        0x00000854:    332c2231    1",3    DCD    858530353
        0x00000858:    00313630    061.    DCD    3225136
        0x0000085c:    30363033    3060    DCD    808857651
        0x00000860:    00000000    ....    DCD    0
        0x00000864:    31313131    1111    DCD    825307441
        0x00000868:    00000000    ....    DCD    0
        0x0000086c:    2000023d    =..     DCD    536871485
        0x00000870:    38323031    1028    DCD    942813233
        0x00000874:    00000000    ....    DCD    0
        0x00000878:    2e323122    "12.    DCD    775041314
        0x0000087c:    2e373631    167.    DCD    775370289
        0x00000880:    312e3236    62.1    DCD    825111094
        0x00000884:    32373a31    1:72    DCD    842480177
        0x00000888:    00223637    76".    DCD    2242103
        0x0000088c:    39393939    9999    DCD    960051513
        0x00000890:    00000000    ....    DCD    0
        0x00000894:    00000bb8    ....    DCD    3000
        0x00000898:    00000a8c    ....    DCD    2700
        0x0000089c:    2000000c    ...     DCD    536870924
        0x000008a0:    0001f208    ....    DCD    127496
        0x000008a4:    00ff1240    @...    DCD    16716352
        0x000008a8:    0001f408    ....    DCD    128008
        0x000008ac:    abcdffff    ....    DCD    2882404351
        0x000008b0:    20726170    par     DCD    544366960
        0x000008b4:    20727265    err     DCD    544371301
        0x000008b8:    00000031    1...    DCD    49
        0x000008bc:    50000100    ...P    DCD    1342177536
    $t
    ReadStringLog
        0x000008c0:    b5f8        ..      PUSH     {r3-r7,lr}
        0x000008c2:    4605        .F      MOV      r5,r0
        0x000008c4:    460e        .F      MOV      r6,r1
        0x000008c6:    4617        .F      MOV      r7,r2
        0x000008c8:    2400        .$      MOVS     r4,#0
        0x000008ca:    e00b        ..      B        0x8e4 ; ReadStringLog + 36
        0x000008cc:    4628        (F      MOV      r0,r5
        0x000008ce:    f7fffd9b    ....    BL       FMC_Read ; 0x408
        0x000008d2:    00a1        ..      LSLS     r1,r4,#2
        0x000008d4:    5070        pP      STR      r0,[r6,r1]
        0x000008d6:    2101        .!      MOVS     r1,#1
        0x000008d8:    0609        ..      LSLS     r1,r1,#24
        0x000008da:    4288        .B      CMP      r0,r1
        0x000008dc:    d304        ..      BCC      0x8e8 ; ReadStringLog + 40
        0x000008de:    1d2d        -.      ADDS     r5,r5,#4
        0x000008e0:    1c64        d.      ADDS     r4,r4,#1
        0x000008e2:    b2e4        ..      UXTB     r4,r4
        0x000008e4:    42bc        .B      CMP      r4,r7
        0x000008e6:    d3f1        ..      BCC      0x8cc ; ReadStringLog + 12
        0x000008e8:    bdf8        ..      POP      {r3-r7,pc}
    WriteStringLog
        0x000008ea:    b5f7        ..      PUSH     {r0-r2,r4-r7,lr}
        0x000008ec:    4605        .F      MOV      r5,r0
        0x000008ee:    460f        .F      MOV      r7,r1
        0x000008f0:    2400        .$      MOVS     r4,#0
        0x000008f2:    e00c        ..      B        0x90e ; WriteStringLog + 36
        0x000008f4:    00a0        ..      LSLS     r0,r4,#2
        0x000008f6:    583e        >X      LDR      r6,[r7,r0]
        0x000008f8:    4628        (F      MOV      r0,r5
        0x000008fa:    4631        1F      MOV      r1,r6
        0x000008fc:    f001f830    ..0.    BL       FMC_Write ; 0x1960
        0x00000900:    2001        .       MOVS     r0,#1
        0x00000902:    0600        ..      LSLS     r0,r0,#24
        0x00000904:    4286        .B      CMP      r6,r0
        0x00000906:    d305        ..      BCC      0x914 ; WriteStringLog + 42
        0x00000908:    1d2d        -.      ADDS     r5,r5,#4
        0x0000090a:    1c64        d.      ADDS     r4,r4,#1
        0x0000090c:    b2e4        ..      UXTB     r4,r4
        0x0000090e:    9802        ..      LDR      r0,[sp,#8]
        0x00000910:    4284        .B      CMP      r4,r0
        0x00000912:    d3ef        ..      BCC      0x8f4 ; WriteStringLog + 10
        0x00000914:    bdfe        ..      POP      {r1-r7,pc}
    ReadOneLog
        0x00000916:    b570        p.      PUSH     {r4-r6,lr}
        0x00000918:    4604        .F      MOV      r4,r0
        0x0000091a:    460d        .F      MOV      r5,r1
        0x0000091c:    4620         F      MOV      r0,r4
        0x0000091e:    f7fffe56    ..V.    BL       IsEmptyLog ; 0x5ce
        0x00000922:    2801        .(      CMP      r0,#1
        0x00000924:    d011        ..      BEQ      0x94a ; ReadOneLog + 52
        0x00000926:    01e0        ..      LSLS     r0,r4,#7
        0x00000928:    21fb        .!      MOVS     r1,#0xfb
        0x0000092a:    0249        I.      LSLS     r1,r1,#9
        0x0000092c:    1844        D.      ADDS     r4,r0,r1
        0x0000092e:    4620         F      MOV      r0,r4
        0x00000930:    f7fffd6a    ..j.    BL       FMC_Read ; 0x408
        0x00000934:    49fe        .I      LDR      r1,[pc,#1016] ; [0xd30] = 0xff1240
        0x00000936:    4288        .B      CMP      r0,r1
        0x00000938:    d109        ..      BNE      0x94e ; ReadOneLog + 56
        0x0000093a:    4620         F      MOV      r0,r4
        0x0000093c:    2220         "      MOVS     r2,#0x20
        0x0000093e:    4629        )F      MOV      r1,r5
        0x00000940:    3008        .0      ADDS     r0,r0,#8
        0x00000942:    f7ffffbd    ....    BL       ReadStringLog ; 0x8c0
        0x00000946:    2002        .       MOVS     r0,#2
        0x00000948:    bd70        p.      POP      {r4-r6,pc}
        0x0000094a:    2000        .       MOVS     r0,#0
        0x0000094c:    bd70        p.      POP      {r4-r6,pc}
        0x0000094e:    2001        .       MOVS     r0,#1
        0x00000950:    bd70        p.      POP      {r4-r6,pc}
    WriteOneLog
        0x00000952:    b570        p.      PUSH     {r4-r6,lr}
        0x00000954:    460d        .F      MOV      r5,r1
        0x00000956:    01c4        ..      LSLS     r4,r0,#7
        0x00000958:    b2a1        ..      UXTH     r1,r4
        0x0000095a:    2201        ."      MOVS     r2,#1
        0x0000095c:    a0f5        ..      ADR      r0,{pc}+0x3d8 ; 0xd34
        0x0000095e:    f001fcc1    ....    BL       debug_16 ; 0x22e4
        0x00000962:    20fb        .       MOVS     r0,#0xfb
        0x00000964:    0240        @.      LSLS     r0,r0,#9
        0x00000966:    1824        $.      ADDS     r4,r4,r0
        0x00000968:    49f5        .I      LDR      r1,[pc,#980] ; [0xd40] = 0xabcdffff
        0x0000096a:    1d20         .      ADDS     r0,r4,#4
        0x0000096c:    f000fff8    ....    BL       FMC_Write ; 0x1960
        0x00000970:    4620         F      MOV      r0,r4
        0x00000972:    2220         "      MOVS     r2,#0x20
        0x00000974:    4629        )F      MOV      r1,r5
        0x00000976:    3008        .0      ADDS     r0,r0,#8
        0x00000978:    f7ffffb7    ....    BL       WriteStringLog ; 0x8ea
        0x0000097c:    49ec        .I      LDR      r1,[pc,#944] ; [0xd30] = 0xff1240
        0x0000097e:    4620         F      MOV      r0,r4
        0x00000980:    f000ffee    ....    BL       FMC_Write ; 0x1960
        0x00000984:    bd70        p.      POP      {r4-r6,pc}
    WriteLog
        0x00000986:    b570        p.      PUSH     {r4-r6,lr}
        0x00000988:    b0a0        ..      SUB      sp,sp,#0x80
        0x0000098a:    4606        .F      MOV      r6,r0
        0x0000098c:    4ded        .M      LDR      r5,[pc,#948] ; [0xd44] = 0x2000000c
        0x0000098e:    786c        lx      LDRB     r4,[r5,#1]
        0x00000990:    2201        ."      MOVS     r2,#1
        0x00000992:    4621        !F      MOV      r1,r4
        0x00000994:    a0ec        ..      ADR      r0,{pc}+0x3b4 ; 0xd48
        0x00000996:    f001fcc3    ....    BL       debug_8 ; 0x2320
        0x0000099a:    07a0        ..      LSLS     r0,r4,#30
        0x0000099c:    d10d        ..      BNE      0x9ba ; WriteLog + 52
        0x0000099e:    1d24        $.      ADDS     r4,r4,#4
        0x000009a0:    0724        $.      LSLS     r4,r4,#28
        0x000009a2:    0f24        $.      LSRS     r4,r4,#28
        0x000009a4:    4620         F      MOV      r0,r4
        0x000009a6:    f7fffe12    ....    BL       IsEmptyLog ; 0x5ce
        0x000009aa:    2800        .(      CMP      r0,#0
        0x000009ac:    d105        ..      BNE      0x9ba ; WriteLog + 52
        0x000009ae:    01e0        ..      LSLS     r0,r4,#7
        0x000009b0:    21fb        .!      MOVS     r1,#0xfb
        0x000009b2:    0249        I.      LSLS     r1,r1,#9
        0x000009b4:    1840        @.      ADDS     r0,r0,r1
        0x000009b6:    f7fffd4a    ..J.    BL       ErasePage ; 0x44e
        0x000009ba:    2112        .!      MOVS     r1,#0x12
        0x000009bc:    4668        hF      MOV      r0,sp
        0x000009be:    f003fe8c    ....    BL       GetDateTime ; 0x46da
        0x000009c2:    2800        .(      CMP      r0,#0
        0x000009c4:    d02e        ..      BEQ      0xa24 ; WriteLog + 158
        0x000009c6:    a1e3        ..      ADR      r1,{pc}+0x38e ; 0xd54
        0x000009c8:    4668        hF      MOV      r0,sp
        0x000009ca:    f005fd7d    ..}.    BL       strcat ; 0x64c8
        0x000009ce:    49e2        .I      LDR      r1,[pc,#904] ; [0xd58] = 0x20000114
        0x000009d0:    4668        hF      MOV      r0,sp
        0x000009d2:    f005fd79    ..y.    BL       strcat ; 0x64c8
        0x000009d6:    a1df        ..      ADR      r1,{pc}+0x37e ; 0xd54
        0x000009d8:    4668        hF      MOV      r0,sp
        0x000009da:    f005fd75    ..u.    BL       strcat ; 0x64c8
        0x000009de:    4668        hF      MOV      r0,sp
        0x000009e0:    f005fd00    ....    BL       strlen ; 0x63e4
        0x000009e4:    4604        .F      MOV      r4,r0
        0x000009e6:    4630        0F      MOV      r0,r6
        0x000009e8:    f005fcfc    ....    BL       strlen ; 0x63e4
        0x000009ec:    1820         .      ADDS     r0,r4,r0
        0x000009ee:    2880        .(      CMP      r0,#0x80
        0x000009f0:    d218        ..      BCS      0xa24 ; WriteLog + 158
        0x000009f2:    4631        1F      MOV      r1,r6
        0x000009f4:    4668        hF      MOV      r0,sp
        0x000009f6:    f005fd67    ..g.    BL       strcat ; 0x64c8
        0x000009fa:    4669        iF      MOV      r1,sp
        0x000009fc:    7868        hx      LDRB     r0,[r5,#1]
        0x000009fe:    f7ffffa8    ....    BL       WriteOneLog ; 0x952
        0x00000a02:    7868        hx      LDRB     r0,[r5,#1]
        0x00000a04:    1c40        @.      ADDS     r0,r0,#1
        0x00000a06:    b2c1        ..      UXTB     r1,r0
        0x00000a08:    2910        .)      CMP      r1,#0x10
        0x00000a0a:    d300        ..      BCC      0xa0e ; WriteLog + 136
        0x00000a0c:    2100        .!      MOVS     r1,#0
        0x00000a0e:    7069        ip      STRB     r1,[r5,#1]
        0x00000a10:    2201        ."      MOVS     r2,#1
        0x00000a12:    a0d2        ..      ADR      r0,{pc}+0x34a ; 0xd5c
        0x00000a14:    f001fc84    ....    BL       debug_8 ; 0x2320
        0x00000a18:    a0d3        ..      ADR      r0,{pc}+0x350 ; 0xd68
        0x00000a1a:    f001fbfe    ....    BL       debug ; 0x221a
        0x00000a1e:    4668        hF      MOV      r0,sp
        0x00000a20:    f001fbfb    ....    BL       debug ; 0x221a
        0x00000a24:    b020         .      ADD      sp,sp,#0x80
        0x00000a26:    bd70        p.      POP      {r4-r6,pc}
    ReadLog
        0x00000a28:    b570        p.      PUSH     {r4-r6,lr}
        0x00000a2a:    4606        .F      MOV      r6,r0
        0x00000a2c:    4dc5        .M      LDR      r5,[pc,#788] ; [0xd44] = 0x2000000c
        0x00000a2e:    2201        ."      MOVS     r2,#1
        0x00000a30:    78a9        .x      LDRB     r1,[r5,#2]
        0x00000a32:    a0d0        ..      ADR      r0,{pc}+0x342 ; 0xd74
        0x00000a34:    f001fc74    ..t.    BL       debug_8 ; 0x2320
        0x00000a38:    4631        1F      MOV      r1,r6
        0x00000a3a:    78a8        .x      LDRB     r0,[r5,#2]
        0x00000a3c:    f7ffff6b    ..k.    BL       ReadOneLog ; 0x916
        0x00000a40:    4604        .F      MOV      r4,r0
        0x00000a42:    2c00        .,      CMP      r4,#0
        0x00000a44:    d004        ..      BEQ      0xa50 ; ReadLog + 40
        0x00000a46:    78a8        .x      LDRB     r0,[r5,#2]
        0x00000a48:    2800        .(      CMP      r0,#0
        0x00000a4a:    d007        ..      BEQ      0xa5c ; ReadLog + 52
        0x00000a4c:    1e40        @.      SUBS     r0,r0,#1
        0x00000a4e:    e006        ..      B        0xa5e ; ReadLog + 54
        0x00000a50:    a0cd        ..      ADR      r0,{pc}+0x338 ; 0xd88
        0x00000a52:    f001fbe2    ....    BL       debug ; 0x221a
        0x00000a56:    2000        .       MOVS     r0,#0
        0x00000a58:    70e8        .p      STRB     r0,[r5,#3]
        0x00000a5a:    e009        ..      B        0xa70 ; ReadLog + 72
        0x00000a5c:    200f        .       MOVS     r0,#0xf
        0x00000a5e:    70a8        .p      STRB     r0,[r5,#2]
        0x00000a60:    2c02        .,      CMP      r4,#2
        0x00000a62:    d105        ..      BNE      0xa70 ; ReadLog + 72
        0x00000a64:    a0cd        ..      ADR      r0,{pc}+0x338 ; 0xd9c
        0x00000a66:    f001fbd8    ....    BL       debug ; 0x221a
        0x00000a6a:    78e8        .x      LDRB     r0,[r5,#3]
        0x00000a6c:    1e40        @.      SUBS     r0,r0,#1
        0x00000a6e:    70e8        .p      STRB     r0,[r5,#3]
        0x00000a70:    2c01        .,      CMP      r4,#1
        0x00000a72:    d0dc        ..      BEQ      0xa2e ; ReadLog + 6
        0x00000a74:    4620         F      MOV      r0,r4
        0x00000a76:    bd70        p.      POP      {r4-r6,pc}
    LogOnOff
        0x00000a78:    b5f0        ..      PUSH     {r4-r7,lr}
        0x00000a7a:    b089        ..      SUB      sp,sp,#0x24
        0x00000a7c:    4605        .F      MOV      r5,r0
        0x00000a7e:    2224        $"      MOVS     r2,#0x24
        0x00000a80:    49cb        .I      LDR      r1,[pc,#812] ; [0xdb0] = 0x78b4
        0x00000a82:    4668        hF      MOV      r0,sp
        0x00000a84:    f7fffbee    ....    BL       __aeabi_memcpy4 ; 0x264
        0x00000a88:    2d00        .-      CMP      r5,#0
        0x00000a8a:    d003        ..      BEQ      0xa94 ; LogOnOff + 28
        0x00000a8c:    a0c9        ..      ADR      r0,{pc}+0x328 ; 0xdb4
        0x00000a8e:    f001fbc4    ....    BL       debug ; 0x221a
        0x00000a92:    e002        ..      B        0xa9a ; LogOnOff + 34
        0x00000a94:    a0ce        ..      ADR      r0,{pc}+0x33c ; 0xdd0
        0x00000a96:    f001fbc0    ....    BL       debug ; 0x221a
        0x00000a9a:    4cd4        .L      LDR      r4,[pc,#848] ; [0xdec] = 0x20000030
        0x00000a9c:    7820         x      LDRB     r0,[r4,#0]
        0x00000a9e:    2800        .(      CMP      r0,#0
        0x00000aa0:    d103        ..      BNE      0xaaa ; LogOnOff + 50
        0x00000aa2:    f004fa0a    ....    BL       signal_quality ; 0x4eba
        0x00000aa6:    49d2        .I      LDR      r1,[pc,#840] ; [0xdf0] = 0x200000d4
        0x00000aa8:    7008        .p      STRB     r0,[r1,#0]
        0x00000aaa:    462a        *F      MOV      r2,r5
        0x00000aac:    ad02        ..      ADD      r5,sp,#8
        0x00000aae:    49a5        .I      LDR      r1,[pc,#660] ; [0xd44] = 0x2000000c
        0x00000ab0:    3501        .5      ADDS     r5,#1
        0x00000ab2:    2700        .'      MOVS     r7,#0
        0x00000ab4:    466e        nF      MOV      r6,sp
        0x00000ab6:    2a00        .*      CMP      r2,#0
        0x00000ab8:    d033        3.      BEQ      0xb22 ; LogOnOff + 170
        0x00000aba:    7820         x      LDRB     r0,[r4,#0]
        0x00000abc:    2800        .(      CMP      r0,#0
        0x00000abe:    d018        ..      BEQ      0xaf2 ; LogOnOff + 122
        0x00000ac0:    1d70        p.      ADDS     r0,r6,#5
        0x00000ac2:    a1cc        ..      ADR      r1,{pc}+0x332 ; 0xdf4
        0x00000ac4:    f005fc68    ..h.    BL       strcpy ; 0x6398
        0x00000ac8:    4628        (F      MOV      r0,r5
        0x00000aca:    f004ff41    ..A.    BL       AddVoltageInfo ; 0x5950
        0x00000ace:    3009        .0      ADDS     r0,r0,#9
        0x00000ad0:    b2c4        ..      UXTB     r4,r0
        0x00000ad2:    1930        0.      ADDS     r0,r6,r4
        0x00000ad4:    49c9        .I      LDR      r1,[pc,#804] ; [0xdfc] = 0x20000108
        0x00000ad6:    f005fc5f    .._.    BL       strcpy ; 0x6398
        0x00000ada:    48c8        .H      LDR      r0,[pc,#800] ; [0xdfc] = 0x20000108
        0x00000adc:    f005fc82    ....    BL       strlen ; 0x63e4
        0x00000ae0:    1900        ..      ADDS     r0,r0,r4
        0x00000ae2:    b2c0        ..      UXTB     r0,r0
        0x00000ae4:    1831        1.      ADDS     r1,r6,r0
        0x00000ae6:    2222        ""      MOVS     r2,#0x22
        0x00000ae8:    700a        .p      STRB     r2,[r1,#0]
        0x00000aea:    704f        Op      STRB     r7,[r1,#1]
        0x00000aec:    1c40        @.      ADDS     r0,r0,#1
        0x00000aee:    b2c4        ..      UXTB     r4,r0
        0x00000af0:    e047        G.      B        0xb82 ; LogOnOff + 266
        0x00000af2:    710f        .q      STRB     r7,[r1,#4]
        0x00000af4:    1d70        p.      ADDS     r0,r6,#5
        0x00000af6:    a1c2        ..      ADR      r1,{pc}+0x30a ; 0xe00
        0x00000af8:    f005fc4e    ..N.    BL       strcpy ; 0x6398
        0x00000afc:    4628        (F      MOV      r0,r5
        0x00000afe:    f004ff27    ..'.    BL       AddVoltageInfo ; 0x5950
        0x00000b02:    3009        .0      ADDS     r0,r0,#9
        0x00000b04:    b2c4        ..      UXTB     r4,r0
        0x00000b06:    48ba        .H      LDR      r0,[pc,#744] ; [0xdf0] = 0x200000d4
        0x00000b08:    1931        1.      ADDS     r1,r6,r4
        0x00000b0a:    2203        ."      MOVS     r2,#3
        0x00000b0c:    7800        .x      LDRB     r0,[r0,#0]
        0x00000b0e:    f001fc70    ..p.    BL       Dec2Txt ; 0x23f2
        0x00000b12:    1ce4        ..      ADDS     r4,r4,#3
        0x00000b14:    b2e0        ..      UXTB     r0,r4
        0x00000b16:    2122        "!      MOVS     r1,#0x22
        0x00000b18:    5431        1T      STRB     r1,[r6,r0]
        0x00000b1a:    1c40        @.      ADDS     r0,r0,#1
        0x00000b1c:    b2c4        ..      UXTB     r4,r0
        0x00000b1e:    5537        7U      STRB     r7,[r6,r4]
        0x00000b20:    e02f        /.      B        0xb82 ; LogOnOff + 266
        0x00000b22:    2001        .       MOVS     r0,#1
        0x00000b24:    7108        .q      STRB     r0,[r1,#4]
        0x00000b26:    1d70        p.      ADDS     r0,r6,#5
        0x00000b28:    a1b7        ..      ADR      r1,{pc}+0x2e0 ; 0xe08
        0x00000b2a:    f005fc35    ..5.    BL       strcpy ; 0x6398
        0x00000b2e:    48af        .H      LDR      r0,[pc,#700] ; [0xdec] = 0x20000030
        0x00000b30:    7800        .x      LDRB     r0,[r0,#0]
        0x00000b32:    2800        .(      CMP      r0,#0
        0x00000b34:    d03a        :.      BEQ      0xbac ; LogOnOff + 308
        0x00000b36:    1df0        ..      ADDS     r0,r6,#7
        0x00000b38:    a1b4        ..      ADR      r1,{pc}+0x2d4 ; 0xe0c
        0x00000b3a:    f005fc2d    ..-.    BL       strcpy ; 0x6398
        0x00000b3e:    2409        .$      MOVS     r4,#9
        0x00000b40:    48b3        .H      LDR      r0,[pc,#716] ; [0xe10] = 0x2000002f
        0x00000b42:    7800        .x      LDRB     r0,[r0,#0]
        0x00000b44:    2800        .(      CMP      r0,#0
        0x00000b46:    d004        ..      BEQ      0xb52 ; LogOnOff + 218
        0x00000b48:    4628        (F      MOV      r0,r5
        0x00000b4a:    a1b2        ..      ADR      r1,{pc}+0x2ca ; 0xe14
        0x00000b4c:    f005fc24    ..$.    BL       strcpy ; 0x6398
        0x00000b50:    240e        .$      MOVS     r4,#0xe
        0x00000b52:    48a6        .H      LDR      r0,[pc,#664] ; [0xdec] = 0x20000030
        0x00000b54:    7800        .x      LDRB     r0,[r0,#0]
        0x00000b56:    2800        .(      CMP      r0,#0
        0x00000b58:    d02e        ..      BEQ      0xbb8 ; LogOnOff + 320
        0x00000b5a:    1930        0.      ADDS     r0,r6,r4
        0x00000b5c:    f004fef8    ....    BL       AddVoltageInfo ; 0x5950
        0x00000b60:    1900        ..      ADDS     r0,r0,r4
        0x00000b62:    b2c4        ..      UXTB     r4,r0
        0x00000b64:    1930        0.      ADDS     r0,r6,r4
        0x00000b66:    49a5        .I      LDR      r1,[pc,#660] ; [0xdfc] = 0x20000108
        0x00000b68:    f005fc16    ....    BL       strcpy ; 0x6398
        0x00000b6c:    48a3        .H      LDR      r0,[pc,#652] ; [0xdfc] = 0x20000108
        0x00000b6e:    f005fc39    ..9.    BL       strlen ; 0x63e4
        0x00000b72:    1900        ..      ADDS     r0,r0,r4
        0x00000b74:    b2c0        ..      UXTB     r0,r0
        0x00000b76:    1831        1.      ADDS     r1,r6,r0
        0x00000b78:    2222        ""      MOVS     r2,#0x22
        0x00000b7a:    700a        .p      STRB     r2,[r1,#0]
        0x00000b7c:    704f        Op      STRB     r7,[r1,#1]
        0x00000b7e:    1c40        @.      ADDS     r0,r0,#1
        0x00000b80:    b2c4        ..      UXTB     r4,r0
        0x00000b82:    1930        0.      ADDS     r0,r6,r4
        0x00000b84:    49a5        .I      LDR      r1,[pc,#660] ; [0xe1c] = 0x2000067f
        0x00000b86:    f005fc07    ....    BL       strcpy ; 0x6398
        0x00000b8a:    48a4        .H      LDR      r0,[pc,#656] ; [0xe1c] = 0x2000067f
        0x00000b8c:    f005fc2a    ..*.    BL       strlen ; 0x63e4
        0x00000b90:    1900        ..      ADDS     r0,r0,r4
        0x00000b92:    b2c4        ..      UXTB     r4,r0
        0x00000b94:    1930        0.      ADDS     r0,r6,r4
        0x00000b96:    a1a2        ..      ADR      r1,{pc}+0x28a ; 0xe20
        0x00000b98:    f005fbfe    ....    BL       strcpy ; 0x6398
        0x00000b9c:    1ca4        ..      ADDS     r4,r4,#2
        0x00000b9e:    b2e0        ..      UXTB     r0,r4
        0x00000ba0:    5437        7T      STRB     r7,[r6,r0]
        0x00000ba2:    4668        hF      MOV      r0,sp
        0x00000ba4:    f7fffeef    ....    BL       WriteLog ; 0x986
        0x00000ba8:    b009        ..      ADD      sp,sp,#0x24
        0x00000baa:    bdf0        ..      POP      {r4-r7,pc}
        0x00000bac:    1df0        ..      ADDS     r0,r6,#7
        0x00000bae:    a19d        ..      ADR      r1,{pc}+0x276 ; 0xe24
        0x00000bb0:    f005fbf2    ....    BL       strcpy ; 0x6398
        0x00000bb4:    2409        .$      MOVS     r4,#9
        0x00000bb6:    e7c3        ..      B        0xb40 ; LogOnOff + 200
        0x00000bb8:    1930        0.      ADDS     r0,r6,r4
        0x00000bba:    f004fec9    ....    BL       AddVoltageInfo ; 0x5950
        0x00000bbe:    1900        ..      ADDS     r0,r0,r4
        0x00000bc0:    b2c4        ..      UXTB     r4,r0
        0x00000bc2:    488b        .H      LDR      r0,[pc,#556] ; [0xdf0] = 0x200000d4
        0x00000bc4:    1931        1.      ADDS     r1,r6,r4
        0x00000bc6:    2203        ."      MOVS     r2,#3
        0x00000bc8:    7800        .x      LDRB     r0,[r0,#0]
        0x00000bca:    f001fc12    ....    BL       Dec2Txt ; 0x23f2
        0x00000bce:    1ce4        ..      ADDS     r4,r4,#3
        0x00000bd0:    b2e0        ..      UXTB     r0,r4
        0x00000bd2:    2122        "!      MOVS     r1,#0x22
        0x00000bd4:    5431        1T      STRB     r1,[r6,r0]
        0x00000bd6:    1c40        @.      ADDS     r0,r0,#1
        0x00000bd8:    b2c4        ..      UXTB     r4,r0
        0x00000bda:    5537        7U      STRB     r7,[r6,r4]
        0x00000bdc:    e7d1        ..      B        0xb82 ; LogOnOff + 266
    CustomError
        0x00000bde:    b510        ..      PUSH     {r4,lr}
        0x00000be0:    4991        .I      LDR      r1,[pc,#580] ; [0xe28] = 0x2000004c
        0x00000be2:    7809        .x      LDRB     r1,[r1,#0]
        0x00000be4:    2900        .)      CMP      r1,#0
        0x00000be6:    d007        ..      BEQ      0xbf8 ; CustomError + 26
        0x00000be8:    f003fce0    ....    BL       SmsRsqAdd ; 0x45ac
        0x00000bec:    a08f        ..      ADR      r0,{pc}+0x240 ; 0xe2c
        0x00000bee:    f003fcdd    ....    BL       SmsRsqAdd ; 0x45ac
        0x00000bf2:    a090        ..      ADR      r0,{pc}+0x242 ; 0xe34
        0x00000bf4:    f003fcda    ....    BL       SmsRsqAdd ; 0x45ac
        0x00000bf8:    a08f        ..      ADR      r0,{pc}+0x240 ; 0xe38
        0x00000bfa:    f001fb03    ....    BL       SendDebugString ; 0x2204
        0x00000bfe:    bd10        ..      POP      {r4,pc}
    Custerm_String
        0x00000c00:    b5f3        ..      PUSH     {r0,r1,r4-r7,lr}
        0x00000c02:    b081        ..      SUB      sp,sp,#4
        0x00000c04:    460f        .F      MOV      r7,r1
        0x00000c06:    2400        .$      MOVS     r4,#0
        0x00000c08:    2600        .&      MOVS     r6,#0
        0x00000c0a:    2500        .%      MOVS     r5,#0
        0x00000c0c:    003b        ;.      MOVS     r3,r7
        0x00000c0e:    f006fde2    ....    BL       __ARM_common_switch8 ; 0x77d6
    $d
        0x00000c12:    0a12        ..      DCW    2578
        0x00000c14:    14231e0f    ..#.    DCD    337845775
        0x00000c18:    43432c19    .,CC    DCD    1128475673
        0x00000c1c:    43434331    1CCC    DCD    1128481585
        0x00000c20:    283a3543    C5:(    DCD    674903363
        0x00000c24:    433f        ?C      DCW    17215
    $t
        0x00000c26:    4c4c        LL      LDR      r4,[pc,#304] ; [0xd58] = 0x20000114
        0x00000c28:    340c        .4      ADDS     r4,r4,#0xc
        0x00000c2a:    2528        (%      MOVS     r5,#0x28
        0x00000c2c:    a684        ..      ADR      r6,{pc}+0x214 ; 0xe40
        0x00000c2e:    e033        3.      B        0xc98 ; Custerm_String + 152
        0x00000c30:    4c49        IL      LDR      r4,[pc,#292] ; [0xd58] = 0x20000114
        0x00000c32:    3434        44      ADDS     r4,r4,#0x34
        0x00000c34:    2528        (%      MOVS     r5,#0x28
        0x00000c36:    a684        ..      ADR      r6,{pc}+0x212 ; 0xe48
        0x00000c38:    e02e        ..      B        0xc98 ; Custerm_String + 152
        0x00000c3a:    4c47        GL      LDR      r4,[pc,#284] ; [0xd58] = 0x20000114
        0x00000c3c:    34ac        .4      ADDS     r4,r4,#0xac
        0x00000c3e:    2510        .%      MOVS     r5,#0x10
        0x00000c40:    a683        ..      ADR      r6,{pc}+0x210 ; 0xe50
        0x00000c42:    e029        ).      B        0xc98 ; Custerm_String + 152
        0x00000c44:    4c44        DL      LDR      r4,[pc,#272] ; [0xd58] = 0x20000114
        0x00000c46:    34bc        .4      ADDS     r4,r4,#0xbc
        0x00000c48:    2510        .%      MOVS     r5,#0x10
        0x00000c4a:    a684        ..      ADR      r6,{pc}+0x212 ; 0xe5c
        0x00000c4c:    e024        $.      B        0xc98 ; Custerm_String + 152
        0x00000c4e:    4c42        BL      LDR      r4,[pc,#264] ; [0xd58] = 0x20000114
        0x00000c50:    34cc        .4      ADDS     r4,r4,#0xcc
        0x00000c52:    2518        .%      MOVS     r5,#0x18
        0x00000c54:    a684        ..      ADR      r6,{pc}+0x214 ; 0xe68
        0x00000c56:    e01f        ..      B        0xc98 ; Custerm_String + 152
        0x00000c58:    4c3f        ?L      LDR      r4,[pc,#252] ; [0xd58] = 0x20000114
        0x00000c5a:    34e4        .4      ADDS     r4,r4,#0xe4
        0x00000c5c:    2518        .%      MOVS     r5,#0x18
        0x00000c5e:    a684        ..      ADR      r6,{pc}+0x212 ; 0xe70
        0x00000c60:    e01a        ..      B        0xc98 ; Custerm_String + 152
        0x00000c62:    4c85        .L      LDR      r4,[pc,#532] ; [0xe78] = 0x20000225
        0x00000c64:    2518        .%      MOVS     r5,#0x18
        0x00000c66:    a685        ..      ADR      r6,{pc}+0x216 ; 0xe7c
        0x00000c68:    e016        ..      B        0xc98 ; Custerm_String + 152
        0x00000c6a:    4c83        .L      LDR      r4,[pc,#524] ; [0xe78] = 0x20000225
        0x00000c6c:    3c15        .<      SUBS     r4,r4,#0x15
        0x00000c6e:    2508        .%      MOVS     r5,#8
        0x00000c70:    a685        ..      ADR      r6,{pc}+0x218 ; 0xe88
        0x00000c72:    e011        ..      B        0xc98 ; Custerm_String + 152
        0x00000c74:    4c38        8L      LDR      r4,[pc,#224] ; [0xd58] = 0x20000114
        0x00000c76:    250b        .%      MOVS     r5,#0xb
        0x00000c78:    a686        ..      ADR      r6,{pc}+0x21c ; 0xe94
        0x00000c7a:    e00d        ..      B        0xc98 ; Custerm_String + 152
        0x00000c7c:    4c36        6L      LDR      r4,[pc,#216] ; [0xd58] = 0x20000114
        0x00000c7e:    345c        \4      ADDS     r4,r4,#0x5c
        0x00000c80:    2528        (%      MOVS     r5,#0x28
        0x00000c82:    a686        ..      ADR      r6,{pc}+0x21a ; 0xe9c
        0x00000c84:    e008        ..      B        0xc98 ; Custerm_String + 152
        0x00000c86:    4c34        4L      LDR      r4,[pc,#208] ; [0xd58] = 0x20000114
        0x00000c88:    3484        .4      ADDS     r4,r4,#0x84
        0x00000c8a:    2528        (%      MOVS     r5,#0x28
        0x00000c8c:    a686        ..      ADR      r6,{pc}+0x21c ; 0xea8
        0x00000c8e:    e003        ..      B        0xc98 ; Custerm_String + 152
        0x00000c90:    4c79        yL      LDR      r4,[pc,#484] ; [0xe78] = 0x20000225
        0x00000c92:    342c        ,4      ADDS     r4,r4,#0x2c
        0x00000c94:    2505        .%      MOVS     r5,#5
        0x00000c96:    a687        ..      ADR      r6,{pc}+0x21e ; 0xeb4
        0x00000c98:    9801        ..      LDR      r0,[sp,#4]
        0x00000c9a:    7800        .x      LDRB     r0,[r0,#0]
        0x00000c9c:    283f        ?(      CMP      r0,#0x3f
        0x00000c9e:    d005        ..      BEQ      0xcac ; Custerm_String + 172
        0x00000ca0:    283d        =(      CMP      r0,#0x3d
        0x00000ca2:    d01a        ..      BEQ      0xcda ; Custerm_String + 218
        0x00000ca4:    a064        d.      ADR      r0,{pc}+0x194 ; 0xe38
        0x00000ca6:    f001faad    ....    BL       SendDebugString ; 0x2204
        0x00000caa:    bdfe        ..      POP      {r1-r7,pc}
        0x00000cac:    4630        0F      MOV      r0,r6
        0x00000cae:    f001faa9    ....    BL       SendDebugString ; 0x2204
        0x00000cb2:    4620         F      MOV      r0,r4
        0x00000cb4:    f001faa6    ....    BL       SendDebugString ; 0x2204
        0x00000cb8:    a080        ..      ADR      r0,{pc}+0x204 ; 0xebc
        0x00000cba:    f001faa3    ....    BL       SendDebugString ; 0x2204
        0x00000cbe:    485a        ZH      LDR      r0,[pc,#360] ; [0xe28] = 0x2000004c
        0x00000cc0:    7800        .x      LDRB     r0,[r0,#0]
        0x00000cc2:    2800        .(      CMP      r0,#0
        0x00000cc4:    d0f1        ..      BEQ      0xcaa ; Custerm_String + 170
        0x00000cc6:    4630        0F      MOV      r0,r6
        0x00000cc8:    f003fc70    ..p.    BL       SmsRsqAdd ; 0x45ac
        0x00000ccc:    4620         F      MOV      r0,r4
        0x00000cce:    f003fc6d    ..m.    BL       SmsRsqAdd ; 0x45ac
        0x00000cd2:    a058        X.      ADR      r0,{pc}+0x162 ; 0xe34
        0x00000cd4:    f003fc6a    ..j.    BL       SmsRsqAdd ; 0x45ac
        0x00000cd8:    bdfe        ..      POP      {r1-r7,pc}
        0x00000cda:    210d        .!      MOVS     r1,#0xd
        0x00000cdc:    9801        ..      LDR      r0,[sp,#4]
        0x00000cde:    f005fb3d    ..=.    BL       strchr ; 0x635c
        0x00000ce2:    2800        .(      CMP      r0,#0
        0x00000ce4:    d021        !.      BEQ      0xd2a ; Custerm_String + 298
        0x00000ce6:    2f09        ./      CMP      r7,#9
        0x00000ce8:    d020         .      BEQ      0xd2c ; Custerm_String + 300
        0x00000cea:    2700        .'      MOVS     r7,#0
        0x00000cec:    7007        .p      STRB     r7,[r0,#0]
        0x00000cee:    9901        ..      LDR      r1,[sp,#4]
        0x00000cf0:    462a        *F      MOV      r2,r5
        0x00000cf2:    1c49        I.      ADDS     r1,r1,#1
        0x00000cf4:    4620         F      MOV      r0,r4
        0x00000cf6:    f005fc5d    ..].    BL       strncpy ; 0x65b4
        0x00000cfa:    1960        `.      ADDS     r0,r4,r5
        0x00000cfc:    3820         8      SUBS     r0,r0,#0x20
        0x00000cfe:    77c7        .w      STRB     r7,[r0,#0x1f]
        0x00000d00:    4815        .H      LDR      r0,[pc,#84] ; [0xd58] = 0x20000114
        0x00000d02:    300c        .0      ADDS     r0,r0,#0xc
        0x00000d04:    f7fffd44    ..D.    BL       WriteToNv ; 0x790
        0x00000d08:    a06d        m.      ADR      r0,{pc}+0x1b8 ; 0xec0
        0x00000d0a:    f001fa7b    ..{.    BL       SendDebugString ; 0x2204
        0x00000d0e:    4846        FH      LDR      r0,[pc,#280] ; [0xe28] = 0x2000004c
        0x00000d10:    7800        .x      LDRB     r0,[r0,#0]
        0x00000d12:    2800        .(      CMP      r0,#0
        0x00000d14:    d0e0        ..      BEQ      0xcd8 ; Custerm_String + 216
        0x00000d16:    4630        0F      MOV      r0,r6
        0x00000d18:    f003fc48    ..H.    BL       SmsRsqAdd ; 0x45ac
        0x00000d1c:    4620         F      MOV      r0,r4
        0x00000d1e:    f003fc45    ..E.    BL       SmsRsqAdd ; 0x45ac
        0x00000d22:    a044        D.      ADR      r0,{pc}+0x112 ; 0xe34
        0x00000d24:    f003fc42    ..B.    BL       SmsRsqAdd ; 0x45ac
        0x00000d28:    bdfe        ..      POP      {r1-r7,pc}
        0x00000d2a:    e0d1        ..      B        0xed0 ; Custerm_String + 720
        0x00000d2c:    e0cc        ..      B        0xec8 ; Custerm_String + 712
    $d
        0x00000d2e:    0000        ..      DCW    0
        0x00000d30:    00ff1240    @...    DCD    16716352
        0x00000d34:    74697257    Writ    DCD    1953067607
        0x00000d38:    656e4f65    eOne    DCD    1701728101
        0x00000d3c:    00676f4c    Log.    DCD    6778700
        0x00000d40:    abcdffff    ....    DCD    2882404351
        0x00000d44:    2000000c    ...     DCD    536870924
        0x00000d48:    74697257    Writ    DCD    1953067607
        0x00000d4c:    676f4c65    eLog    DCD    1735347301
        0x00000d50:    00003120     1..    DCD    12576
        0x00000d54:    00000020     ...    DCD    32
        0x00000d58:    20000114    ...     DCD    536871188
        0x00000d5c:    74697257    Writ    DCD    1953067607
        0x00000d60:    676f4c65    eLog    DCD    1735347301
        0x00000d64:    00003220     2..    DCD    12832
        0x00000d68:    2a2a2a2a    ****    DCD    707406378
        0x00000d6c:    3a474f4c    LOG:    DCD    977751884
        0x00000d70:    00000000    ....    DCD    0
        0x00000d74:    64616552    Read    DCD    1684104530
        0x00000d78:    3a676f4c    Log:    DCD    979857228
        0x00000d7c:    676f6c20     log    DCD    1735355424
        0x00000d80:    64616552    Read    DCD    1684104530
        0x00000d84:    00000000    ....    DCD    0
        0x00000d88:    64616552    Read    DCD    1684104530
        0x00000d8c:    3a676f4c    Log:    DCD    979857228
        0x00000d90:    474f4c20     LOG    DCD    1196379168
        0x00000d94:    504d455f    _EMP    DCD    1347241311
        0x00000d98:    00005954    TY..    DCD    22868
        0x00000d9c:    64616552    Read    DCD    1684104530
        0x00000da0:    3a676f4c    Log:    DCD    979857228
        0x00000da4:    474f4c20     LOG    DCD    1196379168
        0x00000da8:    4c41565f    _VAL    DCD    1279350367
        0x00000dac:    00004449    ID..    DCD    17481
        0x00000db0:    000078b4    .x..    DCD    30900
        0x00000db4:    202a2a2a    ***     DCD    539634218
        0x00000db8:    3a676f6c    log:    DCD    979857260
        0x00000dbc:    776f7020     pow    DCD    2003791904
        0x00000dc0:    64207265    er d    DCD    1679848037
        0x00000dc4:    206e776f    own     DCD    544110447
        0x00000dc8:    2a2a2a2a    ****    DCD    707406378
        0x00000dcc:    00000000    ....    DCD    0
        0x00000dd0:    202a2a2a    ***     DCD    539634218
        0x00000dd4:    3a676f6c    log:    DCD    979857260
        0x00000dd8:    72696620     fir    DCD    1919510048
        0x00000ddc:    63207473    st c    DCD    1663071347
        0x00000de0:    206c6c61    all     DCD    543976545
        0x00000de4:    2a2a2a2a    ****    DCD    707406378
        0x00000de8:    00000000    ....    DCD    0
        0x00000dec:    20000030    0..     DCD    536870960
        0x00000df0:    200000d4    ...     DCD    536871124
        0x00000df4:    3939434f    OC99    DCD    960054095
        0x00000df8:    00000000    ....    DCD    0
        0x00000dfc:    20000108    ...     DCD    536871176
        0x00000e00:    3030434f    OC00    DCD    808469327
        0x00000e04:    00000000    ....    DCD    0
        0x00000e08:    00004155    UA..    DCD    16725
        0x00000e0c:    00003939    99..    DCD    14649
        0x00000e10:    2000002f    /..     DCD    536870959
        0x00000e14:    3054582f    /XT0    DCD    810833967
        0x00000e18:    00000030    0...    DCD    48
        0x00000e1c:    2000067f    ...     DCD    536872575
        0x00000e20:    00002a22    "*..    DCD    10786
        0x00000e24:    00003030    00..    DCD    12336
        0x00000e28:    2000004c    L..     DCD    536870988
        0x00000e2c:    5252453d    =ERR    DCD    1381123389
        0x00000e30:    0000524f    OR..    DCD    21071
        0x00000e34:    00000023    #...    DCD    35
        0x00000e38:    4f525245    ERRO    DCD    1330795077
        0x00000e3c:    000a0d52    R...    DCD    658770
        0x00000e40:    4e50412b    +APN    DCD    1313882411
        0x00000e44:    0000003d    =...    DCD    61
        0x00000e48:    4e50412b    +APN    DCD    1313882411
        0x00000e4c:    00003d32    2=..    DCD    15666
        0x00000e50:    4f48502b    +PHO    DCD    1330139179
        0x00000e54:    3d31454e    NE1=    DCD    1026639182
        0x00000e58:    00000000    ....    DCD    0
        0x00000e5c:    4f48502b    +PHO    DCD    1330139179
        0x00000e60:    3d32454e    NE2=    DCD    1026704718
        0x00000e64:    00000000    ....    DCD    0
        0x00000e68:    3150492b    +IP1    DCD    827345195
        0x00000e6c:    0000003d    =...    DCD    61
        0x00000e70:    3250492b    +IP2    DCD    844122411
        0x00000e74:    0000003d    =...    DCD    61
        0x00000e78:    20000225    %..     DCD    536871461
        0x00000e7c:    5350472b    +GPS    DCD    1397770027
        0x00000e80:    3d4c5255    URL=    DCD    1028411989
        0x00000e84:    00000000    ....    DCD    0
        0x00000e88:    434f4c2b    +LOC    DCD    1129270315
        0x00000e8c:    4f504c41    ALPO    DCD    1330662465
        0x00000e90:    003d5452    RT=.    DCD    4019282
        0x00000e94:    4149532b    +SIA    DCD    1095324459
        0x00000e98:    0000003d    =...    DCD    61
        0x00000e9c:    4553552b    +USE    DCD    1163089195
        0x00000ea0:    3d575052    RPW=    DCD    1029132370
        0x00000ea4:    00000000    ....    DCD    0
        0x00000ea8:    4553552b    +USE    DCD    1163089195
        0x00000eac:    32575052    RPW2    DCD    844582994
        0x00000eb0:    0000003d    =...    DCD    61
        0x00000eb4:    534d532b    +SMS    DCD    1397576491
        0x00000eb8:    003d5750    PW=.    DCD    4020048
        0x00000ebc:    00000a0d    ....    DCD    2573
        0x00000ec0:    0a0d4b4f    OK..    DCD    168643407
        0x00000ec4:    00000000    ....    DCD    0
    $t
        0x00000ec8:    48fc        .H      LDR      r0,[pc,#1008] ; [0x12bc] = 0xec0
        0x00000eca:    f001f99b    ....    BL       SendDebugString ; 0x2204
        0x00000ece:    bdfe        ..      POP      {r1-r7,pc}
        0x00000ed0:    48fa        .H      LDR      r0,[pc,#1000] ; [0x12bc] = 0xec0
        0x00000ed2:    3888        .8      SUBS     r0,r0,#0x88
        0x00000ed4:    f001f996    ....    BL       SendDebugString ; 0x2204
        0x00000ed8:    bdfe        ..      POP      {r1-r7,pc}
    Custerm_Apn
        0x00000eda:    2100        .!      MOVS     r1,#0
        0x00000edc:    e690        ..      B        Custerm_String ; 0xc00
    Custerm_Apn2
        0x00000ede:    2101        .!      MOVS     r1,#1
        0x00000ee0:    e68e        ..      B        Custerm_String ; 0xc00
    Custerm_UserPw
        0x00000ee2:    210e        .!      MOVS     r1,#0xe
        0x00000ee4:    e68c        ..      B        Custerm_String ; 0xc00
    Custerm_UserPw2
        0x00000ee6:    210f        .!      MOVS     r1,#0xf
        0x00000ee8:    e68a        ..      B        Custerm_String ; 0xc00
    Custerm_Ip1
        0x00000eea:    2102        .!      MOVS     r1,#2
        0x00000eec:    e688        ..      B        Custerm_String ; 0xc00
    Custerm_Ip2
        0x00000eee:    2103        .!      MOVS     r1,#3
        0x00000ef0:    e686        ..      B        Custerm_String ; 0xc00
    Custerm_Url
        0x00000ef2:    2110        .!      MOVS     r1,#0x10
        0x00000ef4:    e684        ..      B        Custerm_String ; 0xc00
    Custerm_Phone1
        0x00000ef6:    2104        .!      MOVS     r1,#4
        0x00000ef8:    e682        ..      B        Custerm_String ; 0xc00
    Custerm_Phone2
        0x00000efa:    2105        .!      MOVS     r1,#5
        0x00000efc:    e680        ..      B        Custerm_String ; 0xc00
    Custerm_LocalPort
        0x00000efe:    2106        .!      MOVS     r1,#6
        0x00000f00:    e67e        ~.      B        Custerm_String ; 0xc00
    Custerm_Sia
        0x00000f02:    2109        .!      MOVS     r1,#9
        0x00000f04:    e67c        |.      B        Custerm_String ; 0xc00
    Custerm_SmsPw
        0x00000f06:    2111        .!      MOVS     r1,#0x11
        0x00000f08:    e67a        z.      B        Custerm_String ; 0xc00
    Custerm_Csq
        0x00000f0a:    b538        8.      PUSH     {r3-r5,lr}
        0x00000f0c:    7800        .x      LDRB     r0,[r0,#0]
        0x00000f0e:    280d        .(      CMP      r0,#0xd
        0x00000f10:    d006        ..      BEQ      0xf20 ; Custerm_Csq + 22
        0x00000f12:    283f        ?(      CMP      r0,#0x3f
        0x00000f14:    d004        ..      BEQ      0xf20 ; Custerm_Csq + 22
        0x00000f16:    48e9        .H      LDR      r0,[pc,#932] ; [0x12bc] = 0xec0
        0x00000f18:    3888        .8      SUBS     r0,r0,#0x88
        0x00000f1a:    f001f973    ..s.    BL       SendDebugString ; 0x2204
        0x00000f1e:    bd38        8.      POP      {r3-r5,pc}
        0x00000f20:    f003ffcb    ....    BL       signal_quality ; 0x4eba
        0x00000f24:    4604        .F      MOV      r4,r0
        0x00000f26:    2c63        c,      CMP      r4,#0x63
        0x00000f28:    d02c        ,.      BEQ      0xf84 ; Custerm_Csq + 122
        0x00000f2a:    0060        `.      LSLS     r0,r4,#1
        0x00000f2c:    2171        q!      MOVS     r1,#0x71
        0x00000f2e:    1a08        ..      SUBS     r0,r1,r0
        0x00000f30:    b2c0        ..      UXTB     r0,r0
        0x00000f32:    2200        ."      MOVS     r2,#0
        0x00000f34:    4669        iF      MOV      r1,sp
        0x00000f36:    f001fa5c    ..\.    BL       Dec2Txt ; 0x23f2
        0x00000f3a:    a0e1        ..      ADR      r0,{pc}+0x386 ; 0x12c0
        0x00000f3c:    f001f962    ..b.    BL       SendDebugString ; 0x2204
        0x00000f40:    4668        hF      MOV      r0,sp
        0x00000f42:    f001f95f    .._.    BL       SendDebugString ; 0x2204
        0x00000f46:    a0df        ..      ADR      r0,{pc}+0x37e ; 0x12c4
        0x00000f48:    f001f95c    ..\.    BL       SendDebugString ; 0x2204
        0x00000f4c:    a0df        ..      ADR      r0,{pc}+0x380 ; 0x12cc
        0x00000f4e:    f001f959    ..Y.    BL       SendDebugString ; 0x2204
        0x00000f52:    48da        .H      LDR      r0,[pc,#872] ; [0x12bc] = 0xec0
        0x00000f54:    f001f956    ..V.    BL       SendDebugString ; 0x2204
        0x00000f58:    48dd        .H      LDR      r0,[pc,#884] ; [0x12d0] = 0x2000004c
        0x00000f5a:    7800        .x      LDRB     r0,[r0,#0]
        0x00000f5c:    2800        .(      CMP      r0,#0
        0x00000f5e:    d0de        ..      BEQ      0xf1e ; Custerm_Csq + 20
        0x00000f60:    a0dc        ..      ADR      r0,{pc}+0x374 ; 0x12d4
        0x00000f62:    f003fb23    ..#.    BL       SmsRsqAdd ; 0x45ac
        0x00000f66:    2c63        c,      CMP      r4,#0x63
        0x00000f68:    d010        ..      BEQ      0xf8c ; Custerm_Csq + 130
        0x00000f6a:    a0d5        ..      ADR      r0,{pc}+0x356 ; 0x12c0
        0x00000f6c:    f003fb1e    ....    BL       SmsRsqAdd ; 0x45ac
        0x00000f70:    4668        hF      MOV      r0,sp
        0x00000f72:    f003fb1b    ....    BL       SmsRsqAdd ; 0x45ac
        0x00000f76:    a0d3        ..      ADR      r0,{pc}+0x34e ; 0x12c4
        0x00000f78:    f003fb18    ....    BL       SmsRsqAdd ; 0x45ac
        0x00000f7c:    a0d7        ..      ADR      r0,{pc}+0x360 ; 0x12dc
        0x00000f7e:    f003fb15    ....    BL       SmsRsqAdd ; 0x45ac
        0x00000f82:    bd38        8.      POP      {r3-r5,pc}
        0x00000f84:    a0d6        ..      ADR      r0,{pc}+0x35c ; 0x12e0
        0x00000f86:    f001f93d    ..=.    BL       SendDebugString ; 0x2204
        0x00000f8a:    e7df        ..      B        0xf4c ; Custerm_Csq + 66
        0x00000f8c:    a0d4        ..      ADR      r0,{pc}+0x354 ; 0x12e0
        0x00000f8e:    f003fb0d    ....    BL       SmsRsqAdd ; 0x45ac
        0x00000f92:    e7f3        ..      B        0xf7c ; Custerm_Csq + 114
    Custerm_Default
        0x00000f94:    b510        ..      PUSH     {r4,lr}
        0x00000f96:    7800        .x      LDRB     r0,[r0,#0]
        0x00000f98:    280d        .(      CMP      r0,#0xd
        0x00000f9a:    d004        ..      BEQ      0xfa6 ; Custerm_Default + 18
        0x00000f9c:    48c7        .H      LDR      r0,[pc,#796] ; [0x12bc] = 0xec0
        0x00000f9e:    3888        .8      SUBS     r0,r0,#0x88
        0x00000fa0:    f001f930    ..0.    BL       SendDebugString ; 0x2204
        0x00000fa4:    bd10        ..      POP      {r4,pc}
        0x00000fa6:    f7fffaa6    ....    BL       InitDefault ; 0x4f6
        0x00000faa:    48c4        .H      LDR      r0,[pc,#784] ; [0x12bc] = 0xec0
        0x00000fac:    f001f92a    ..*.    BL       SendDebugString ; 0x2204
        0x00000fb0:    48c7        .H      LDR      r0,[pc,#796] ; [0x12d0] = 0x2000004c
        0x00000fb2:    7800        .x      LDRB     r0,[r0,#0]
        0x00000fb4:    2800        .(      CMP      r0,#0
        0x00000fb6:    d0f5        ..      BEQ      0xfa4 ; Custerm_Default + 16
        0x00000fb8:    a0cc        ..      ADR      r0,{pc}+0x334 ; 0x12ec
        0x00000fba:    f003faf7    ....    BL       SmsRsqAdd ; 0x45ac
        0x00000fbe:    a0c7        ..      ADR      r0,{pc}+0x31e ; 0x12dc
        0x00000fc0:    f003faf4    ....    BL       SmsRsqAdd ; 0x45ac
        0x00000fc4:    bd10        ..      POP      {r4,pc}
    Custerm_BattLowLev
        0x00000fc6:    b5f8        ..      PUSH     {r3-r7,lr}
        0x00000fc8:    4604        .F      MOV      r4,r0
        0x00000fca:    7820         x      LDRB     r0,[r4,#0]
        0x00000fcc:    4dce        .M      LDR      r5,[pc,#824] ; [0x1308] = 0x20000200
        0x00000fce:    4ec0        .N      LDR      r6,[pc,#768] ; [0x12d0] = 0x2000004c
        0x00000fd0:    283f        ?(      CMP      r0,#0x3f
        0x00000fd2:    d006        ..      BEQ      0xfe2 ; Custerm_BattLowLev + 28
        0x00000fd4:    283d        =(      CMP      r0,#0x3d
        0x00000fd6:    d01f        ..      BEQ      0x1018 ; Custerm_BattLowLev + 82
        0x00000fd8:    48b8        .H      LDR      r0,[pc,#736] ; [0x12bc] = 0xec0
        0x00000fda:    3888        .8      SUBS     r0,r0,#0x88
        0x00000fdc:    f001f912    ....    BL       SendDebugString ; 0x2204
        0x00000fe0:    bdf8        ..      POP      {r3-r7,pc}
        0x00000fe2:    a0ca        ..      ADR      r0,{pc}+0x32a ; 0x130c
        0x00000fe4:    f001f90e    ....    BL       SendDebugString ; 0x2204
        0x00000fe8:    8b68        h.      LDRH     r0,[r5,#0x1a]
        0x00000fea:    2200        ."      MOVS     r2,#0
        0x00000fec:    4669        iF      MOV      r1,sp
        0x00000fee:    f001fa38    ..8.    BL       DEC2Txt ; 0x2462
        0x00000ff2:    4668        hF      MOV      r0,sp
        0x00000ff4:    f001f906    ....    BL       SendDebugString ; 0x2204
        0x00000ff8:    7830        0x      LDRB     r0,[r6,#0]
        0x00000ffa:    2800        .(      CMP      r0,#0
        0x00000ffc:    d008        ..      BEQ      0x1010 ; Custerm_BattLowLev + 74
        0x00000ffe:    a0c3        ..      ADR      r0,{pc}+0x30e ; 0x130c
        0x00001000:    f003fad4    ....    BL       SmsRsqAdd ; 0x45ac
        0x00001004:    4668        hF      MOV      r0,sp
        0x00001006:    f003fad1    ....    BL       SmsRsqAdd ; 0x45ac
        0x0000100a:    a0b4        ..      ADR      r0,{pc}+0x2d2 ; 0x12dc
        0x0000100c:    f003face    ....    BL       SmsRsqAdd ; 0x45ac
        0x00001010:    a0ae        ..      ADR      r0,{pc}+0x2bc ; 0x12cc
        0x00001012:    f001f8f7    ....    BL       SendDebugString ; 0x2204
        0x00001016:    bdf8        ..      POP      {r3-r7,pc}
        0x00001018:    210d        .!      MOVS     r1,#0xd
        0x0000101a:    4620         F      MOV      r0,r4
        0x0000101c:    f005f99e    ....    BL       strchr ; 0x635c
        0x00001020:    2800        .(      CMP      r0,#0
        0x00001022:    d025        %.      BEQ      0x1070 ; Custerm_BattLowLev + 170
        0x00001024:    2100        .!      MOVS     r1,#0
        0x00001026:    7001        .p      STRB     r1,[r0,#0]
        0x00001028:    1b00        ..      SUBS     r0,r0,r4
        0x0000102a:    1e40        @.      SUBS     r0,r0,#1
        0x0000102c:    b2c1        ..      UXTB     r1,r0
        0x0000102e:    1c60        `.      ADDS     r0,r4,#1
        0x00001030:    f002f962    ..b.    BL       StrToInt ; 0x32f8
        0x00001034:    217d        }!      MOVS     r1,#0x7d
        0x00001036:    0149        I.      LSLS     r1,r1,#5
        0x00001038:    4288        .B      CMP      r0,r1
        0x0000103a:    d904        ..      BLS      0x1046 ; Custerm_BattLowLev + 128
        0x0000103c:    489f        .H      LDR      r0,[pc,#636] ; [0x12bc] = 0xec0
        0x0000103e:    3888        .8      SUBS     r0,r0,#0x88
        0x00001040:    f001f8e0    ....    BL       SendDebugString ; 0x2204
        0x00001044:    bdf8        ..      POP      {r3-r7,pc}
        0x00001046:    8368        h.      STRH     r0,[r5,#0x1a]
        0x00001048:    48af        .H      LDR      r0,[pc,#700] ; [0x1308] = 0x20000200
        0x0000104a:    38e0        .8      SUBS     r0,r0,#0xe0
        0x0000104c:    f7fffba0    ....    BL       WriteToNv ; 0x790
        0x00001050:    7830        0x      LDRB     r0,[r6,#0]
        0x00001052:    2800        .(      CMP      r0,#0
        0x00001054:    d008        ..      BEQ      0x1068 ; Custerm_BattLowLev + 162
        0x00001056:    a0ad        ..      ADR      r0,{pc}+0x2b6 ; 0x130c
        0x00001058:    f003faa8    ....    BL       SmsRsqAdd ; 0x45ac
        0x0000105c:    1c60        `.      ADDS     r0,r4,#1
        0x0000105e:    f003faa5    ....    BL       SmsRsqAdd ; 0x45ac
        0x00001062:    a09e        ..      ADR      r0,{pc}+0x27a ; 0x12dc
        0x00001064:    f003faa2    ....    BL       SmsRsqAdd ; 0x45ac
        0x00001068:    4894        .H      LDR      r0,[pc,#592] ; [0x12bc] = 0xec0
        0x0000106a:    f001f8cb    ....    BL       SendDebugString ; 0x2204
        0x0000106e:    bdf8        ..      POP      {r3-r7,pc}
        0x00001070:    4892        .H      LDR      r0,[pc,#584] ; [0x12bc] = 0xec0
        0x00001072:    3888        .8      SUBS     r0,r0,#0x88
        0x00001074:    f001f8c6    ....    BL       SendDebugString ; 0x2204
        0x00001078:    bdf8        ..      POP      {r3-r7,pc}
    Custerm_BattEmptyLev
        0x0000107a:    b5f8        ..      PUSH     {r3-r7,lr}
        0x0000107c:    4604        .F      MOV      r4,r0
        0x0000107e:    a0a6        ..      ADR      r0,{pc}+0x29a ; 0x1318
        0x00001080:    6800        .h      LDR      r0,[r0,#0]
        0x00001082:    9000        ..      STR      r0,[sp,#0]
        0x00001084:    7820         x      LDRB     r0,[r4,#0]
        0x00001086:    4da0        .M      LDR      r5,[pc,#640] ; [0x1308] = 0x20000200
        0x00001088:    4e91        .N      LDR      r6,[pc,#580] ; [0x12d0] = 0x2000004c
        0x0000108a:    283f        ?(      CMP      r0,#0x3f
        0x0000108c:    d006        ..      BEQ      0x109c ; Custerm_BattEmptyLev + 34
        0x0000108e:    283d        =(      CMP      r0,#0x3d
        0x00001090:    d01f        ..      BEQ      0x10d2 ; Custerm_BattEmptyLev + 88
        0x00001092:    488a        .H      LDR      r0,[pc,#552] ; [0x12bc] = 0xec0
        0x00001094:    3888        .8      SUBS     r0,r0,#0x88
        0x00001096:    f001f8b5    ....    BL       SendDebugString ; 0x2204
        0x0000109a:    bdf8        ..      POP      {r3-r7,pc}
        0x0000109c:    a09f        ..      ADR      r0,{pc}+0x280 ; 0x131c
        0x0000109e:    f001f8b1    ....    BL       SendDebugString ; 0x2204
        0x000010a2:    8ba8        ..      LDRH     r0,[r5,#0x1c]
        0x000010a4:    2200        ."      MOVS     r2,#0
        0x000010a6:    4669        iF      MOV      r1,sp
        0x000010a8:    f001f9db    ....    BL       DEC2Txt ; 0x2462
        0x000010ac:    4668        hF      MOV      r0,sp
        0x000010ae:    f001f8a9    ....    BL       SendDebugString ; 0x2204
        0x000010b2:    7830        0x      LDRB     r0,[r6,#0]
        0x000010b4:    2800        .(      CMP      r0,#0
        0x000010b6:    d008        ..      BEQ      0x10ca ; Custerm_BattEmptyLev + 80
        0x000010b8:    a098        ..      ADR      r0,{pc}+0x264 ; 0x131c
        0x000010ba:    f003fa77    ..w.    BL       SmsRsqAdd ; 0x45ac
        0x000010be:    4668        hF      MOV      r0,sp
        0x000010c0:    f003fa74    ..t.    BL       SmsRsqAdd ; 0x45ac
        0x000010c4:    a085        ..      ADR      r0,{pc}+0x218 ; 0x12dc
        0x000010c6:    f003fa71    ..q.    BL       SmsRsqAdd ; 0x45ac
        0x000010ca:    a080        ..      ADR      r0,{pc}+0x202 ; 0x12cc
        0x000010cc:    f001f89a    ....    BL       SendDebugString ; 0x2204
        0x000010d0:    bdf8        ..      POP      {r3-r7,pc}
        0x000010d2:    210d        .!      MOVS     r1,#0xd
        0x000010d4:    4620         F      MOV      r0,r4
        0x000010d6:    f005f941    ..A.    BL       strchr ; 0x635c
        0x000010da:    2800        .(      CMP      r0,#0
        0x000010dc:    d025        %.      BEQ      0x112a ; Custerm_BattEmptyLev + 176
        0x000010de:    2100        .!      MOVS     r1,#0
        0x000010e0:    7001        .p      STRB     r1,[r0,#0]
        0x000010e2:    1b00        ..      SUBS     r0,r0,r4
        0x000010e4:    1e40        @.      SUBS     r0,r0,#1
        0x000010e6:    b2c1        ..      UXTB     r1,r0
        0x000010e8:    1c60        `.      ADDS     r0,r4,#1
        0x000010ea:    f002f905    ....    BL       StrToInt ; 0x32f8
        0x000010ee:    217d        }!      MOVS     r1,#0x7d
        0x000010f0:    0149        I.      LSLS     r1,r1,#5
        0x000010f2:    4288        .B      CMP      r0,r1
        0x000010f4:    d904        ..      BLS      0x1100 ; Custerm_BattEmptyLev + 134
        0x000010f6:    4871        qH      LDR      r0,[pc,#452] ; [0x12bc] = 0xec0
        0x000010f8:    3888        .8      SUBS     r0,r0,#0x88
        0x000010fa:    f001f883    ....    BL       SendDebugString ; 0x2204
        0x000010fe:    bdf8        ..      POP      {r3-r7,pc}
        0x00001100:    83a8        ..      STRH     r0,[r5,#0x1c]
        0x00001102:    4881        .H      LDR      r0,[pc,#516] ; [0x1308] = 0x20000200
        0x00001104:    38e0        .8      SUBS     r0,r0,#0xe0
        0x00001106:    f7fffb43    ..C.    BL       WriteToNv ; 0x790
        0x0000110a:    7830        0x      LDRB     r0,[r6,#0]
        0x0000110c:    2800        .(      CMP      r0,#0
        0x0000110e:    d008        ..      BEQ      0x1122 ; Custerm_BattEmptyLev + 168
        0x00001110:    a082        ..      ADR      r0,{pc}+0x20c ; 0x131c
        0x00001112:    f003fa4b    ..K.    BL       SmsRsqAdd ; 0x45ac
        0x00001116:    1c60        `.      ADDS     r0,r4,#1
        0x00001118:    f003fa48    ..H.    BL       SmsRsqAdd ; 0x45ac
        0x0000111c:    a06f        o.      ADR      r0,{pc}+0x1c0 ; 0x12dc
        0x0000111e:    f003fa45    ..E.    BL       SmsRsqAdd ; 0x45ac
        0x00001122:    4866        fH      LDR      r0,[pc,#408] ; [0x12bc] = 0xec0
        0x00001124:    f001f86e    ..n.    BL       SendDebugString ; 0x2204
        0x00001128:    bdf8        ..      POP      {r3-r7,pc}
        0x0000112a:    4864        dH      LDR      r0,[pc,#400] ; [0x12bc] = 0xec0
        0x0000112c:    3888        .8      SUBS     r0,r0,#0x88
        0x0000112e:    f001f869    ..i.    BL       SendDebugString ; 0x2204
        0x00001132:    bdf8        ..      POP      {r3-r7,pc}
    Custerm_BattReplaceLev
        0x00001134:    b5f8        ..      PUSH     {r3-r7,lr}
        0x00001136:    4604        .F      MOV      r4,r0
        0x00001138:    7820         x      LDRB     r0,[r4,#0]
        0x0000113a:    4d73        sM      LDR      r5,[pc,#460] ; [0x1308] = 0x20000200
        0x0000113c:    4e64        dN      LDR      r6,[pc,#400] ; [0x12d0] = 0x2000004c
        0x0000113e:    283f        ?(      CMP      r0,#0x3f
        0x00001140:    d006        ..      BEQ      0x1150 ; Custerm_BattReplaceLev + 28
        0x00001142:    283d        =(      CMP      r0,#0x3d
        0x00001144:    d01f        ..      BEQ      0x1186 ; Custerm_BattReplaceLev + 82
        0x00001146:    485d        ]H      LDR      r0,[pc,#372] ; [0x12bc] = 0xec0
        0x00001148:    3888        .8      SUBS     r0,r0,#0x88
        0x0000114a:    f001f85b    ..[.    BL       SendDebugString ; 0x2204
        0x0000114e:    bdf8        ..      POP      {r3-r7,pc}
        0x00001150:    a075        u.      ADR      r0,{pc}+0x1d8 ; 0x1328
        0x00001152:    f001f857    ..W.    BL       SendDebugString ; 0x2204
        0x00001156:    8be8        ..      LDRH     r0,[r5,#0x1e]
        0x00001158:    2200        ."      MOVS     r2,#0
        0x0000115a:    4669        iF      MOV      r1,sp
        0x0000115c:    f001f981    ....    BL       DEC2Txt ; 0x2462
        0x00001160:    4668        hF      MOV      r0,sp
        0x00001162:    f001f84f    ..O.    BL       SendDebugString ; 0x2204
        0x00001166:    7830        0x      LDRB     r0,[r6,#0]
        0x00001168:    2800        .(      CMP      r0,#0
        0x0000116a:    d008        ..      BEQ      0x117e ; Custerm_BattReplaceLev + 74
        0x0000116c:    a06e        n.      ADR      r0,{pc}+0x1bc ; 0x1328
        0x0000116e:    f003fa1d    ....    BL       SmsRsqAdd ; 0x45ac
        0x00001172:    4668        hF      MOV      r0,sp
        0x00001174:    f003fa1a    ....    BL       SmsRsqAdd ; 0x45ac
        0x00001178:    a058        X.      ADR      r0,{pc}+0x164 ; 0x12dc
        0x0000117a:    f003fa17    ....    BL       SmsRsqAdd ; 0x45ac
        0x0000117e:    a053        S.      ADR      r0,{pc}+0x14e ; 0x12cc
        0x00001180:    f001f840    ..@.    BL       SendDebugString ; 0x2204
        0x00001184:    bdf8        ..      POP      {r3-r7,pc}
        0x00001186:    210d        .!      MOVS     r1,#0xd
        0x00001188:    4620         F      MOV      r0,r4
        0x0000118a:    f005f8e7    ....    BL       strchr ; 0x635c
        0x0000118e:    2800        .(      CMP      r0,#0
        0x00001190:    d025        %.      BEQ      0x11de ; Custerm_BattReplaceLev + 170
        0x00001192:    2100        .!      MOVS     r1,#0
        0x00001194:    7001        .p      STRB     r1,[r0,#0]
        0x00001196:    1b00        ..      SUBS     r0,r0,r4
        0x00001198:    1e40        @.      SUBS     r0,r0,#1
        0x0000119a:    b2c1        ..      UXTB     r1,r0
        0x0000119c:    1c60        `.      ADDS     r0,r4,#1
        0x0000119e:    f002f8ab    ....    BL       StrToInt ; 0x32f8
        0x000011a2:    217d        }!      MOVS     r1,#0x7d
        0x000011a4:    0149        I.      LSLS     r1,r1,#5
        0x000011a6:    4288        .B      CMP      r0,r1
        0x000011a8:    d904        ..      BLS      0x11b4 ; Custerm_BattReplaceLev + 128
        0x000011aa:    4844        DH      LDR      r0,[pc,#272] ; [0x12bc] = 0xec0
        0x000011ac:    3888        .8      SUBS     r0,r0,#0x88
        0x000011ae:    f001f829    ..).    BL       SendDebugString ; 0x2204
        0x000011b2:    bdf8        ..      POP      {r3-r7,pc}
        0x000011b4:    83e8        ..      STRH     r0,[r5,#0x1e]
        0x000011b6:    4854        TH      LDR      r0,[pc,#336] ; [0x1308] = 0x20000200
        0x000011b8:    38e0        .8      SUBS     r0,r0,#0xe0
        0x000011ba:    f7fffae9    ....    BL       WriteToNv ; 0x790
        0x000011be:    7830        0x      LDRB     r0,[r6,#0]
        0x000011c0:    2800        .(      CMP      r0,#0
        0x000011c2:    d008        ..      BEQ      0x11d6 ; Custerm_BattReplaceLev + 162
        0x000011c4:    a058        X.      ADR      r0,{pc}+0x164 ; 0x1328
        0x000011c6:    f003f9f1    ....    BL       SmsRsqAdd ; 0x45ac
        0x000011ca:    1c60        `.      ADDS     r0,r4,#1
        0x000011cc:    f003f9ee    ....    BL       SmsRsqAdd ; 0x45ac
        0x000011d0:    a042        B.      ADR      r0,{pc}+0x10c ; 0x12dc
        0x000011d2:    f003f9eb    ....    BL       SmsRsqAdd ; 0x45ac
        0x000011d6:    4839        9H      LDR      r0,[pc,#228] ; [0x12bc] = 0xec0
        0x000011d8:    f001f814    ....    BL       SendDebugString ; 0x2204
        0x000011dc:    bdf8        ..      POP      {r3-r7,pc}
        0x000011de:    4837        7H      LDR      r0,[pc,#220] ; [0x12bc] = 0xec0
        0x000011e0:    3888        .8      SUBS     r0,r0,#0x88
        0x000011e2:    f001f80f    ....    BL       SendDebugString ; 0x2204
        0x000011e6:    bdf8        ..      POP      {r3-r7,pc}
    Custerm_BattDischargeLev
        0x000011e8:    b5f8        ..      PUSH     {r3-r7,lr}
        0x000011ea:    4604        .F      MOV      r4,r0
        0x000011ec:    4d46        FM      LDR      r5,[pc,#280] ; [0x1308] = 0x20000200
        0x000011ee:    7820         x      LDRB     r0,[r4,#0]
        0x000011f0:    3520         5      ADDS     r5,r5,#0x20
        0x000011f2:    4e37        7N      LDR      r6,[pc,#220] ; [0x12d0] = 0x2000004c
        0x000011f4:    283f        ?(      CMP      r0,#0x3f
        0x000011f6:    d006        ..      BEQ      0x1206 ; Custerm_BattDischargeLev + 30
        0x000011f8:    283d        =(      CMP      r0,#0x3d
        0x000011fa:    d01f        ..      BEQ      0x123c ; Custerm_BattDischargeLev + 84
        0x000011fc:    482f        /H      LDR      r0,[pc,#188] ; [0x12bc] = 0xec0
        0x000011fe:    3888        .8      SUBS     r0,r0,#0x88
        0x00001200:    f001f800    ....    BL       SendDebugString ; 0x2204
        0x00001204:    bdf8        ..      POP      {r3-r7,pc}
        0x00001206:    a04b        K.      ADR      r0,{pc}+0x12e ; 0x1334
        0x00001208:    f000fffc    ....    BL       SendDebugString ; 0x2204
        0x0000120c:    8828        (.      LDRH     r0,[r5,#0]
        0x0000120e:    2200        ."      MOVS     r2,#0
        0x00001210:    4669        iF      MOV      r1,sp
        0x00001212:    f001f926    ..&.    BL       DEC2Txt ; 0x2462
        0x00001216:    4668        hF      MOV      r0,sp
        0x00001218:    f000fff4    ....    BL       SendDebugString ; 0x2204
        0x0000121c:    7830        0x      LDRB     r0,[r6,#0]
        0x0000121e:    2800        .(      CMP      r0,#0
        0x00001220:    d008        ..      BEQ      0x1234 ; Custerm_BattDischargeLev + 76
        0x00001222:    a044        D.      ADR      r0,{pc}+0x112 ; 0x1334
        0x00001224:    f003f9c2    ....    BL       SmsRsqAdd ; 0x45ac
        0x00001228:    4668        hF      MOV      r0,sp
        0x0000122a:    f003f9bf    ....    BL       SmsRsqAdd ; 0x45ac
        0x0000122e:    a02b        +.      ADR      r0,{pc}+0xae ; 0x12dc
        0x00001230:    f003f9bc    ....    BL       SmsRsqAdd ; 0x45ac
        0x00001234:    a025        %.      ADR      r0,{pc}+0x98 ; 0x12cc
        0x00001236:    f000ffe5    ....    BL       SendDebugString ; 0x2204
        0x0000123a:    bdf8        ..      POP      {r3-r7,pc}
        0x0000123c:    210d        .!      MOVS     r1,#0xd
        0x0000123e:    4620         F      MOV      r0,r4
        0x00001240:    f005f88c    ....    BL       strchr ; 0x635c
        0x00001244:    2800        .(      CMP      r0,#0
        0x00001246:    d025        %.      BEQ      0x1294 ; Custerm_BattDischargeLev + 172
        0x00001248:    2100        .!      MOVS     r1,#0
        0x0000124a:    7001        .p      STRB     r1,[r0,#0]
        0x0000124c:    1b00        ..      SUBS     r0,r0,r4
        0x0000124e:    1e40        @.      SUBS     r0,r0,#1
        0x00001250:    b2c1        ..      UXTB     r1,r0
        0x00001252:    1c60        `.      ADDS     r0,r4,#1
        0x00001254:    f002f850    ..P.    BL       StrToInt ; 0x32f8
        0x00001258:    217d        }!      MOVS     r1,#0x7d
        0x0000125a:    0149        I.      LSLS     r1,r1,#5
        0x0000125c:    4288        .B      CMP      r0,r1
        0x0000125e:    d904        ..      BLS      0x126a ; Custerm_BattDischargeLev + 130
        0x00001260:    4816        .H      LDR      r0,[pc,#88] ; [0x12bc] = 0xec0
        0x00001262:    3888        .8      SUBS     r0,r0,#0x88
        0x00001264:    f000ffce    ....    BL       SendDebugString ; 0x2204
        0x00001268:    bdf8        ..      POP      {r3-r7,pc}
        0x0000126a:    8028        (.      STRH     r0,[r5,#0]
        0x0000126c:    4826        &H      LDR      r0,[pc,#152] ; [0x1308] = 0x20000200
        0x0000126e:    38e0        .8      SUBS     r0,r0,#0xe0
        0x00001270:    f7fffa8e    ....    BL       WriteToNv ; 0x790
        0x00001274:    7830        0x      LDRB     r0,[r6,#0]
        0x00001276:    2800        .(      CMP      r0,#0
        0x00001278:    d008        ..      BEQ      0x128c ; Custerm_BattDischargeLev + 164
        0x0000127a:    a02e        ..      ADR      r0,{pc}+0xba ; 0x1334
        0x0000127c:    f003f996    ....    BL       SmsRsqAdd ; 0x45ac
        0x00001280:    1c60        `.      ADDS     r0,r4,#1
        0x00001282:    f003f993    ....    BL       SmsRsqAdd ; 0x45ac
        0x00001286:    a015        ..      ADR      r0,{pc}+0x56 ; 0x12dc
        0x00001288:    f003f990    ....    BL       SmsRsqAdd ; 0x45ac
        0x0000128c:    480b        .H      LDR      r0,[pc,#44] ; [0x12bc] = 0xec0
        0x0000128e:    f000ffb9    ....    BL       SendDebugString ; 0x2204
        0x00001292:    bdf8        ..      POP      {r3-r7,pc}
        0x00001294:    4809        .H      LDR      r0,[pc,#36] ; [0x12bc] = 0xec0
        0x00001296:    3888        .8      SUBS     r0,r0,#0x88
        0x00001298:    f000ffb4    ....    BL       SendDebugString ; 0x2204
        0x0000129c:    bdf8        ..      POP      {r3-r7,pc}
    Custerm_Delay
        0x0000129e:    b5f8        ..      PUSH     {r3-r7,lr}
        0x000012a0:    4604        .F      MOV      r4,r0
        0x000012a2:    7820         x      LDRB     r0,[r4,#0]
        0x000012a4:    4d18        .M      LDR      r5,[pc,#96] ; [0x1308] = 0x20000200
        0x000012a6:    4e0a        .N      LDR      r6,[pc,#40] ; [0x12d0] = 0x2000004c
        0x000012a8:    283f        ?(      CMP      r0,#0x3f
        0x000012aa:    d04b        K.      BEQ      0x1344 ; Custerm_Delay + 166
        0x000012ac:    283d        =(      CMP      r0,#0x3d
        0x000012ae:    d068        h.      BEQ      0x1382 ; Custerm_Delay + 228
        0x000012b0:    4802        .H      LDR      r0,[pc,#8] ; [0x12bc] = 0xec0
        0x000012b2:    3888        .8      SUBS     r0,r0,#0x88
        0x000012b4:    f000ffa6    ....    BL       SendDebugString ; 0x2204
        0x000012b8:    bdf8        ..      POP      {r3-r7,pc}
    $d
        0x000012ba:    0000        ..      DCW    0
        0x000012bc:    00000ec0    ....    DCD    3776
        0x000012c0:    0000002d    -...    DCD    45
        0x000012c4:    6d426420     dBm    DCD    1833067552
        0x000012c8:    00000000    ....    DCD    0
        0x000012cc:    00000a0d    ....    DCD    2573
        0x000012d0:    2000004c    L..     DCD    536870988
        0x000012d4:    5343432b    +CCS    DCD    1396917035
        0x000012d8:    00003d51    Q=..    DCD    15697
        0x000012dc:    00000023    #...    DCD    35
        0x000012e0:    20746f4e    Not     DCD    544501582
        0x000012e4:    776f6e4b    Know    DCD    2003791435
        0x000012e8:    0000006e    n...    DCD    110
        0x000012ec:    64616f4c    Load    DCD    1684107084
        0x000012f0:    66654420     Def    DCD    1717912608
        0x000012f4:    746c7561    ault    DCD    1953264993
        0x000012f8:    6e6f4320     Con    DCD    1852785440
        0x000012fc:    75676966    figu    DCD    1969711462
        0x00001300:    69746172    rati    DCD    1769234802
        0x00001304:    00006e6f    on..    DCD    28271
        0x00001308:    20000200    ...     DCD    536871424
        0x0000130c:    5441422b    +BAT    DCD    1413562923
        0x00001310:    574f4c54    TLOW    DCD    1464814676
        0x00001314:    0000003d    =...    DCD    61
        0x00001318:    30303030    0000    DCD    808464432
        0x0000131c:    5441422b    +BAT    DCD    1413562923
        0x00001320:    504d4554    TEMP    DCD    1347241300
        0x00001324:    003d5954    TY=.    DCD    4020564
        0x00001328:    574f4c2b    +LOW    DCD    1464814635
        0x0000132c:    52544142    BATR    DCD    1381253442
        0x00001330:    003d5045    EP=.    DCD    4018245
        0x00001334:    574f4c2b    +LOW    DCD    1464814635
        0x00001338:    44544142    BATD    DCD    1146372418
        0x0000133c:    3d435349    ISC=    DCD    1027822409
        0x00001340:    00000000    ....    DCD    0
    $t
        0x00001344:    a0fa        ..      ADR      r0,{pc}+0x3ec ; 0x1730
        0x00001346:    f000ff5d    ..].    BL       SendDebugString ; 0x2204
        0x0000134a:    8b28        (.      LDRH     r0,[r5,#0x18]
        0x0000134c:    213c        <!      MOVS     r1,#0x3c
        0x0000134e:    f005f967    ..g.    BL       __aeabi_uidiv ; 0x6620
        0x00001352:    b2c0        ..      UXTB     r0,r0
        0x00001354:    2200        ."      MOVS     r2,#0
        0x00001356:    4669        iF      MOV      r1,sp
        0x00001358:    f001f84b    ..K.    BL       Dec2Txt ; 0x23f2
        0x0000135c:    4668        hF      MOV      r0,sp
        0x0000135e:    f000ff51    ..Q.    BL       SendDebugString ; 0x2204
        0x00001362:    7830        0x      LDRB     r0,[r6,#0]
        0x00001364:    2800        .(      CMP      r0,#0
        0x00001366:    d008        ..      BEQ      0x137a ; Custerm_Delay + 220
        0x00001368:    a0f1        ..      ADR      r0,{pc}+0x3c8 ; 0x1730
        0x0000136a:    f003f91f    ....    BL       SmsRsqAdd ; 0x45ac
        0x0000136e:    4668        hF      MOV      r0,sp
        0x00001370:    f003f91c    ....    BL       SmsRsqAdd ; 0x45ac
        0x00001374:    a0f0        ..      ADR      r0,{pc}+0x3c4 ; 0x1738
        0x00001376:    f003f919    ....    BL       SmsRsqAdd ; 0x45ac
        0x0000137a:    a0f0        ..      ADR      r0,{pc}+0x3c2 ; 0x173c
        0x0000137c:    f000ff42    ..B.    BL       SendDebugString ; 0x2204
        0x00001380:    e79a        ..      B        0x12b8 ; Custerm_Delay + 26
        0x00001382:    210d        .!      MOVS     r1,#0xd
        0x00001384:    4620         F      MOV      r0,r4
        0x00001386:    f004ffe9    ....    BL       strchr ; 0x635c
        0x0000138a:    2800        .(      CMP      r0,#0
        0x0000138c:    d026        &.      BEQ      0x13dc ; Custerm_Delay + 318
        0x0000138e:    2100        .!      MOVS     r1,#0
        0x00001390:    7001        .p      STRB     r1,[r0,#0]
        0x00001392:    1b00        ..      SUBS     r0,r0,r4
        0x00001394:    1e40        @.      SUBS     r0,r0,#1
        0x00001396:    b2c1        ..      UXTB     r1,r0
        0x00001398:    1c60        `.      ADDS     r0,r4,#1
        0x0000139a:    f001ffad    ....    BL       StrToInt ; 0x32f8
        0x0000139e:    2863        c(      CMP      r0,#0x63
        0x000013a0:    d903        ..      BLS      0x13aa ; Custerm_Delay + 268
        0x000013a2:    48e7        .H      LDR      r0,[pc,#924] ; [0x1740] = 0xe38
        0x000013a4:    f000ff2e    ....    BL       SendDebugString ; 0x2204
        0x000013a8:    e786        ..      B        0x12b8 ; Custerm_Delay + 26
        0x000013aa:    213c        <!      MOVS     r1,#0x3c
        0x000013ac:    4348        HC      MULS     r0,r1,r0
        0x000013ae:    49e5        .I      LDR      r1,[pc,#916] ; [0x1744] = 0x20000024
        0x000013b0:    8328        (.      STRH     r0,[r5,#0x18]
        0x000013b2:    8008        ..      STRH     r0,[r1,#0]
        0x000013b4:    48e4        .H      LDR      r0,[pc,#912] ; [0x1748] = 0x20000120
        0x000013b6:    f7fff9eb    ....    BL       WriteToNv ; 0x790
        0x000013ba:    7830        0x      LDRB     r0,[r6,#0]
        0x000013bc:    2800        .(      CMP      r0,#0
        0x000013be:    d008        ..      BEQ      0x13d2 ; Custerm_Delay + 308
        0x000013c0:    a0db        ..      ADR      r0,{pc}+0x370 ; 0x1730
        0x000013c2:    f003f8f3    ....    BL       SmsRsqAdd ; 0x45ac
        0x000013c6:    1c60        `.      ADDS     r0,r4,#1
        0x000013c8:    f003f8f0    ....    BL       SmsRsqAdd ; 0x45ac
        0x000013cc:    a0da        ..      ADR      r0,{pc}+0x36c ; 0x1738
        0x000013ce:    f003f8ed    ....    BL       SmsRsqAdd ; 0x45ac
        0x000013d2:    48db        .H      LDR      r0,[pc,#876] ; [0x1740] = 0xe38
        0x000013d4:    3088        .0      ADDS     r0,r0,#0x88
        0x000013d6:    f000ff15    ....    BL       SendDebugString ; 0x2204
        0x000013da:    e76d        m.      B        0x12b8 ; Custerm_Delay + 26
        0x000013dc:    48d8        .H      LDR      r0,[pc,#864] ; [0x1740] = 0xe38
        0x000013de:    f000ff11    ....    BL       SendDebugString ; 0x2204
        0x000013e2:    e769        i.      B        0x12b8 ; Custerm_Delay + 26
    Custerm_Fibro
        0x000013e4:    b570        p.      PUSH     {r4-r6,lr}
        0x000013e6:    4604        .F      MOV      r4,r0
        0x000013e8:    7820         x      LDRB     r0,[r4,#0]
        0x000013ea:    4dd8        .M      LDR      r5,[pc,#864] ; [0x174c] = 0x2000004c
        0x000013ec:    283f        ?(      CMP      r0,#0x3f
        0x000013ee:    d005        ..      BEQ      0x13fc ; Custerm_Fibro + 24
        0x000013f0:    283d        =(      CMP      r0,#0x3d
        0x000013f2:    d01b        ..      BEQ      0x142c ; Custerm_Fibro + 72
        0x000013f4:    48d2        .H      LDR      r0,[pc,#840] ; [0x1740] = 0xe38
        0x000013f6:    f000ff05    ....    BL       SendDebugString ; 0x2204
        0x000013fa:    bd70        p.      POP      {r4-r6,pc}
        0x000013fc:    a0d4        ..      ADR      r0,{pc}+0x354 ; 0x1750
        0x000013fe:    f000ff01    ....    BL       SendDebugString ; 0x2204
        0x00001402:    48d1        .H      LDR      r0,[pc,#836] ; [0x1748] = 0x20000120
        0x00001404:    380c        .8      SUBS     r0,r0,#0xc
        0x00001406:    f000fefd    ....    BL       SendDebugString ; 0x2204
        0x0000140a:    a0cc        ..      ADR      r0,{pc}+0x332 ; 0x173c
        0x0000140c:    f000fefa    ....    BL       SendDebugString ; 0x2204
        0x00001410:    7828        (x      LDRB     r0,[r5,#0]
        0x00001412:    2800        .(      CMP      r0,#0
        0x00001414:    d0f1        ..      BEQ      0x13fa ; Custerm_Fibro + 22
        0x00001416:    a0ce        ..      ADR      r0,{pc}+0x33a ; 0x1750
        0x00001418:    f003f8c8    ....    BL       SmsRsqAdd ; 0x45ac
        0x0000141c:    48ca        .H      LDR      r0,[pc,#808] ; [0x1748] = 0x20000120
        0x0000141e:    380c        .8      SUBS     r0,r0,#0xc
        0x00001420:    f003f8c4    ....    BL       SmsRsqAdd ; 0x45ac
        0x00001424:    a0c4        ..      ADR      r0,{pc}+0x314 ; 0x1738
        0x00001426:    f003f8c1    ....    BL       SmsRsqAdd ; 0x45ac
        0x0000142a:    bd70        p.      POP      {r4-r6,pc}
        0x0000142c:    210d        .!      MOVS     r1,#0xd
        0x0000142e:    4620         F      MOV      r0,r4
        0x00001430:    f004ff94    ....    BL       strchr ; 0x635c
        0x00001434:    2800        .(      CMP      r0,#0
        0x00001436:    d002        ..      BEQ      0x143e ; Custerm_Fibro + 90
        0x00001438:    1b01        ..      SUBS     r1,r0,r4
        0x0000143a:    290b        .)      CMP      r1,#0xb
        0x0000143c:    d003        ..      BEQ      0x1446 ; Custerm_Fibro + 98
        0x0000143e:    a0c6        ..      ADR      r0,{pc}+0x31a ; 0x1758
        0x00001440:    f7fffbcd    ....    BL       CustomError ; 0xbde
        0x00001444:    bd70        p.      POP      {r4-r6,pc}
        0x00001446:    2100        .!      MOVS     r1,#0
        0x00001448:    7001        .p      STRB     r1,[r0,#0]
        0x0000144a:    1c61        a.      ADDS     r1,r4,#1
        0x0000144c:    2200        ."      MOVS     r2,#0
        0x0000144e:    1c50        P.      ADDS     r0,r2,#1
        0x00001450:    5c8a        .\      LDRB     r2,[r1,r2]
        0x00001452:    b2c0        ..      UXTB     r0,r0
        0x00001454:    4613        .F      MOV      r3,r2
        0x00001456:    3b30        0;      SUBS     r3,r3,#0x30
        0x00001458:    2b0a        .+      CMP      r3,#0xa
        0x0000145a:    d306        ..      BCC      0x146a ; Custerm_Fibro + 134
        0x0000145c:    3a41        A:      SUBS     r2,r2,#0x41
        0x0000145e:    2a06        .*      CMP      r2,#6
        0x00001460:    d303        ..      BCC      0x146a ; Custerm_Fibro + 134
        0x00001462:    a0bd        ..      ADR      r0,{pc}+0x2f6 ; 0x1758
        0x00001464:    f7fffbbb    ....    BL       CustomError ; 0xbde
        0x00001468:    bd70        p.      POP      {r4-r6,pc}
        0x0000146a:    1c40        @.      ADDS     r0,r0,#1
        0x0000146c:    b2c2        ..      UXTB     r2,r0
        0x0000146e:    2a0a        .*      CMP      r2,#0xa
        0x00001470:    d3ed        ..      BCC      0x144e ; Custerm_Fibro + 106
        0x00001472:    1c60        `.      ADDS     r0,r4,#1
        0x00001474:    f004f91b    ....    BL       PhoneNumberSet ; 0x56ae
        0x00001478:    2801        .(      CMP      r0,#1
        0x0000147a:    d003        ..      BEQ      0x1484 ; Custerm_Fibro + 160
        0x0000147c:    a0b6        ..      ADR      r0,{pc}+0x2dc ; 0x1758
        0x0000147e:    f7fffbae    ....    BL       CustomError ; 0xbde
        0x00001482:    bd70        p.      POP      {r4-r6,pc}
        0x00001484:    48b0        .H      LDR      r0,[pc,#704] ; [0x1748] = 0x20000120
        0x00001486:    220a        ."      MOVS     r2,#0xa
        0x00001488:    1c61        a.      ADDS     r1,r4,#1
        0x0000148a:    380c        .8      SUBS     r0,r0,#0xc
        0x0000148c:    f005f828    ..(.    BL       __aeabi_memcpy ; 0x64e0
        0x00001490:    48ab        .H      LDR      r0,[pc,#684] ; [0x1740] = 0xe38
        0x00001492:    3088        .0      ADDS     r0,r0,#0x88
        0x00001494:    f000feb6    ....    BL       SendDebugString ; 0x2204
        0x00001498:    7828        (x      LDRB     r0,[r5,#0]
        0x0000149a:    2800        .(      CMP      r0,#0
        0x0000149c:    d0f1        ..      BEQ      0x1482 ; Custerm_Fibro + 158
        0x0000149e:    a0ac        ..      ADR      r0,{pc}+0x2b2 ; 0x1750
        0x000014a0:    f003f884    ....    BL       SmsRsqAdd ; 0x45ac
        0x000014a4:    48a8        .H      LDR      r0,[pc,#672] ; [0x1748] = 0x20000120
        0x000014a6:    380c        .8      SUBS     r0,r0,#0xc
        0x000014a8:    f003f880    ....    BL       SmsRsqAdd ; 0x45ac
        0x000014ac:    a0a2        ..      ADR      r0,{pc}+0x28c ; 0x1738
        0x000014ae:    f003f87d    ..}.    BL       SmsRsqAdd ; 0x45ac
        0x000014b2:    bd70        p.      POP      {r4-r6,pc}
    Custerm_Imei
        0x000014b4:    b500        ..      PUSH     {lr}
        0x000014b6:    b087        ..      SUB      sp,sp,#0x1c
        0x000014b8:    7800        .x      LDRB     r0,[r0,#0]
        0x000014ba:    280d        .(      CMP      r0,#0xd
        0x000014bc:    d001        ..      BEQ      0x14c2 ; Custerm_Imei + 14
        0x000014be:    283f        ?(      CMP      r0,#0x3f
        0x000014c0:    d124        $.      BNE      0x150c ; Custerm_Imei + 88
        0x000014c2:    2115        .!      MOVS     r1,#0x15
        0x000014c4:    a801        ..      ADD      r0,sp,#4
        0x000014c6:    f003fe34    ..4.    BL       GetModuleIMEI ; 0x5132
        0x000014ca:    2800        .(      CMP      r0,#0
        0x000014cc:    d01e        ..      BEQ      0x150c ; Custerm_Imei + 88
        0x000014ce:    a801        ..      ADD      r0,sp,#4
        0x000014d0:    f000fe98    ....    BL       SendDebugString ; 0x2204
        0x000014d4:    a099        ..      ADR      r0,{pc}+0x268 ; 0x173c
        0x000014d6:    f000fe95    ....    BL       SendDebugString ; 0x2204
        0x000014da:    4899        .H      LDR      r0,[pc,#612] ; [0x1740] = 0xe38
        0x000014dc:    3088        .0      ADDS     r0,r0,#0x88
        0x000014de:    f000fe91    ....    BL       SendDebugString ; 0x2204
        0x000014e2:    489a        .H      LDR      r0,[pc,#616] ; [0x174c] = 0x2000004c
        0x000014e4:    7800        .x      LDRB     r0,[r0,#0]
        0x000014e6:    2800        .(      CMP      r0,#0
        0x000014e8:    d00e        ..      BEQ      0x1508 ; Custerm_Imei + 84
        0x000014ea:    a09d        ..      ADR      r0,{pc}+0x276 ; 0x1760
        0x000014ec:    f003f85e    ..^.    BL       SmsRsqAdd ; 0x45ac
        0x000014f0:    a801        ..      ADD      r0,sp,#4
        0x000014f2:    f003f85b    ..[.    BL       SmsRsqAdd ; 0x45ac
        0x000014f6:    a090        ..      ADR      r0,{pc}+0x242 ; 0x1738
        0x000014f8:    f003f858    ..X.    BL       SmsRsqAdd ; 0x45ac
        0x000014fc:    a09a        ..      ADR      r0,{pc}+0x26c ; 0x1768
        0x000014fe:    f000fe8c    ....    BL       debug ; 0x221a
        0x00001502:    a801        ..      ADD      r0,sp,#4
        0x00001504:    f000fe89    ....    BL       debug ; 0x221a
        0x00001508:    b007        ..      ADD      sp,sp,#0x1c
        0x0000150a:    bd00        ..      POP      {pc}
        0x0000150c:    488c        .H      LDR      r0,[pc,#560] ; [0x1740] = 0xe38
        0x0000150e:    f000fe79    ..y.    BL       SendDebugString ; 0x2204
        0x00001512:    e7f9        ..      B        0x1508 ; Custerm_Imei + 84
    Cutterm_Iccid
        0x00001514:    b500        ..      PUSH     {lr}
        0x00001516:    b087        ..      SUB      sp,sp,#0x1c
        0x00001518:    7800        .x      LDRB     r0,[r0,#0]
        0x0000151a:    280d        .(      CMP      r0,#0xd
        0x0000151c:    d001        ..      BEQ      0x1522 ; Cutterm_Iccid + 14
        0x0000151e:    283f        ?(      CMP      r0,#0x3f
        0x00001520:    d123        #.      BNE      0x156a ; Cutterm_Iccid + 86
        0x00001522:    2114        .!      MOVS     r1,#0x14
        0x00001524:    a801        ..      ADD      r0,sp,#4
        0x00001526:    f003ff89    ....    BL       GetIccid ; 0x543c
        0x0000152a:    2800        .(      CMP      r0,#0
        0x0000152c:    d01d        ..      BEQ      0x156a ; Cutterm_Iccid + 86
        0x0000152e:    a801        ..      ADD      r0,sp,#4
        0x00001530:    f000fe68    ..h.    BL       SendDebugString ; 0x2204
        0x00001534:    a081        ..      ADR      r0,{pc}+0x208 ; 0x173c
        0x00001536:    f000fe65    ..e.    BL       SendDebugString ; 0x2204
        0x0000153a:    4881        .H      LDR      r0,[pc,#516] ; [0x1740] = 0xe38
        0x0000153c:    3088        .0      ADDS     r0,r0,#0x88
        0x0000153e:    f000fe61    ..a.    BL       SendDebugString ; 0x2204
        0x00001542:    4882        .H      LDR      r0,[pc,#520] ; [0x174c] = 0x2000004c
        0x00001544:    7800        .x      LDRB     r0,[r0,#0]
        0x00001546:    2800        .(      CMP      r0,#0
        0x00001548:    d0de        ..      BEQ      0x1508 ; Custerm_Imei + 84
        0x0000154a:    a089        ..      ADR      r0,{pc}+0x226 ; 0x1770
        0x0000154c:    f003f82e    ....    BL       SmsRsqAdd ; 0x45ac
        0x00001550:    a801        ..      ADD      r0,sp,#4
        0x00001552:    f003f82b    ..+.    BL       SmsRsqAdd ; 0x45ac
        0x00001556:    a078        x.      ADR      r0,{pc}+0x1e2 ; 0x1738
        0x00001558:    f003f828    ..(.    BL       SmsRsqAdd ; 0x45ac
        0x0000155c:    a082        ..      ADR      r0,{pc}+0x20c ; 0x1768
        0x0000155e:    f000fe5c    ..\.    BL       debug ; 0x221a
        0x00001562:    a801        ..      ADD      r0,sp,#4
        0x00001564:    f000fe59    ..Y.    BL       debug ; 0x221a
        0x00001568:    e7ce        ..      B        0x1508 ; Custerm_Imei + 84
        0x0000156a:    4875        uH      LDR      r0,[pc,#468] ; [0x1740] = 0xe38
        0x0000156c:    f000fe4a    ..J.    BL       SendDebugString ; 0x2204
        0x00001570:    e7ca        ..      B        0x1508 ; Custerm_Imei + 84
    Custerm_Switch
        0x00001572:    b5f8        ..      PUSH     {r3-r7,lr}
        0x00001574:    4605        .F      MOV      r5,r0
        0x00001576:    460f        .F      MOV      r7,r1
        0x00001578:    2400        .$      MOVS     r4,#0
        0x0000157a:    2600        .&      MOVS     r6,#0
        0x0000157c:    2f0c        ./      CMP      r7,#0xc
        0x0000157e:    d002        ..      BEQ      0x1586 ; Custerm_Switch + 20
        0x00001580:    2f0d        ./      CMP      r7,#0xd
        0x00001582:    d106        ..      BNE      0x1592 ; Custerm_Switch + 32
        0x00001584:    e002        ..      B        0x158c ; Custerm_Switch + 26
        0x00001586:    4c7c        |L      LDR      r4,[pc,#496] ; [0x1778] = 0x20000223
        0x00001588:    a67c        |.      ADR      r6,{pc}+0x1f4 ; 0x177c
        0x0000158a:    e002        ..      B        0x1592 ; Custerm_Switch + 32
        0x0000158c:    4c7a        zL      LDR      r4,[pc,#488] ; [0x1778] = 0x20000223
        0x0000158e:    1c64        d.      ADDS     r4,r4,#1
        0x00001590:    a67c        |.      ADR      r6,{pc}+0x1f4 ; 0x1784
        0x00001592:    7828        (x      LDRB     r0,[r5,#0]
        0x00001594:    283f        ?(      CMP      r0,#0x3f
        0x00001596:    d002        ..      BEQ      0x159e ; Custerm_Switch + 44
        0x00001598:    283d        =(      CMP      r0,#0x3d
        0x0000159a:    d01c        ..      BEQ      0x15d6 ; Custerm_Switch + 100
        0x0000159c:    e03f        ?.      B        0x161e ; Custerm_Switch + 172
        0x0000159e:    4630        0F      MOV      r0,r6
        0x000015a0:    f000fe30    ..0.    BL       SendDebugString ; 0x2204
        0x000015a4:    7820         x      LDRB     r0,[r4,#0]
        0x000015a6:    4669        iF      MOV      r1,sp
        0x000015a8:    7008        .p      STRB     r0,[r1,#0]
        0x000015aa:    2000        .       MOVS     r0,#0
        0x000015ac:    7048        Hp      STRB     r0,[r1,#1]
        0x000015ae:    4668        hF      MOV      r0,sp
        0x000015b0:    f000fe28    ..(.    BL       SendDebugString ; 0x2204
        0x000015b4:    a061        a.      ADR      r0,{pc}+0x188 ; 0x173c
        0x000015b6:    f000fe25    ..%.    BL       SendDebugString ; 0x2204
        0x000015ba:    4864        dH      LDR      r0,[pc,#400] ; [0x174c] = 0x2000004c
        0x000015bc:    7800        .x      LDRB     r0,[r0,#0]
        0x000015be:    2800        .(      CMP      r0,#0
        0x000015c0:    d008        ..      BEQ      0x15d4 ; Custerm_Switch + 98
        0x000015c2:    4630        0F      MOV      r0,r6
        0x000015c4:    f002fff2    ....    BL       SmsRsqAdd ; 0x45ac
        0x000015c8:    4668        hF      MOV      r0,sp
        0x000015ca:    f002ffef    ....    BL       SmsRsqAdd ; 0x45ac
        0x000015ce:    a05a        Z.      ADR      r0,{pc}+0x16a ; 0x1738
        0x000015d0:    f002ffec    ....    BL       SmsRsqAdd ; 0x45ac
        0x000015d4:    e670        p.      B        0x12b8 ; Custerm_Delay + 26
        0x000015d6:    78a8        .x      LDRB     r0,[r5,#2]
        0x000015d8:    280d        .(      CMP      r0,#0xd
        0x000015da:    d120         .      BNE      0x161e ; Custerm_Switch + 172
        0x000015dc:    7868        hx      LDRB     r0,[r5,#1]
        0x000015de:    4601        .F      MOV      r1,r0
        0x000015e0:    3930        09      SUBS     r1,r1,#0x30
        0x000015e2:    2902        .)      CMP      r1,#2
        0x000015e4:    d81b        ..      BHI      0x161e ; Custerm_Switch + 172
        0x000015e6:    2100        .!      MOVS     r1,#0
        0x000015e8:    70a9        .p      STRB     r1,[r5,#2]
        0x000015ea:    7020         p      STRB     r0,[r4,#0]
        0x000015ec:    4856        VH      LDR      r0,[pc,#344] ; [0x1748] = 0x20000120
        0x000015ee:    f7fff8cf    ....    BL       WriteToNv ; 0x790
        0x000015f2:    4853        SH      LDR      r0,[pc,#332] ; [0x1740] = 0xe38
        0x000015f4:    3088        .0      ADDS     r0,r0,#0x88
        0x000015f6:    f000fe05    ....    BL       SendDebugString ; 0x2204
        0x000015fa:    2f0c        ./      CMP      r7,#0xc
        0x000015fc:    d101        ..      BNE      0x1602 ; Custerm_Switch + 144
        0x000015fe:    f002fda8    ....    BL       InitMsgDebug ; 0x4152
        0x00001602:    4852        RH      LDR      r0,[pc,#328] ; [0x174c] = 0x2000004c
        0x00001604:    7800        .x      LDRB     r0,[r0,#0]
        0x00001606:    2800        .(      CMP      r0,#0
        0x00001608:    d0e4        ..      BEQ      0x15d4 ; Custerm_Switch + 98
        0x0000160a:    4630        0F      MOV      r0,r6
        0x0000160c:    f002ffce    ....    BL       SmsRsqAdd ; 0x45ac
        0x00001610:    1c68        h.      ADDS     r0,r5,#1
        0x00001612:    f002ffcb    ....    BL       SmsRsqAdd ; 0x45ac
        0x00001616:    a048        H.      ADR      r0,{pc}+0x122 ; 0x1738
        0x00001618:    f002ffc8    ....    BL       SmsRsqAdd ; 0x45ac
        0x0000161c:    e64c        L.      B        0x12b8 ; Custerm_Delay + 26
        0x0000161e:    4848        HH      LDR      r0,[pc,#288] ; [0x1740] = 0xe38
        0x00001620:    f000fdf0    ....    BL       SendDebugString ; 0x2204
        0x00001624:    e648        H.      B        0x12b8 ; Custerm_Delay + 26
    Custerm_Debug
        0x00001626:    210c        .!      MOVS     r1,#0xc
        0x00001628:    e7a3        ..      B        Custerm_Switch ; 0x1572
    Custerm_Agps
        0x0000162a:    210d        .!      MOVS     r1,#0xd
        0x0000162c:    e7a1        ..      B        Custerm_Switch ; 0x1572
    Custerm_Version
        0x0000162e:    b510        ..      PUSH     {r4,lr}
        0x00001630:    a056        V.      ADR      r0,{pc}+0x15c ; 0x178c
        0x00001632:    f000fde7    ....    BL       SendDebugString ; 0x2204
        0x00001636:    4845        EH      LDR      r0,[pc,#276] ; [0x174c] = 0x2000004c
        0x00001638:    7800        .x      LDRB     r0,[r0,#0]
        0x0000163a:    2800        .(      CMP      r0,#0
        0x0000163c:    d008        ..      BEQ      0x1650 ; Custerm_Version + 34
        0x0000163e:    a055        U.      ADR      r0,{pc}+0x156 ; 0x1794
        0x00001640:    f002ffb4    ....    BL       SmsRsqAdd ; 0x45ac
        0x00001644:    a051        Q.      ADR      r0,{pc}+0x148 ; 0x178c
        0x00001646:    f002ffb1    ....    BL       SmsRsqAdd ; 0x45ac
        0x0000164a:    a03b        ;.      ADR      r0,{pc}+0xee ; 0x1738
        0x0000164c:    f002ffae    ....    BL       SmsRsqAdd ; 0x45ac
        0x00001650:    bd10        ..      POP      {r4,pc}
    Custerm_Log
        0x00001652:    b510        ..      PUSH     {r4,lr}
        0x00001654:    b0a0        ..      SUB      sp,sp,#0x80
        0x00001656:    7800        .x      LDRB     r0,[r0,#0]
        0x00001658:    280d        .(      CMP      r0,#0xd
        0x0000165a:    d004        ..      BEQ      0x1666 ; Custerm_Log + 20
        0x0000165c:    283f        ?(      CMP      r0,#0x3f
        0x0000165e:    d002        ..      BEQ      0x1666 ; Custerm_Log + 20
        0x00001660:    4837        7H      LDR      r0,[pc,#220] ; [0x1740] = 0xe38
        0x00001662:    f000fdcf    ....    BL       SendDebugString ; 0x2204
        0x00001666:    4c4e        NL      LDR      r4,[pc,#312] ; [0x17a0] = 0x2000000c
        0x00001668:    2008        .       MOVS     r0,#8
        0x0000166a:    70e0        .p      STRB     r0,[r4,#3]
        0x0000166c:    7860        `x      LDRB     r0,[r4,#1]
        0x0000166e:    2800        .(      CMP      r0,#0
        0x00001670:    d017        ..      BEQ      0x16a2 ; Custerm_Log + 80
        0x00001672:    1e40        @.      SUBS     r0,r0,#1
        0x00001674:    70a0        .p      STRB     r0,[r4,#2]
        0x00001676:    4835        5H      LDR      r0,[pc,#212] ; [0x174c] = 0x2000004c
        0x00001678:    7800        .x      LDRB     r0,[r0,#0]
        0x0000167a:    2800        .(      CMP      r0,#0
        0x0000167c:    d021        !.      BEQ      0x16c2 ; Custerm_Log + 112
        0x0000167e:    4668        hF      MOV      r0,sp
        0x00001680:    f7fff9d2    ....    BL       ReadLog ; 0xa28
        0x00001684:    2802        .(      CMP      r0,#2
        0x00001686:    d020         .      BEQ      0x16ca ; Custerm_Log + 120
        0x00001688:    2000        .       MOVS     r0,#0
        0x0000168a:    70e0        .p      STRB     r0,[r4,#3]
        0x0000168c:    a045        E.      ADR      r0,{pc}+0x118 ; 0x17a4
        0x0000168e:    f002ff8d    ....    BL       SmsRsqAdd ; 0x45ac
        0x00001692:    a046        F.      ADR      r0,{pc}+0x11a ; 0x17ac
        0x00001694:    f002ff8a    ....    BL       SmsRsqAdd ; 0x45ac
        0x00001698:    a027        '.      ADR      r0,{pc}+0xa0 ; 0x1738
        0x0000169a:    f002ff87    ....    BL       SmsRsqAdd ; 0x45ac
        0x0000169e:    b020         .      ADD      sp,sp,#0x80
        0x000016a0:    bd10        ..      POP      {r4,pc}
        0x000016a2:    200f        .       MOVS     r0,#0xf
        0x000016a4:    e7e6        ..      B        0x1674 ; Custerm_Log + 34
        0x000016a6:    4668        hF      MOV      r0,sp
        0x000016a8:    f7fff9be    ....    BL       ReadLog ; 0xa28
        0x000016ac:    2802        .(      CMP      r0,#2
        0x000016ae:    d108        ..      BNE      0x16c2 ; Custerm_Log + 112
        0x000016b0:    a03c        <.      ADR      r0,{pc}+0xf4 ; 0x17a4
        0x000016b2:    f000fda7    ....    BL       SendDebugString ; 0x2204
        0x000016b6:    4668        hF      MOV      r0,sp
        0x000016b8:    f000fda4    ....    BL       SendDebugString ; 0x2204
        0x000016bc:    a01f        ..      ADR      r0,{pc}+0x80 ; 0x173c
        0x000016be:    f000fda1    ....    BL       SendDebugString ; 0x2204
        0x000016c2:    78e0        .x      LDRB     r0,[r4,#3]
        0x000016c4:    2800        .(      CMP      r0,#0
        0x000016c6:    d1ee        ..      BNE      0x16a6 ; Custerm_Log + 84
        0x000016c8:    e7e9        ..      B        0x169e ; Custerm_Log + 76
        0x000016ca:    a036        6.      ADR      r0,{pc}+0xda ; 0x17a4
        0x000016cc:    f002ff6e    ..n.    BL       SmsRsqAdd ; 0x45ac
        0x000016d0:    4668        hF      MOV      r0,sp
        0x000016d2:    f002ff6b    ..k.    BL       SmsRsqAdd ; 0x45ac
        0x000016d6:    a018        ..      ADR      r0,{pc}+0x62 ; 0x1738
        0x000016d8:    f002ff68    ..h.    BL       SmsRsqAdd ; 0x45ac
        0x000016dc:    4936        6I      LDR      r1,[pc,#216] ; [0x17b8] = 0x2000004e
        0x000016de:    2014        .       MOVS     r0,#0x14
        0x000016e0:    7008        .p      STRB     r0,[r1,#0]
        0x000016e2:    e7dc        ..      B        0x169e ; Custerm_Log + 76
    Custerm_GpsInfo
        0x000016e4:    b510        ..      PUSH     {r4,lr}
        0x000016e6:    7800        .x      LDRB     r0,[r0,#0]
        0x000016e8:    280d        .(      CMP      r0,#0xd
        0x000016ea:    d005        ..      BEQ      0x16f8 ; Custerm_GpsInfo + 20
        0x000016ec:    283f        ?(      CMP      r0,#0x3f
        0x000016ee:    d003        ..      BEQ      0x16f8 ; Custerm_GpsInfo + 20
        0x000016f0:    4813        .H      LDR      r0,[pc,#76] ; [0x1740] = 0xe38
        0x000016f2:    f000fd87    ....    BL       SendDebugString ; 0x2204
        0x000016f6:    bd10        ..      POP      {r4,pc}
        0x000016f8:    4830        0H      LDR      r0,[pc,#192] ; [0x17bc] = 0x2000067f
        0x000016fa:    f000fd83    ....    BL       SendDebugString ; 0x2204
        0x000016fe:    a00f        ..      ADR      r0,{pc}+0x3e ; 0x173c
        0x00001700:    f000fd80    ....    BL       SendDebugString ; 0x2204
        0x00001704:    4811        .H      LDR      r0,[pc,#68] ; [0x174c] = 0x2000004c
        0x00001706:    7800        .x      LDRB     r0,[r0,#0]
        0x00001708:    2800        .(      CMP      r0,#0
        0x0000170a:    d0f4        ..      BEQ      0x16f6 ; Custerm_GpsInfo + 18
        0x0000170c:    a02c        ,.      ADR      r0,{pc}+0xb4 ; 0x17c0
        0x0000170e:    f002ff4d    ..M.    BL       SmsRsqAdd ; 0x45ac
        0x00001712:    482a        *H      LDR      r0,[pc,#168] ; [0x17bc] = 0x2000067f
        0x00001714:    f002ff4a    ..J.    BL       SmsRsqAdd ; 0x45ac
        0x00001718:    bd10        ..      POP      {r4,pc}
    Custerm_Call
        0x0000171a:    b570        p.      PUSH     {r4-r6,lr}
        0x0000171c:    7800        .x      LDRB     r0,[r0,#0]
        0x0000171e:    280d        .(      CMP      r0,#0xd
        0x00001720:    d05e        ^.      BEQ      0x17e0 ; Custerm_Call + 198
        0x00001722:    283f        ?(      CMP      r0,#0x3f
        0x00001724:    d05c        \.      BEQ      0x17e0 ; Custerm_Call + 198
        0x00001726:    4806        .H      LDR      r0,[pc,#24] ; [0x1740] = 0xe38
        0x00001728:    f000fd6c    ..l.    BL       SendDebugString ; 0x2204
        0x0000172c:    bd70        p.      POP      {r4-r6,pc}
    $d
        0x0000172e:    0000        ..      DCW    0
        0x00001730:    4c45442b    +DEL    DCD    1279607851
        0x00001734:    003d5941    AY=.    DCD    4020545
        0x00001738:    00000023    #...    DCD    35
        0x0000173c:    00000a0d    ....    DCD    2573
        0x00001740:    00000e38    8...    DCD    3640
        0x00001744:    20000024    $..     DCD    536870948
        0x00001748:    20000120     ..     DCD    536871200
        0x0000174c:    2000004c    L..     DCD    536870988
        0x00001750:    4249462b    +FIB    DCD    1112098347
        0x00001754:    003d4f52    RO=.    DCD    4018002
        0x00001758:    4249462b    +FIB    DCD    1112098347
        0x0000175c:    00004f52    RO..    DCD    20306
        0x00001760:    454d492b    +IME    DCD    1162692907
        0x00001764:    00003d49    I=..    DCD    15689
        0x00001768:    706d6574    temp    DCD    1886217588
        0x0000176c:    00000000    ....    DCD    0
        0x00001770:    4343492b    +ICC    DCD    1128483115
        0x00001774:    003d4449    ID=.    DCD    4015177
        0x00001778:    20000223    #..     DCD    536871459
        0x0000177c:    4245442b    +DEB    DCD    1111835691
        0x00001780:    003d4755    UG=.    DCD    4015957
        0x00001784:    5047412b    +AGP    DCD    1346847019
        0x00001788:    00003d53    S=..    DCD    15699
        0x0000178c:    39322e30    0.29    DCD    959589936
        0x00001790:    00000000    ....    DCD    0
        0x00001794:    5245562b    +VER    DCD    1380275755
        0x00001798:    4e4f4953    SION    DCD    1313818963
        0x0000179c:    0000003d    =...    DCD    61
        0x000017a0:    2000000c    ...     DCD    536870924
        0x000017a4:    474f4c2b    +LOG    DCD    1196379179
        0x000017a8:    0000003d    =...    DCD    61
        0x000017ac:    20474f4c    LOG     DCD    541544268
        0x000017b0:    54504d45    EMPT    DCD    1414548805
        0x000017b4:    00000059    Y...    DCD    89
        0x000017b8:    2000004e    N..     DCD    536870990
        0x000017bc:    2000067f    ...     DCD    536872575
        0x000017c0:    70747468    http    DCD    1886680168
        0x000017c4:    6d2f2f3a    ://m    DCD    1831808826
        0x000017c8:    2e737061    aps.    DCD    779317345
        0x000017cc:    676f6f67    goog    DCD    1735356263
        0x000017d0:    632e656c    le.c    DCD    1663985004
        0x000017d4:    6d2f6d6f    om/m    DCD    1831824751
        0x000017d8:    3f737061    aps?    DCD    1064530017
        0x000017dc:    00003d71    q=..    DCD    15729
    $t
        0x000017e0:    4866        fH      LDR      r0,[pc,#408] ; [0x197c] = 0x2000001a
        0x000017e2:    7800        .x      LDRB     r0,[r0,#0]
        0x000017e4:    2801        .(      CMP      r0,#1
        0x000017e6:    d001        ..      BEQ      0x17ec ; Custerm_Call + 210
        0x000017e8:    280c        .(      CMP      r0,#0xc
        0x000017ea:    d19f        ..      BNE      0x172c ; Custerm_Call + 18
        0x000017ec:    4864        dH      LDR      r0,[pc,#400] ; [0x1980] = 0x2000004c
        0x000017ee:    7800        .x      LDRB     r0,[r0,#0]
        0x000017f0:    2800        .(      CMP      r0,#0
        0x000017f2:    d005        ..      BEQ      0x1800 ; Custerm_Call + 230
        0x000017f4:    a063        c.      ADR      r0,{pc}+0x190 ; 0x1984
        0x000017f6:    f002fed9    ....    BL       SmsRsqAdd ; 0x45ac
        0x000017fa:    a066        f.      ADR      r0,{pc}+0x19a ; 0x1994
        0x000017fc:    f002fed6    ....    BL       SmsRsqAdd ; 0x45ac
        0x00001800:    4d65        eM      LDR      r5,[pc,#404] ; [0x1998] = 0x2000001d
        0x00001802:    7828        (x      LDRB     r0,[r5,#0]
        0x00001804:    2802        .(      CMP      r0,#2
        0x00001806:    d10a        ..      BNE      0x181e ; Custerm_Call + 260
        0x00001808:    a364        d.      ADR      r3,{pc}+0x194 ; 0x199c
        0x0000180a:    2200        ."      MOVS     r2,#0
        0x0000180c:    2106        .!      MOVS     r1,#6
        0x0000180e:    2032        2       MOVS     r0,#0x32
        0x00001810:    f003f92c    ..,.    BL       SendAtWaitRsq ; 0x4a6c
        0x00001814:    2028        (       MOVS     r0,#0x28
        0x00001816:    f000fd40    ..@.    BL       delay_50ms ; 0x229a
        0x0000181a:    f003fa07    ....    BL       ModemAudioInit ; 0x4c2c
        0x0000181e:    2400        .$      MOVS     r4,#0
        0x00001820:    702c        ,p      STRB     r4,[r5,#0]
        0x00001822:    2000        .       MOVS     r0,#0
        0x00001824:    f000ff62    ..b.    BL       ModemSleep ; 0x26ec
        0x00001828:    4861        aH      LDR      r0,[pc,#388] ; [0x19b0] = 0x20000024
        0x0000182a:    8004        ..      STRH     r4,[r0,#0]
        0x0000182c:    4861        aH      LDR      r0,[pc,#388] ; [0x19b4] = 0x20000035
        0x0000182e:    7004        .p      STRB     r4,[r0,#0]
        0x00001830:    4861        aH      LDR      r0,[pc,#388] ; [0x19b8] = 0x20000106
        0x00001832:    8004        ..      STRH     r4,[r0,#0]
        0x00001834:    2028        (       MOVS     r0,#0x28
        0x00001836:    f000fd30    ..0.    BL       delay_50ms ; 0x229a
        0x0000183a:    f004fc02    ....    BL       udpParamInit ; 0x6042
        0x0000183e:    f002f893    ....    BL       EnterCall ; 0x3968
        0x00001842:    485e        ^H      LDR      r0,[pc,#376] ; [0x19bc] = 0x2000001b
        0x00001844:    7801        .x      LDRB     r1,[r0,#0]
        0x00001846:    2904        .)      CMP      r1,#4
        0x00001848:    d200        ..      BCS      0x184c ; Custerm_Call + 306
        0x0000184a:    e76f        o.      B        0x172c ; Custerm_Call + 18
        0x0000184c:    2104        .!      MOVS     r1,#4
        0x0000184e:    7001        .p      STRB     r1,[r0,#0]
        0x00001850:    e76c        l.      B        0x172c ; Custerm_Call + 18
    Custerm_End
        0x00001852:    b510        ..      PUSH     {r4,lr}
        0x00001854:    7800        .x      LDRB     r0,[r0,#0]
        0x00001856:    280d        .(      CMP      r0,#0xd
        0x00001858:    d001        ..      BEQ      0x185e ; Custerm_End + 12
        0x0000185a:    283f        ?(      CMP      r0,#0x3f
        0x0000185c:    d117        ..      BNE      0x188e ; Custerm_End + 60
        0x0000185e:    4858        XH      LDR      r0,[pc,#352] ; [0x19c0] = 0xec0
        0x00001860:    f000fcd0    ....    BL       SendDebugString ; 0x2204
        0x00001864:    4846        FH      LDR      r0,[pc,#280] ; [0x1980] = 0x2000004c
        0x00001866:    7800        .x      LDRB     r0,[r0,#0]
        0x00001868:    2800        .(      CMP      r0,#0
        0x0000186a:    d005        ..      BEQ      0x1878 ; Custerm_End + 38
        0x0000186c:    a055        U.      ADR      r0,{pc}+0x158 ; 0x19c4
        0x0000186e:    f002fe9d    ....    BL       SmsRsqAdd ; 0x45ac
        0x00001872:    a048        H.      ADR      r0,{pc}+0x122 ; 0x1994
        0x00001874:    f002fe9a    ....    BL       SmsRsqAdd ; 0x45ac
        0x00001878:    4855        UH      LDR      r0,[pc,#340] ; [0x19d0] = 0x20000498
        0x0000187a:    f002fd49    ..I.    BL       SmsAck ; 0x4310
        0x0000187e:    4955        UI      LDR      r1,[pc,#340] ; [0x19d4] = 0x20000018
        0x00001880:    2001        .       MOVS     r0,#1
        0x00001882:    7008        .p      STRB     r0,[r1,#0]
        0x00001884:    4954        TI      LDR      r1,[pc,#336] ; [0x19d8] = 0x2000002a
        0x00001886:    7008        .p      STRB     r0,[r1,#0]
        0x00001888:    4951        QI      LDR      r1,[pc,#324] ; [0x19d0] = 0x20000498
        0x0000188a:    2000        .       MOVS     r0,#0
        0x0000188c:    7008        .p      STRB     r0,[r1,#0]
        0x0000188e:    bd10        ..      POP      {r4,pc}
    Custerm_LogClean
        0x00001890:    b510        ..      PUSH     {r4,lr}
        0x00001892:    7800        .x      LDRB     r0,[r0,#0]
        0x00001894:    280d        .(      CMP      r0,#0xd
        0x00001896:    d001        ..      BEQ      0x189c ; Custerm_LogClean + 12
        0x00001898:    283f        ?(      CMP      r0,#0x3f
        0x0000189a:    d10e        ..      BNE      0x18ba ; Custerm_LogClean + 42
        0x0000189c:    4848        HH      LDR      r0,[pc,#288] ; [0x19c0] = 0xec0
        0x0000189e:    f000fcb1    ....    BL       SendDebugString ; 0x2204
        0x000018a2:    4837        7H      LDR      r0,[pc,#220] ; [0x1980] = 0x2000004c
        0x000018a4:    7800        .x      LDRB     r0,[r0,#0]
        0x000018a6:    2800        .(      CMP      r0,#0
        0x000018a8:    d005        ..      BEQ      0x18b6 ; Custerm_LogClean + 38
        0x000018aa:    a04c        L.      ADR      r0,{pc}+0x132 ; 0x19dc
        0x000018ac:    f002fe7e    ..~.    BL       SmsRsqAdd ; 0x45ac
        0x000018b0:    a038        8.      ADR      r0,{pc}+0xe4 ; 0x1994
        0x000018b2:    f002fe7b    ..{.    BL       SmsRsqAdd ; 0x45ac
        0x000018b6:    f7feff3a    ..:.    BL       LogClean ; 0x72e
        0x000018ba:    bd10        ..      POP      {r4,pc}
    Custerm_Bat
        0x000018bc:    b51c        ..      PUSH     {r2-r4,lr}
        0x000018be:    7800        .x      LDRB     r0,[r0,#0]
        0x000018c0:    280d        .(      CMP      r0,#0xd
        0x000018c2:    d001        ..      BEQ      0x18c8 ; Custerm_Bat + 12
        0x000018c4:    283f        ?(      CMP      r0,#0x3f
        0x000018c6:    d11d        ..      BNE      0x1904 ; Custerm_Bat + 72
        0x000018c8:    2004        .       MOVS     r0,#4
        0x000018ca:    f000ff91    ....    BL       MeasurePower ; 0x27f0
        0x000018ce:    4846        FH      LDR      r0,[pc,#280] ; [0x19e8] = 0x20000032
        0x000018d0:    4669        iF      MOV      r1,sp
        0x000018d2:    8800        ..      LDRH     r0,[r0,#0]
        0x000018d4:    f001f9c9    ....    BL       BatteryVoltage ; 0x2c6a
        0x000018d8:    a044        D.      ADR      r0,{pc}+0x114 ; 0x19ec
        0x000018da:    f000fc93    ....    BL       SendDebugString ; 0x2204
        0x000018de:    4668        hF      MOV      r0,sp
        0x000018e0:    f000fc90    ....    BL       SendDebugString ; 0x2204
        0x000018e4:    a031        1.      ADR      r0,{pc}+0xc8 ; 0x19ac
        0x000018e6:    f000fc8d    ....    BL       SendDebugString ; 0x2204
        0x000018ea:    4825        %H      LDR      r0,[pc,#148] ; [0x1980] = 0x2000004c
        0x000018ec:    7800        .x      LDRB     r0,[r0,#0]
        0x000018ee:    2800        .(      CMP      r0,#0
        0x000018f0:    d008        ..      BEQ      0x1904 ; Custerm_Bat + 72
        0x000018f2:    a040        @.      ADR      r0,{pc}+0x102 ; 0x19f4
        0x000018f4:    f002fe5a    ..Z.    BL       SmsRsqAdd ; 0x45ac
        0x000018f8:    4668        hF      MOV      r0,sp
        0x000018fa:    f002fe57    ..W.    BL       SmsRsqAdd ; 0x45ac
        0x000018fe:    a025        %.      ADR      r0,{pc}+0x96 ; 0x1994
        0x00001900:    f002fe54    ..T.    BL       SmsRsqAdd ; 0x45ac
        0x00001904:    bd1c        ..      POP      {r2-r4,pc}
    CustermHandle
        0x00001906:    b5f1        ..      PUSH     {r0,r4-r7,lr}
        0x00001908:    2400        .$      MOVS     r4,#0
        0x0000190a:    4f3c        <O      LDR      r7,[pc,#240] ; [0x19fc] = 0x78d8
        0x0000190c:    e00b        ..      B        0x1926 ; CustermHandle + 32
        0x0000190e:    f004fd69    ..i.    BL       strlen ; 0x63e4
        0x00001912:    b2c6        ..      UXTB     r6,r0
        0x00001914:    5979        yY      LDR      r1,[r7,r5]
        0x00001916:    4632        2F      MOV      r2,r6
        0x00001918:    9800        ..      LDR      r0,[sp,#0]
        0x0000191a:    f004fd85    ....    BL       strncmp ; 0x6428
        0x0000191e:    2800        .(      CMP      r0,#0
        0x00001920:    d015        ..      BEQ      0x194e ; CustermHandle + 72
        0x00001922:    1c64        d.      ADDS     r4,r4,#1
        0x00001924:    b2e4        ..      UXTB     r4,r4
        0x00001926:    00e5        ..      LSLS     r5,r4,#3
        0x00001928:    5978        xY      LDR      r0,[r7,r5]
        0x0000192a:    2800        .(      CMP      r0,#0
        0x0000192c:    d1ef        ..      BNE      0x190e ; CustermHandle + 8
        0x0000192e:    00e0        ..      LSLS     r0,r4,#3
        0x00001930:    5838        8X      LDR      r0,[r7,r0]
        0x00001932:    2800        .(      CMP      r0,#0
        0x00001934:    d012        ..      BEQ      0x195c ; CustermHandle + 86
        0x00001936:    4832        2H      LDR      r0,[pc,#200] ; [0x1a00] = 0x20000017
        0x00001938:    7800        .x      LDRB     r0,[r0,#0]
        0x0000193a:    2800        .(      CMP      r0,#0
        0x0000193c:    d005        ..      BEQ      0x194a ; CustermHandle + 68
        0x0000193e:    480f        .H      LDR      r0,[pc,#60] ; [0x197c] = 0x2000001a
        0x00001940:    7801        .x      LDRB     r1,[r0,#0]
        0x00001942:    2903        .)      CMP      r1,#3
        0x00001944:    d001        ..      BEQ      0x194a ; CustermHandle + 68
        0x00001946:    2103        .!      MOVS     r1,#3
        0x00001948:    7001        .p      STRB     r1,[r0,#0]
        0x0000194a:    2001        .       MOVS     r0,#1
        0x0000194c:    e4b4        ..      B        0x12b8 ; Custerm_Delay + 26
        0x0000194e:    9800        ..      LDR      r0,[sp,#0]
        0x00001950:    00e1        ..      LSLS     r1,r4,#3
        0x00001952:    1980        ..      ADDS     r0,r0,r6
        0x00001954:    19c9        ..      ADDS     r1,r1,r7
        0x00001956:    6849        Ih      LDR      r1,[r1,#4]
        0x00001958:    4788        .G      BLX      r1
        0x0000195a:    e7e8        ..      B        0x192e ; CustermHandle + 40
        0x0000195c:    2000        .       MOVS     r0,#0
        0x0000195e:    e4ab        ..      B        0x12b8 ; Custerm_Delay + 26
    FMC_Write
        0x00001960:    4a28        (J      LDR      r2,[pc,#160] ; [0x1a04] = 0x5000c000
        0x00001962:    2321        !#      MOVS     r3,#0x21
        0x00001964:    60d3        .`      STR      r3,[r2,#0xc]
        0x00001966:    6050        P`      STR      r0,[r2,#4]
        0x00001968:    6091        .`      STR      r1,[r2,#8]
        0x0000196a:    2001        .       MOVS     r0,#1
        0x0000196c:    6110        .a      STR      r0,[r2,#0x10]
        0x0000196e:    f3bf8f60    ..`.    ISB      #0x0
        0x00001972:    6910        .i      LDR      r0,[r2,#0x10]
        0x00001974:    2800        .(      CMP      r0,#0
        0x00001976:    d1fc        ..      BNE      0x1972 ; FMC_Write + 18
        0x00001978:    4770        pG      BX       lr
    $d
        0x0000197a:    0000        ..      DCW    0
        0x0000197c:    2000001a    ...     DCD    536870938
        0x00001980:    2000004c    L..     DCD    536870988
        0x00001984:    74696e49    Init    DCD    1953066569
        0x00001988:    65746169    iate    DCD    1702125929
        0x0000198c:    6c614320     Cal    DCD    1818313504
        0x00001990:    0000006c    l...    DCD    108
        0x00001994:    00000023    #...    DCD    35
        0x00001998:    2000001d    ...     DCD    536870941
        0x0000199c:    432b5441    AT+C    DCD    1126913089
        0x000019a0:    504f4f4c    LOOP    DCD    1347374924
        0x000019a4:    4b434142    BACK    DCD    1262698818
        0x000019a8:    302c333d    =3,0    DCD    808203069
        0x000019ac:    00000a0d    ....    DCD    2573
        0x000019b0:    20000024    $..     DCD    536870948
        0x000019b4:    20000035    5..     DCD    536870965
        0x000019b8:    20000106    ...     DCD    536871174
        0x000019bc:    2000001b    ...     DCD    536870939
        0x000019c0:    00000ec0    ....    DCD    3776
        0x000019c4:    65776f50    Powe    DCD    1702326096
        0x000019c8:    6f442072    r Do    DCD    1866735730
        0x000019cc:    00006e77    wn..    DCD    28279
        0x000019d0:    20000498    ...     DCD    536872088
        0x000019d4:    20000018    ...     DCD    536870936
        0x000019d8:    2000002a    *..     DCD    536870954
        0x000019dc:    20474f4c    LOG     DCD    541544268
        0x000019e0:    41454c43    CLEA    DCD    1095060547
        0x000019e4:    0000004e    N...    DCD    78
        0x000019e8:    20000032    2..     DCD    536870962
        0x000019ec:    5441422b    +BAT    DCD    1413562923
        0x000019f0:    0000003d    =...    DCD    61
        0x000019f4:    3d544142    BAT=    DCD    1028931906
        0x000019f8:    00000000    ....    DCD    0
        0x000019fc:    000078d8    .x..    DCD    30936
        0x00001a00:    20000017    ...     DCD    536870935
        0x00001a04:    5000c000    ...P    DCD    1342226432
    $t
    .text
    UART1_IRQHandler
        0x00001a08:    b5f0        ..      PUSH     {r4-r7,lr}
        0x00001a0a:    4cd7        .L      LDR      r4,[pc,#860] ; [0x1d68] = 0x40150000
        0x00001a0c:    69e0        .i      LDR      r0,[r4,#0x1c]
        0x00001a0e:    2210        ."      MOVS     r2,#0x10
        0x00001a10:    07c1        ..      LSLS     r1,r0,#31
        0x00001a12:    0fc9        ..      LSRS     r1,r1,#31
        0x00001a14:    4002        .@      ANDS     r2,r2,r0
        0x00001a16:    4311        .C      ORRS     r1,r1,r2
        0x00001a18:    d046        F.      BEQ      0x1aa8 ; UART1_IRQHandler + 160
        0x00001a1a:    48d4        .H      LDR      r0,[pc,#848] ; [0x1d6c] = 0x20000031
        0x00001a1c:    4dd4        .M      LDR      r5,[pc,#848] ; [0x1d70] = 0x20000110
        0x00001a1e:    7800        .x      LDRB     r0,[r0,#0]
        0x00001a20:    4ed4        .N      LDR      r6,[pc,#848] ; [0x1d74] = 0x20000040
        0x00001a22:    4684        .F      MOV      r12,r0
        0x00001a24:    2700        .'      MOVS     r7,#0
        0x00001a26:    6820         h      LDR      r0,[r4,#0]
        0x00001a28:    b2c0        ..      UXTB     r0,r0
        0x00001a2a:    4661        aF      MOV      r1,r12
        0x00001a2c:    2900        .)      CMP      r1,#0
        0x00001a2e:    d001        ..      BEQ      0x1a34 ; UART1_IRQHandler + 44
        0x00001a30:    49d1        .I      LDR      r1,[pc,#836] ; [0x1d78] = 0x40050000
        0x00001a32:    6008        .`      STR      r0,[r1,#0]
        0x00001a34:    7829        )x      LDRB     r1,[r5,#0]
        0x00001a36:    4bd1        .K      LDR      r3,[pc,#836] ; [0x1d7c] = 0x20000696
        0x00001a38:    1c4a        J.      ADDS     r2,r1,#1
        0x00001a3a:    5458        XT      STRB     r0,[r3,r1]
        0x00001a3c:    0691        ..      LSLS     r1,r2,#26
        0x00001a3e:    0e89        ..      LSRS     r1,r1,#26
        0x00001a40:    7029        )p      STRB     r1,[r5,#0]
        0x00001a42:    2820         (      CMP      r0,#0x20
        0x00001a44:    d30d        ..      BCC      0x1a62 ; UART1_IRQHandler + 90
        0x00001a46:    8831        1.      LDRH     r1,[r6,#0]
        0x00001a48:    22ff        ."      MOVS     r2,#0xff
        0x00001a4a:    325f        _2      ADDS     r2,r2,#0x5f
        0x00001a4c:    4291        .B      CMP      r1,r2
        0x00001a4e:    d300        ..      BCC      0x1a52 ; UART1_IRQHandler + 74
        0x00001a50:    8037        7.      STRH     r7,[r6,#0]
        0x00001a52:    8831        1.      LDRH     r1,[r6,#0]
        0x00001a54:    4bca        .K      LDR      r3,[pc,#808] ; [0x1d80] = 0x2000025c
        0x00001a56:    1c4a        J.      ADDS     r2,r1,#1
        0x00001a58:    b292        ..      UXTH     r2,r2
        0x00001a5a:    8032        2.      STRH     r2,[r6,#0]
        0x00001a5c:    5458        XT      STRB     r0,[r3,r1]
        0x00001a5e:    549f        .T      STRB     r7,[r3,r2]
        0x00001a60:    e01e        ..      B        0x1aa0 ; UART1_IRQHandler + 152
        0x00001a62:    280d        .(      CMP      r0,#0xd
        0x00001a64:    d11c        ..      BNE      0x1aa0 ; UART1_IRQHandler + 152
        0x00001a66:    8830        0.      LDRH     r0,[r6,#0]
        0x00001a68:    2800        .(      CMP      r0,#0
        0x00001a6a:    d019        ..      BEQ      0x1aa0 ; UART1_IRQHandler + 152
        0x00001a6c:    4ac4        .J      LDR      r2,[pc,#784] ; [0x1d80] = 0x2000025c
        0x00001a6e:    8830        0.      LDRH     r0,[r6,#0]
        0x00001a70:    2301        .#      MOVS     r3,#1
        0x00001a72:    1811        ..      ADDS     r1,r2,r0
        0x00001a74:    3920         9      SUBS     r1,r1,#0x20
        0x00001a76:    7fcc        ..      LDRB     r4,[r1,#0x1f]
        0x00001a78:    2c32        2,      CMP      r4,#0x32
        0x00001a7a:    d106        ..      BNE      0x1a8a ; UART1_IRQHandler + 130
        0x00001a7c:    2801        .(      CMP      r0,#1
        0x00001a7e:    d002        ..      BEQ      0x1a86 ; UART1_IRQHandler + 126
        0x00001a80:    7f89        ..      LDRB     r1,[r1,#0x1e]
        0x00001a82:    290d        .)      CMP      r1,#0xd
        0x00001a84:    d101        ..      BNE      0x1a8a ; UART1_IRQHandler + 130
        0x00001a86:    49bf        .I      LDR      r1,[pc,#764] ; [0x1d84] = 0x20000016
        0x00001a88:    700b        .p      STRB     r3,[r1,#0]
        0x00001a8a:    240d        .$      MOVS     r4,#0xd
        0x00001a8c:    1c41        A.      ADDS     r1,r0,#1
        0x00001a8e:    b289        ..      UXTH     r1,r1
        0x00001a90:    8031        1.      STRH     r1,[r6,#0]
        0x00001a92:    5414        .T      STRB     r4,[r2,r0]
        0x00001a94:    5457        WT      STRB     r7,[r2,r1]
        0x00001a96:    48bc        .H      LDR      r0,[pc,#752] ; [0x1d88] = 0x2000003d
        0x00001a98:    7003        .p      STRB     r3,[r0,#0]
        0x00001a9a:    48bc        .H      LDR      r0,[pc,#752] ; [0x1d8c] = 0x2000003e
        0x00001a9c:    7003        .p      STRB     r3,[r0,#0]
        0x00001a9e:    bdf0        ..      POP      {r4-r7,pc}
        0x00001aa0:    69a0        .i      LDR      r0,[r4,#0x18]
        0x00001aa2:    0440        @.      LSLS     r0,r0,#17
        0x00001aa4:    d5bf        ..      BPL      0x1a26 ; UART1_IRQHandler + 30
        0x00001aa6:    bdf0        ..      POP      {r4-r7,pc}
        0x00001aa8:    0680        ..      LSLS     r0,r0,#26
        0x00001aaa:    d5fc        ..      BPL      0x1aa6 ; UART1_IRQHandler + 158
        0x00001aac:    69a0        .i      LDR      r0,[r4,#0x18]
        0x00001aae:    49b8        .I      LDR      r1,[pc,#736] ; [0x1d90] = 0x1000001
        0x00001ab0:    4308        .C      ORRS     r0,r0,r1
        0x00001ab2:    61a0        .a      STR      r0,[r4,#0x18]
        0x00001ab4:    bdf0        ..      POP      {r4-r7,pc}
    UART0_IRQHandler
        0x00001ab6:    b570        p.      PUSH     {r4-r6,lr}
        0x00001ab8:    4caf        .L      LDR      r4,[pc,#700] ; [0x1d78] = 0x40050000
        0x00001aba:    69e0        .i      LDR      r0,[r4,#0x1c]
        0x00001abc:    2210        ."      MOVS     r2,#0x10
        0x00001abe:    07c1        ..      LSLS     r1,r0,#31
        0x00001ac0:    0fc9        ..      LSRS     r1,r1,#31
        0x00001ac2:    4002        .@      ANDS     r2,r2,r0
        0x00001ac4:    4311        .C      ORRS     r1,r1,r2
        0x00001ac6:    d024        $.      BEQ      0x1b12 ; UART0_IRQHandler + 92
        0x00001ac8:    4eb2        .N      LDR      r6,[pc,#712] ; [0x1d94] = 0x20000539
        0x00001aca:    4bb3        .K      LDR      r3,[pc,#716] ; [0x1d98] = 0x2000005a
        0x00001acc:    2500        .%      MOVS     r5,#0
        0x00001ace:    6820         h      LDR      r0,[r4,#0]
        0x00001ad0:    b2c2        ..      UXTB     r2,r0
        0x00001ad2:    2a20         *      CMP      r2,#0x20
        0x00001ad4:    d30a        ..      BCC      0x1aec ; UART0_IRQHandler + 54
        0x00001ad6:    7818        .x      LDRB     r0,[r3,#0]
        0x00001ad8:    285a        Z(      CMP      r0,#0x5a
        0x00001ada:    d300        ..      BCC      0x1ade ; UART0_IRQHandler + 40
        0x00001adc:    701d        .p      STRB     r5,[r3,#0]
        0x00001ade:    7818        .x      LDRB     r0,[r3,#0]
        0x00001ae0:    1c41        A.      ADDS     r1,r0,#1
        0x00001ae2:    b2c9        ..      UXTB     r1,r1
        0x00001ae4:    7019        .p      STRB     r1,[r3,#0]
        0x00001ae6:    5432        2T      STRB     r2,[r6,r0]
        0x00001ae8:    5475        uT      STRB     r5,[r6,r1]
        0x00001aea:    e00e        ..      B        0x1b0a ; UART0_IRQHandler + 84
        0x00001aec:    2a0d        .*      CMP      r2,#0xd
        0x00001aee:    d10c        ..      BNE      0x1b0a ; UART0_IRQHandler + 84
        0x00001af0:    7818        .x      LDRB     r0,[r3,#0]
        0x00001af2:    2800        .(      CMP      r0,#0
        0x00001af4:    d009        ..      BEQ      0x1b0a ; UART0_IRQHandler + 84
        0x00001af6:    7818        .x      LDRB     r0,[r3,#0]
        0x00001af8:    1c41        A.      ADDS     r1,r0,#1
        0x00001afa:    b2c9        ..      UXTB     r1,r1
        0x00001afc:    7019        .p      STRB     r1,[r3,#0]
        0x00001afe:    5432        2T      STRB     r2,[r6,r0]
        0x00001b00:    5475        uT      STRB     r5,[r6,r1]
        0x00001b02:    49a6        .I      LDR      r1,[pc,#664] ; [0x1d9c] = 0x20000059
        0x00001b04:    2001        .       MOVS     r0,#1
        0x00001b06:    7008        .p      STRB     r0,[r1,#0]
        0x00001b08:    bd70        p.      POP      {r4-r6,pc}
        0x00001b0a:    69a0        .i      LDR      r0,[r4,#0x18]
        0x00001b0c:    0440        @.      LSLS     r0,r0,#17
        0x00001b0e:    d5de        ..      BPL      0x1ace ; UART0_IRQHandler + 24
        0x00001b10:    bd70        p.      POP      {r4-r6,pc}
        0x00001b12:    0680        ..      LSLS     r0,r0,#26
        0x00001b14:    d5fc        ..      BPL      0x1b10 ; UART0_IRQHandler + 90
        0x00001b16:    69a0        .i      LDR      r0,[r4,#0x18]
        0x00001b18:    499d        .I      LDR      r1,[pc,#628] ; [0x1d90] = 0x1000001
        0x00001b1a:    4308        .C      ORRS     r0,r0,r1
        0x00001b1c:    61a0        .a      STR      r0,[r4,#0x18]
        0x00001b1e:    bd70        p.      POP      {r4-r6,pc}
    SysTick_Handler
        0x00001b20:    b5f8        ..      PUSH     {r3-r7,lr}
        0x00001b22:    489f        .H      LDR      r0,[pc,#636] ; [0x1da0] = 0x20000043
        0x00001b24:    7801        .x      LDRB     r1,[r0,#0]
        0x00001b26:    2900        .)      CMP      r1,#0
        0x00001b28:    d002        ..      BEQ      0x1b30 ; SysTick_Handler + 16
        0x00001b2a:    7801        .x      LDRB     r1,[r0,#0]
        0x00001b2c:    1e49        I.      SUBS     r1,r1,#1
        0x00001b2e:    7001        .p      STRB     r1,[r0,#0]
        0x00001b30:    489c        .H      LDR      r0,[pc,#624] ; [0x1da4] = 0x20000044
        0x00001b32:    7801        .x      LDRB     r1,[r0,#0]
        0x00001b34:    2900        .)      CMP      r1,#0
        0x00001b36:    d002        ..      BEQ      0x1b3e ; SysTick_Handler + 30
        0x00001b38:    7801        .x      LDRB     r1,[r0,#0]
        0x00001b3a:    1e49        I.      SUBS     r1,r1,#1
        0x00001b3c:    7001        .p      STRB     r1,[r0,#0]
        0x00001b3e:    489a        .H      LDR      r0,[pc,#616] ; [0x1da8] = 0x20000045
        0x00001b40:    7801        .x      LDRB     r1,[r0,#0]
        0x00001b42:    2900        .)      CMP      r1,#0
        0x00001b44:    d002        ..      BEQ      0x1b4c ; SysTick_Handler + 44
        0x00001b46:    7801        .x      LDRB     r1,[r0,#0]
        0x00001b48:    1e49        I.      SUBS     r1,r1,#1
        0x00001b4a:    7001        .p      STRB     r1,[r0,#0]
        0x00001b4c:    4997        .I      LDR      r1,[pc,#604] ; [0x1dac] = 0x20000042
        0x00001b4e:    7808        .x      LDRB     r0,[r1,#0]
        0x00001b50:    2800        .(      CMP      r0,#0
        0x00001b52:    d001        ..      BEQ      0x1b58 ; SysTick_Handler + 56
        0x00001b54:    1e40        @.      SUBS     r0,r0,#1
        0x00001b56:    7008        .p      STRB     r0,[r1,#0]
        0x00001b58:    4995        .I      LDR      r1,[pc,#596] ; [0x1db0] = 0x20000022
        0x00001b5a:    8808        ..      LDRH     r0,[r1,#0]
        0x00001b5c:    2800        .(      CMP      r0,#0
        0x00001b5e:    d001        ..      BEQ      0x1b64 ; SysTick_Handler + 68
        0x00001b60:    1e40        @.      SUBS     r0,r0,#1
        0x00001b62:    8008        ..      STRH     r0,[r1,#0]
        0x00001b64:    4c93        .L      LDR      r4,[pc,#588] ; [0x1db4] = 0x2000003b
        0x00001b66:    4a95        .J      LDR      r2,[pc,#596] ; [0x1dbc] = 0x20000034
        0x00001b68:    7821        !x      LDRB     r1,[r4,#0]
        0x00001b6a:    4b93        .K      LDR      r3,[pc,#588] ; [0x1db8] = 0x50004200
        0x00001b6c:    7810        .x      LDRB     r0,[r2,#0]
        0x00001b6e:    2501        .%      MOVS     r5,#1
        0x00001b70:    2900        .)      CMP      r1,#0
        0x00001b72:    d002        ..      BEQ      0x1b7a ; SysTick_Handler + 90
        0x00001b74:    2901        .)      CMP      r1,#1
        0x00001b76:    d117        ..      BNE      0x1ba8 ; SysTick_Handler + 136
        0x00001b78:    e00c        ..      B        0x1b94 ; SysTick_Handler + 116
        0x00001b7a:    1c40        @.      ADDS     r0,r0,#1
        0x00001b7c:    7010        .p      STRB     r0,[r2,#0]
        0x00001b7e:    43c0        .C      MVNS     r0,r0
        0x00001b80:    0700        ..      LSLS     r0,r0,#28
        0x00001b82:    d111        ..      BNE      0x1ba8 ; SysTick_Handler + 136
        0x00001b84:    6b18        .k      LDR      r0,[r3,#0x30]
        0x00001b86:    2800        .(      CMP      r0,#0
        0x00001b88:    d002        ..      BEQ      0x1b90 ; SysTick_Handler + 112
        0x00001b8a:    2000        .       MOVS     r0,#0
        0x00001b8c:    6318        .c      STR      r0,[r3,#0x30]
        0x00001b8e:    e00b        ..      B        0x1ba8 ; SysTick_Handler + 136
        0x00001b90:    2001        .       MOVS     r0,#1
        0x00001b92:    e7fb        ..      B        0x1b8c ; SysTick_Handler + 108
        0x00001b94:    2800        .(      CMP      r0,#0
        0x00001b96:    d007        ..      BEQ      0x1ba8 ; SysTick_Handler + 136
        0x00001b98:    1e40        @.      SUBS     r0,r0,#1
        0x00001b9a:    0600        ..      LSLS     r0,r0,#24
        0x00001b9c:    0e00        ..      LSRS     r0,r0,#24
        0x00001b9e:    7010        .p      STRB     r0,[r2,#0]
        0x00001ba0:    d102        ..      BNE      0x1ba8 ; SysTick_Handler + 136
        0x00001ba2:    631d        .c      STR      r5,[r3,#0x30]
        0x00001ba4:    2002        .       MOVS     r0,#2
        0x00001ba6:    7020         p      STRB     r0,[r4,#0]
        0x00001ba8:    4985        .I      LDR      r1,[pc,#532] ; [0x1dc0] = 0x20000046
        0x00001baa:    7808        .x      LDRB     r0,[r1,#0]
        0x00001bac:    2800        .(      CMP      r0,#0
        0x00001bae:    d001        ..      BEQ      0x1bb4 ; SysTick_Handler + 148
        0x00001bb0:    1e40        @.      SUBS     r0,r0,#1
        0x00001bb2:    7008        .p      STRB     r0,[r1,#0]
        0x00001bb4:    4983        .I      LDR      r1,[pc,#524] ; [0x1dc4] = 0x20000028
        0x00001bb6:    8808        ..      LDRH     r0,[r1,#0]
        0x00001bb8:    2800        .(      CMP      r0,#0
        0x00001bba:    d001        ..      BEQ      0x1bc0 ; SysTick_Handler + 160
        0x00001bbc:    1e40        @.      SUBS     r0,r0,#1
        0x00001bbe:    8008        ..      STRH     r0,[r1,#0]
        0x00001bc0:    4981        .I      LDR      r1,[pc,#516] ; [0x1dc8] = 0x20000101
        0x00001bc2:    7808        .x      LDRB     r0,[r1,#0]
        0x00001bc4:    2800        .(      CMP      r0,#0
        0x00001bc6:    d001        ..      BEQ      0x1bcc ; SysTick_Handler + 172
        0x00001bc8:    1e40        @.      SUBS     r0,r0,#1
        0x00001bca:    7008        .p      STRB     r0,[r1,#0]
        0x00001bcc:    487f        .H      LDR      r0,[pc,#508] ; [0x1dcc] = 0x2000003a
        0x00001bce:    7801        .x      LDRB     r1,[r0,#0]
        0x00001bd0:    2900        .)      CMP      r1,#0
        0x00001bd2:    d002        ..      BEQ      0x1bda ; SysTick_Handler + 186
        0x00001bd4:    7801        .x      LDRB     r1,[r0,#0]
        0x00001bd6:    1e49        I.      SUBS     r1,r1,#1
        0x00001bd8:    7001        .p      STRB     r1,[r0,#0]
        0x00001bda:    497d        }I      LDR      r1,[pc,#500] ; [0x1dd0] = 0x20000026
        0x00001bdc:    8808        ..      LDRH     r0,[r1,#0]
        0x00001bde:    2800        .(      CMP      r0,#0
        0x00001be0:    d001        ..      BEQ      0x1be6 ; SysTick_Handler + 198
        0x00001be2:    1e40        @.      SUBS     r0,r0,#1
        0x00001be4:    8008        ..      STRH     r0,[r1,#0]
        0x00001be6:    497b        {I      LDR      r1,[pc,#492] ; [0x1dd4] = 0x20000047
        0x00001be8:    7808        .x      LDRB     r0,[r1,#0]
        0x00001bea:    1c40        @.      ADDS     r0,r0,#1
        0x00001bec:    7008        .p      STRB     r0,[r1,#0]
        0x00001bee:    f000fd6c    ..l.    BL       PressHelp ; 0x26ca
        0x00001bf2:    4979        yI      LDR      r1,[pc,#484] ; [0x1dd8] = 0x20000036
        0x00001bf4:    2400        .$      MOVS     r4,#0
        0x00001bf6:    4e79        yN      LDR      r6,[pc,#484] ; [0x1ddc] = 0x20000011
        0x00001bf8:    2800        .(      CMP      r0,#0
        0x00001bfa:    d022        ".      BEQ      0x1c42 ; SysTick_Handler + 290
        0x00001bfc:    7830        0x      LDRB     r0,[r6,#0]
        0x00001bfe:    2800        .(      CMP      r0,#0
        0x00001c00:    d001        ..      BEQ      0x1c06 ; SysTick_Handler + 230
        0x00001c02:    700c        .p      STRB     r4,[r1,#0]
        0x00001c04:    e02b        +.      B        0x1c5e ; SysTick_Handler + 318
        0x00001c06:    7808        .x      LDRB     r0,[r1,#0]
        0x00001c08:    1c40        @.      ADDS     r0,r0,#1
        0x00001c0a:    b2c0        ..      UXTB     r0,r0
        0x00001c0c:    7008        .p      STRB     r0,[r1,#0]
        0x00001c0e:    281e        .(      CMP      r0,#0x1e
        0x00001c10:    d908        ..      BLS      0x1c24 ; SysTick_Handler + 260
        0x00001c12:    7035        5p      STRB     r5,[r6,#0]
        0x00001c14:    700c        .p      STRB     r4,[r1,#0]
        0x00001c16:    f000fd47    ..G.    BL       PressBatter ; 0x26a8
        0x00001c1a:    2800        .(      CMP      r0,#0
        0x00001c1c:    d11f        ..      BNE      0x1c5e ; SysTick_Handler + 318
        0x00001c1e:    4870        pH      LDR      r0,[pc,#448] ; [0x1de0] = 0x2000002e
        0x00001c20:    7005        .p      STRB     r5,[r0,#0]
        0x00001c22:    e01c        ..      B        0x1c5e ; SysTick_Handler + 318
        0x00001c24:    2802        .(      CMP      r0,#2
        0x00001c26:    d002        ..      BEQ      0x1c2e ; SysTick_Handler + 270
        0x00001c28:    2804        .(      CMP      r0,#4
        0x00001c2a:    d004        ..      BEQ      0x1c36 ; SysTick_Handler + 278
        0x00001c2c:    e017        ..      B        0x1c5e ; SysTick_Handler + 318
        0x00001c2e:    70b4        .p      STRB     r4,[r6,#2]
        0x00001c30:    486c        lH      LDR      r0,[pc,#432] ; [0x1de4] = 0x2000002c
        0x00001c32:    7005        .p      STRB     r5,[r0,#0]
        0x00001c34:    e013        ..      B        0x1c5e ; SysTick_Handler + 318
        0x00001c36:    f000fd37    ..7.    BL       PressBatter ; 0x26a8
        0x00001c3a:    2800        .(      CMP      r0,#0
        0x00001c3c:    d10f        ..      BNE      0x1c5e ; SysTick_Handler + 318
        0x00001c3e:    70b5        .p      STRB     r5,[r6,#2]
        0x00001c40:    e00d        ..      B        0x1c5e ; SysTick_Handler + 318
        0x00001c42:    7830        0x      LDRB     r0,[r6,#0]
        0x00001c44:    2800        .(      CMP      r0,#0
        0x00001c46:    d009        ..      BEQ      0x1c5c ; SysTick_Handler + 316
        0x00001c48:    7808        .x      LDRB     r0,[r1,#0]
        0x00001c4a:    1c40        @.      ADDS     r0,r0,#1
        0x00001c4c:    b2c0        ..      UXTB     r0,r0
        0x00001c4e:    7008        .p      STRB     r0,[r1,#0]
        0x00001c50:    2802        .(      CMP      r0,#2
        0x00001c52:    d904        ..      BLS      0x1c5e ; SysTick_Handler + 318
        0x00001c54:    7034        4p      STRB     r4,[r6,#0]
        0x00001c56:    700c        .p      STRB     r4,[r1,#0]
        0x00001c58:    70b5        .p      STRB     r5,[r6,#2]
        0x00001c5a:    e000        ..      B        0x1c5e ; SysTick_Handler + 318
        0x00001c5c:    700c        .p      STRB     r4,[r1,#0]
        0x00001c5e:    f000fd23    ..#.    BL       PressBatter ; 0x26a8
        0x00001c62:    4f61        aO      LDR      r7,[pc,#388] ; [0x1de8] = 0x2000002b
        0x00001c64:    4961        aI      LDR      r1,[pc,#388] ; [0x1dec] = 0x20000037
        0x00001c66:    2800        .(      CMP      r0,#0
        0x00001c68:    d01d        ..      BEQ      0x1ca6 ; SysTick_Handler + 390
        0x00001c6a:    7870        px      LDRB     r0,[r6,#1]
        0x00001c6c:    2800        .(      CMP      r0,#0
        0x00001c6e:    d001        ..      BEQ      0x1c74 ; SysTick_Handler + 340
        0x00001c70:    700c        .p      STRB     r4,[r1,#0]
        0x00001c72:    e026        &.      B        0x1cc2 ; SysTick_Handler + 418
        0x00001c74:    7808        .x      LDRB     r0,[r1,#0]
        0x00001c76:    1c40        @.      ADDS     r0,r0,#1
        0x00001c78:    b2c0        ..      UXTB     r0,r0
        0x00001c7a:    7008        .p      STRB     r0,[r1,#0]
        0x00001c7c:    281e        .(      CMP      r0,#0x1e
        0x00001c7e:    d904        ..      BLS      0x1c8a ; SysTick_Handler + 362
        0x00001c80:    7075        up      STRB     r5,[r6,#1]
        0x00001c82:    700c        .p      STRB     r4,[r1,#0]
        0x00001c84:    485a        ZH      LDR      r0,[pc,#360] ; [0x1df0] = 0x2000002d
        0x00001c86:    7005        .p      STRB     r5,[r0,#0]
        0x00001c88:    e01b        ..      B        0x1cc2 ; SysTick_Handler + 418
        0x00001c8a:    2802        .(      CMP      r0,#2
        0x00001c8c:    d002        ..      BEQ      0x1c94 ; SysTick_Handler + 372
        0x00001c8e:    2804        .(      CMP      r0,#4
        0x00001c90:    d003        ..      BEQ      0x1c9a ; SysTick_Handler + 378
        0x00001c92:    e016        ..      B        0x1cc2 ; SysTick_Handler + 418
        0x00001c94:    70f4        .p      STRB     r4,[r6,#3]
        0x00001c96:    703d        =p      STRB     r5,[r7,#0]
        0x00001c98:    e013        ..      B        0x1cc2 ; SysTick_Handler + 418
        0x00001c9a:    f000fd16    ....    BL       PressHelp ; 0x26ca
        0x00001c9e:    2800        .(      CMP      r0,#0
        0x00001ca0:    d10f        ..      BNE      0x1cc2 ; SysTick_Handler + 418
        0x00001ca2:    70f5        .p      STRB     r5,[r6,#3]
        0x00001ca4:    e00d        ..      B        0x1cc2 ; SysTick_Handler + 418
        0x00001ca6:    7870        px      LDRB     r0,[r6,#1]
        0x00001ca8:    2800        .(      CMP      r0,#0
        0x00001caa:    d009        ..      BEQ      0x1cc0 ; SysTick_Handler + 416
        0x00001cac:    7808        .x      LDRB     r0,[r1,#0]
        0x00001cae:    1c40        @.      ADDS     r0,r0,#1
        0x00001cb0:    b2c0        ..      UXTB     r0,r0
        0x00001cb2:    7008        .p      STRB     r0,[r1,#0]
        0x00001cb4:    2802        .(      CMP      r0,#2
        0x00001cb6:    d904        ..      BLS      0x1cc2 ; SysTick_Handler + 418
        0x00001cb8:    7074        tp      STRB     r4,[r6,#1]
        0x00001cba:    700c        .p      STRB     r4,[r1,#0]
        0x00001cbc:    70f5        .p      STRB     r5,[r6,#3]
        0x00001cbe:    e000        ..      B        0x1cc2 ; SysTick_Handler + 418
        0x00001cc0:    700c        .p      STRB     r4,[r1,#0]
        0x00001cc2:    7871        qx      LDRB     r1,[r6,#1]
        0x00001cc4:    484b        KH      LDR      r0,[pc,#300] ; [0x1df4] = 0x20000051
        0x00001cc6:    2900        .)      CMP      r1,#0
        0x00001cc8:    d016        ..      BEQ      0x1cf8 ; SysTick_Handler + 472
        0x00001cca:    7831        1x      LDRB     r1,[r6,#0]
        0x00001ccc:    2900        .)      CMP      r1,#0
        0x00001cce:    d013        ..      BEQ      0x1cf8 ; SysTick_Handler + 472
        0x00001cd0:    78f1        .x      LDRB     r1,[r6,#3]
        0x00001cd2:    2900        .)      CMP      r1,#0
        0x00001cd4:    d100        ..      BNE      0x1cd8 ; SysTick_Handler + 440
        0x00001cd6:    703c        <p      STRB     r4,[r7,#0]
        0x00001cd8:    78b1        .x      LDRB     r1,[r6,#2]
        0x00001cda:    2900        .)      CMP      r1,#0
        0x00001cdc:    d101        ..      BNE      0x1ce2 ; SysTick_Handler + 450
        0x00001cde:    4941        AI      LDR      r1,[pc,#260] ; [0x1de4] = 0x2000002c
        0x00001ce0:    700c        .p      STRB     r4,[r1,#0]
        0x00001ce2:    7801        .x      LDRB     r1,[r0,#0]
        0x00001ce4:    2900        .)      CMP      r1,#0
        0x00001ce6:    d107        ..      BNE      0x1cf8 ; SysTick_Handler + 472
        0x00001ce8:    4943        CI      LDR      r1,[pc,#268] ; [0x1df8] = 0x2000001f
        0x00001cea:    7809        .x      LDRB     r1,[r1,#0]
        0x00001cec:    2901        .)      CMP      r1,#1
        0x00001cee:    d103        ..      BNE      0x1cf8 ; SysTick_Handler + 472
        0x00001cf0:    4942        BI      LDR      r1,[pc,#264] ; [0x1dfc] = 0x20000018
        0x00001cf2:    700d        .p      STRB     r5,[r1,#0]
        0x00001cf4:    4942        BI      LDR      r1,[pc,#264] ; [0x1e00] = 0x2000002a
        0x00001cf6:    700d        .p      STRB     r5,[r1,#0]
        0x00001cf8:    78b1        .x      LDRB     r1,[r6,#2]
        0x00001cfa:    2900        .)      CMP      r1,#0
        0x00001cfc:    d003        ..      BEQ      0x1d06 ; SysTick_Handler + 486
        0x00001cfe:    78f1        .x      LDRB     r1,[r6,#3]
        0x00001d00:    2900        .)      CMP      r1,#0
        0x00001d02:    d000        ..      BEQ      0x1d06 ; SysTick_Handler + 486
        0x00001d04:    7004        .p      STRB     r4,[r0,#0]
        0x00001d06:    bdf8        ..      POP      {r3-r7,pc}
    ADC_IRQHandler
        0x00001d08:    483e        >H      LDR      r0,[pc,#248] ; [0x1e04] = 0x400e0000
        0x00001d0a:    6b01        .k      LDR      r1,[r0,#0x30]
        0x00001d0c:    07c9        ..      LSLS     r1,r1,#31
        0x00001d0e:    d004        ..      BEQ      0x1d1a ; ADC_IRQHandler + 18
        0x00001d10:    6801        .h      LDR      r1,[r0,#0]
        0x00001d12:    4a3d        =J      LDR      r2,[pc,#244] ; [0x1e08] = 0x20000032
        0x00001d14:    8011        ..      STRH     r1,[r2,#0]
        0x00001d16:    2101        .!      MOVS     r1,#1
        0x00001d18:    6301        .c      STR      r1,[r0,#0x30]
        0x00001d1a:    6b01        .k      LDR      r1,[r0,#0x30]
        0x00001d1c:    0789        ..      LSLS     r1,r1,#30
        0x00001d1e:    d501        ..      BPL      0x1d24 ; ADC_IRQHandler + 28
        0x00001d20:    2102        .!      MOVS     r1,#2
        0x00001d22:    6301        .c      STR      r1,[r0,#0x30]
        0x00001d24:    6b01        .k      LDR      r1,[r0,#0x30]
        0x00001d26:    0749        I.      LSLS     r1,r1,#29
        0x00001d28:    d501        ..      BPL      0x1d2e ; ADC_IRQHandler + 38
        0x00001d2a:    2104        .!      MOVS     r1,#4
        0x00001d2c:    6301        .c      STR      r1,[r0,#0x30]
        0x00001d2e:    4770        pG      BX       lr
    GetKeyHelp
        0x00001d30:    492c        ,I      LDR      r1,[pc,#176] ; [0x1de4] = 0x2000002c
        0x00001d32:    7808        .x      LDRB     r0,[r1,#0]
        0x00001d34:    2800        .(      CMP      r0,#0
        0x00001d36:    d007        ..      BEQ      0x1d48 ; GetKeyHelp + 24
        0x00001d38:    4828        (H      LDR      r0,[pc,#160] ; [0x1ddc] = 0x20000011
        0x00001d3a:    7880        .x      LDRB     r0,[r0,#2]
        0x00001d3c:    2800        .(      CMP      r0,#0
        0x00001d3e:    d003        ..      BEQ      0x1d48 ; GetKeyHelp + 24
        0x00001d40:    2001        .       MOVS     r0,#1
        0x00001d42:    2200        ."      MOVS     r2,#0
        0x00001d44:    700a        .p      STRB     r2,[r1,#0]
        0x00001d46:    4770        pG      BX       lr
        0x00001d48:    2000        .       MOVS     r0,#0
        0x00001d4a:    4770        pG      BX       lr
    GetKeyBatt
        0x00001d4c:    4926        &I      LDR      r1,[pc,#152] ; [0x1de8] = 0x2000002b
        0x00001d4e:    7808        .x      LDRB     r0,[r1,#0]
        0x00001d50:    2800        .(      CMP      r0,#0
        0x00001d52:    d007        ..      BEQ      0x1d64 ; GetKeyBatt + 24
        0x00001d54:    4821        !H      LDR      r0,[pc,#132] ; [0x1ddc] = 0x20000011
        0x00001d56:    78c0        .x      LDRB     r0,[r0,#3]
        0x00001d58:    2800        .(      CMP      r0,#0
        0x00001d5a:    d003        ..      BEQ      0x1d64 ; GetKeyBatt + 24
        0x00001d5c:    2001        .       MOVS     r0,#1
        0x00001d5e:    2200        ."      MOVS     r2,#0
        0x00001d60:    700a        .p      STRB     r2,[r1,#0]
        0x00001d62:    4770        pG      BX       lr
        0x00001d64:    2000        .       MOVS     r0,#0
        0x00001d66:    4770        pG      BX       lr
    $d
        0x00001d68:    40150000    ...@    DCD    1075118080
        0x00001d6c:    20000031    1..     DCD    536870961
        0x00001d70:    20000110    ...     DCD    536871184
        0x00001d74:    20000040    @..     DCD    536870976
        0x00001d78:    40050000    ...@    DCD    1074069504
        0x00001d7c:    20000696    ...     DCD    536872598
        0x00001d80:    2000025c    \..     DCD    536871516
        0x00001d84:    20000016    ...     DCD    536870934
        0x00001d88:    2000003d    =..     DCD    536870973
        0x00001d8c:    2000003e    >..     DCD    536870974
        0x00001d90:    01000001    ....    DCD    16777217
        0x00001d94:    20000539    9..     DCD    536872249
        0x00001d98:    2000005a    Z..     DCD    536871002
        0x00001d9c:    20000059    Y..     DCD    536871001
        0x00001da0:    20000043    C..     DCD    536870979
        0x00001da4:    20000044    D..     DCD    536870980
        0x00001da8:    20000045    E..     DCD    536870981
        0x00001dac:    20000042    B..     DCD    536870978
        0x00001db0:    20000022    "..     DCD    536870946
        0x00001db4:    2000003b    ;..     DCD    536870971
        0x00001db8:    50004200    .B.P    DCD    1342194176
        0x00001dbc:    20000034    4..     DCD    536870964
        0x00001dc0:    20000046    F..     DCD    536870982
        0x00001dc4:    20000028    (..     DCD    536870952
        0x00001dc8:    20000101    ...     DCD    536871169
        0x00001dcc:    2000003a    :..     DCD    536870970
        0x00001dd0:    20000026    &..     DCD    536870950
        0x00001dd4:    20000047    G..     DCD    536870983
        0x00001dd8:    20000036    6..     DCD    536870966
        0x00001ddc:    20000011    ...     DCD    536870929
        0x00001de0:    2000002e    ...     DCD    536870958
        0x00001de4:    2000002c    ,..     DCD    536870956
        0x00001de8:    2000002b    +..     DCD    536870955
        0x00001dec:    20000037    7..     DCD    536870967
        0x00001df0:    2000002d    -..     DCD    536870957
        0x00001df4:    20000051    Q..     DCD    536870993
        0x00001df8:    2000001f    ...     DCD    536870943
        0x00001dfc:    20000018    ...     DCD    536870936
        0x00001e00:    2000002a    *..     DCD    536870954
        0x00001e04:    400e0000    ...@    DCD    1074659328
        0x00001e08:    20000032    2..     DCD    536870962
    $t
    .text
    main
        0x00001e0c:    b508        ..      PUSH     {r3,lr}
        0x00001e0e:    f000fb78    ..x.    BL       ClkInit ; 0x2502
        0x00001e12:    2500        .%      MOVS     r5,#0
        0x00001e14:    2005        .       MOVS     r0,#5
        0x00001e16:    0700        ..      LSLS     r0,r0,#28
        0x00001e18:    6305        .c      STR      r5,[r0,#0x30]
        0x00001e1a:    6345        Ec      STR      r5,[r0,#0x34]
        0x00001e1c:    6385        .c      STR      r5,[r0,#0x38]
        0x00001e1e:    63c5        .c      STR      r5,[r0,#0x3c]
        0x00001e20:    48d7        .H      LDR      r0,[pc,#860] ; [0x2180] = 0x50000040
        0x00001e22:    6005        .`      STR      r5,[r0,#0]
        0x00001e24:    4ed7        .N      LDR      r6,[pc,#860] ; [0x2184] = 0x50004000
        0x00001e26:    6830        0h      LDR      r0,[r6,#0]
        0x00001e28:    210c        .!      MOVS     r1,#0xc
        0x00001e2a:    4388        .C      BICS     r0,r0,r1
        0x00001e2c:    1d00        ..      ADDS     r0,r0,#4
        0x00001e2e:    6030        0`      STR      r0,[r6,#0]
        0x00001e30:    2001        .       MOVS     r0,#1
        0x00001e32:    f000fc2c    ..,.    BL       ModuleOn ; 0x268e
        0x00001e36:    49d3        .I      LDR      r1,[pc,#844] ; [0x2184] = 0x50004000
        0x00001e38:    3180        .1      ADDS     r1,r1,#0x80
        0x00001e3a:    6808        .h      LDR      r0,[r1,#0]
        0x00001e3c:    2703        .'      MOVS     r7,#3
        0x00001e3e:    02bf        ..      LSLS     r7,r7,#10
        0x00001e40:    2201        ."      MOVS     r2,#1
        0x00001e42:    43b8        .C      BICS     r0,r0,r7
        0x00001e44:    0292        ..      LSLS     r2,r2,#10
        0x00001e46:    1880        ..      ADDS     r0,r0,r2
        0x00001e48:    6008        .`      STR      r0,[r1,#0]
        0x00001e4a:    2000        .       MOVS     r0,#0
        0x00001e4c:    f000fc0c    ....    BL       ModulePowerOn ; 0x2668
        0x00001e50:    4ccc        .L      LDR      r4,[pc,#816] ; [0x2184] = 0x50004000
        0x00001e52:    34c0        .4      ADDS     r4,r4,#0xc0
        0x00001e54:    6820         h      LDR      r0,[r4,#0]
        0x00001e56:    00b9        ..      LSLS     r1,r7,#2
        0x00001e58:    4388        .C      BICS     r0,r0,r1
        0x00001e5a:    2101        .!      MOVS     r1,#1
        0x00001e5c:    0309        ..      LSLS     r1,r1,#12
        0x00001e5e:    1840        @.      ADDS     r0,r0,r1
        0x00001e60:    6020         `      STR      r0,[r4,#0]
        0x00001e62:    2000        .       MOVS     r0,#0
        0x00001e64:    f000fc1d    ....    BL       LockPower ; 0x26a2
        0x00001e68:    6820         h      LDR      r0,[r4,#0]
        0x00001e6a:    4338        8C      ORRS     r0,r0,r7
        0x00001e6c:    6020         `      STR      r0,[r4,#0]
        0x00001e6e:    6820         h      LDR      r0,[r4,#0]
        0x00001e70:    10bf        ..      ASRS     r7,r7,#2
        0x00001e72:    4338        8C      ORRS     r0,r0,r7
        0x00001e74:    6020         `      STR      r0,[r4,#0]
        0x00001e76:    6830        0h      LDR      r0,[r6,#0]
        0x00001e78:    43b8        .C      BICS     r0,r0,r7
        0x00001e7a:    30ff        .0      ADDS     r0,r0,#0xff
        0x00001e7c:    3001        .0      ADDS     r0,#1
        0x00001e7e:    6030        0`      STR      r0,[r6,#0]
        0x00001e80:    2000        .       MOVS     r0,#0
        0x00001e82:    f000fc33    ..3.    BL       ModemSleep ; 0x26ec
        0x00001e86:    48bf        .H      LDR      r0,[pc,#764] ; [0x2184] = 0x50004000
        0x00001e88:    3040        @0      ADDS     r0,r0,#0x40
        0x00001e8a:    6801        .h      LDR      r1,[r0,#0]
        0x00001e8c:    43b9        .C      BICS     r1,r1,r7
        0x00001e8e:    31ff        .1      ADDS     r1,r1,#0xff
        0x00001e90:    3101        .1      ADDS     r1,#1
        0x00001e92:    6001        .`      STR      r1,[r0,#0]
        0x00001e94:    f000fc5c    ..\.    BL       LedDark ; 0x2750
        0x00001e98:    6820         h      LDR      r0,[r4,#0]
        0x00001e9a:    2130        0!      MOVS     r1,#0x30
        0x00001e9c:    4388        .C      BICS     r0,r0,r1
        0x00001e9e:    6020         `      STR      r0,[r4,#0]
        0x00001ea0:    48b9        .H      LDR      r0,[pc,#740] ; [0x2188] = 0x927c0
        0x00001ea2:    f000f955    ..U.    BL       SysTick_Config ; 0x2150
        0x00001ea6:    f000fb58    ..X.    BL       UartInit ; 0x255a
        0x00001eaa:    f000f9a1    ....    BL       WatchdogInit ; 0x21f0
        0x00001eae:    f7fefc52    ..R.    BL       NvInit ; 0x756
        0x00001eb2:    f000fc3f    ..?.    BL       WhatToDo ; 0x2734
        0x00001eb6:    f000fbb7    ....    BL       AdcInit ; 0x2628
        0x00001eba:    f000fc57    ..W.    BL       WaitLockPower ; 0x276c
        0x00001ebe:    4cb3        .L      LDR      r4,[pc,#716] ; [0x218c] = 0x20000220
        0x00001ec0:    78a0        .x      LDRB     r0,[r4,#2]
        0x00001ec2:    2800        .(      CMP      r0,#0
        0x00001ec4:    d00a        ..      BEQ      0x1edc ; main + 208
        0x00001ec6:    2000        .       MOVS     r0,#0
        0x00001ec8:    f000fbeb    ....    BL       LockPower ; 0x26a2
        0x00001ecc:    f002f941    ..A.    BL       InitMsgDebug ; 0x4152
        0x00001ed0:    200a        .       MOVS     r0,#0xa
        0x00001ed2:    f003fb7c    ..|.    BL       Communication ; 0x55ce
        0x00001ed6:    2800        .(      CMP      r0,#0
        0x00001ed8:    d002        ..      BEQ      0x1ee0 ; main + 212
        0x00001eda:    e003        ..      B        0x1ee4 ; main + 216
        0x00001edc:    2001        .       MOVS     r0,#1
        0x00001ede:    e7f3        ..      B        0x1ec8 ; main + 188
        0x00001ee0:    f000f9a2    ....    BL       SoftReset ; 0x2228
        0x00001ee4:    4eaa        .N      LDR      r6,[pc,#680] ; [0x2190] = 0x20000016
        0x00001ee6:    7870        px      LDRB     r0,[r6,#1]
        0x00001ee8:    2800        .(      CMP      r0,#0
        0x00001eea:    d006        ..      BEQ      0x1efa ; main + 238
        0x00001eec:    2028        (       MOVS     r0,#0x28
        0x00001eee:    f000f9d4    ....    BL       delay_50ms ; 0x229a
        0x00001ef2:    2004        .       MOVS     r0,#4
        0x00001ef4:    f000fc7c    ..|.    BL       MeasurePower ; 0x27f0
        0x00001ef8:    e002        ..      B        0x1f00 ; main + 244
        0x00001efa:    2002        .       MOVS     r0,#2
        0x00001efc:    f000fc78    ..x.    BL       MeasurePower ; 0x27f0
        0x00001f00:    2001        .       MOVS     r0,#1
        0x00001f02:    7270        pr      STRB     r0,[r6,#9]
        0x00001f04:    f002fe7f    ....    BL       ModemVolumeInit ; 0x4c06
        0x00001f08:    277d        }'      MOVS     r7,#0x7d
        0x00001f0a:    013f        ?.      LSLS     r7,r7,#4
        0x00001f0c:    e050        P.      B        0x1fb0 ; main + 420
        0x00001f0e:    7ab0        .z      LDRB     r0,[r6,#0xa]
        0x00001f10:    1c40        @.      ADDS     r0,r0,#1
        0x00001f12:    72b0        .r      STRB     r0,[r6,#0xa]
        0x00001f14:    2001        .       MOVS     r0,#1
        0x00001f16:    f000f9c0    ....    BL       delay_50ms ; 0x229a
        0x00001f1a:    7ab0        .z      LDRB     r0,[r6,#0xa]
        0x00001f1c:    2896        .(      CMP      r0,#0x96
        0x00001f1e:    d347        G.      BCC      0x1fb0 ; main + 420
        0x00001f20:    2090        .       MOVS     r0,#0x90
        0x00001f22:    f001f9d7    ....    BL       LedLight ; 0x32d4
        0x00001f26:    78a0        .x      LDRB     r0,[r4,#2]
        0x00001f28:    2800        .(      CMP      r0,#0
        0x00001f2a:    d010        ..      BEQ      0x1f4e ; main + 322
        0x00001f2c:    2001        .       MOVS     r0,#1
        0x00001f2e:    f000fbb8    ....    BL       LockPower ; 0x26a2
        0x00001f32:    70a5        .p      STRB     r5,[r4,#2]
        0x00001f34:    4897        .H      LDR      r0,[pc,#604] ; [0x2194] = 0x20000120
        0x00001f36:    f7fefc2b    ..+.    BL       WriteToNv ; 0x790
        0x00001f3a:    a097        ..      ADR      r0,{pc}+0x25e ; 0x2198
        0x00001f3c:    f000fc91    ....    BL       PlayVoice ; 0x2862
        0x00001f40:    4638        8F      MOV      r0,r7
        0x00001f42:    f000f97f    ....    BL       delay_ms ; 0x2244
        0x00001f46:    2000        .       MOVS     r0,#0
        0x00001f48:    f000fbab    ....    BL       LockPower ; 0x26a2
        0x00001f4c:    e02f        /.      B        0x1fae ; main + 418
        0x00001f4e:    f000fbab    ....    BL       PressBatter ; 0x26a8
        0x00001f52:    2800        .(      CMP      r0,#0
        0x00001f54:    d1fb        ..      BNE      0x1f4e ; main + 322
        0x00001f56:    72b5        .r      STRB     r5,[r6,#0xa]
        0x00001f58:    7ab0        .z      LDRB     r0,[r6,#0xa]
        0x00001f5a:    1c40        @.      ADDS     r0,r0,#1
        0x00001f5c:    72b0        .r      STRB     r0,[r6,#0xa]
        0x00001f5e:    2096        .       MOVS     r0,#0x96
        0x00001f60:    f000f970    ..p.    BL       delay_ms ; 0x2244
        0x00001f64:    f000fba0    ....    BL       PressBatter ; 0x26a8
        0x00001f68:    2800        .(      CMP      r0,#0
        0x00001f6a:    d006        ..      BEQ      0x1f7a ; main + 366
        0x00001f6c:    7af0        .z      LDRB     r0,[r6,#0xb]
        0x00001f6e:    1c40        @.      ADDS     r0,r0,#1
        0x00001f70:    72f0        .r      STRB     r0,[r6,#0xb]
        0x00001f72:    f000fb99    ....    BL       PressBatter ; 0x26a8
        0x00001f76:    2800        .(      CMP      r0,#0
        0x00001f78:    d0fb        ..      BEQ      0x1f72 ; main + 358
        0x00001f7a:    7af0        .z      LDRB     r0,[r6,#0xb]
        0x00001f7c:    2802        .(      CMP      r0,#2
        0x00001f7e:    d911        ..      BLS      0x1fa4 ; main + 408
        0x00001f80:    a08a        ..      ADR      r0,{pc}+0x22c ; 0x21ac
        0x00001f82:    f000fc6e    ..n.    BL       PlayVoice ; 0x2862
        0x00001f86:    4638        8F      MOV      r0,r7
        0x00001f88:    f000f95c    ..\.    BL       delay_ms ; 0x2244
        0x00001f8c:    2001        .       MOVS     r0,#1
        0x00001f8e:    70a0        .p      STRB     r0,[r4,#2]
        0x00001f90:    4880        .H      LDR      r0,[pc,#512] ; [0x2194] = 0x20000120
        0x00001f92:    f7fefbfd    ....    BL       WriteToNv ; 0x790
        0x00001f96:    72b5        .r      STRB     r5,[r6,#0xa]
        0x00001f98:    4638        8F      MOV      r0,r7
        0x00001f9a:    f000f953    ..S.    BL       delay_ms ; 0x2244
        0x00001f9e:    2000        .       MOVS     r0,#0
        0x00001fa0:    f000fb7f    ....    BL       LockPower ; 0x26a2
        0x00001fa4:    7ab0        .z      LDRB     r0,[r6,#0xa]
        0x00001fa6:    2819        .(      CMP      r0,#0x19
        0x00001fa8:    d3d6        ..      BCC      0x1f58 ; main + 332
        0x00001faa:    f000fbcd    ....    BL       LedBlink ; 0x2748
        0x00001fae:    72b5        .r      STRB     r5,[r6,#0xa]
        0x00001fb0:    f000fb8b    ....    BL       PressHelp ; 0x26ca
        0x00001fb4:    2800        .(      CMP      r0,#0
        0x00001fb6:    d006        ..      BEQ      0x1fc6 ; main + 442
        0x00001fb8:    7ab0        .z      LDRB     r0,[r6,#0xa]
        0x00001fba:    28c8        .(      CMP      r0,#0xc8
        0x00001fbc:    d203        ..      BCS      0x1fc6 ; main + 442
        0x00001fbe:    f000fb73    ..s.    BL       PressBatter ; 0x26a8
        0x00001fc2:    2800        .(      CMP      r0,#0
        0x00001fc4:    d1a3        ..      BNE      0x1f0e ; main + 258
        0x00001fc6:    78a0        .x      LDRB     r0,[r4,#2]
        0x00001fc8:    2800        .(      CMP      r0,#0
        0x00001fca:    d1fd        ..      BNE      0x1fc8 ; main + 444
        0x00001fcc:    f000fed0    ....    BL       PowerOn ; 0x2d70
        0x00001fd0:    7930        0y      LDRB     r0,[r6,#4]
        0x00001fd2:    280e        .(      CMP      r0,#0xe
        0x00001fd4:    d002        ..      BEQ      0x1fdc ; main + 464
        0x00001fd6:    78b0        .x      LDRB     r0,[r6,#2]
        0x00001fd8:    2800        .(      CMP      r0,#0
        0x00001fda:    d00a        ..      BEQ      0x1ff2 ; main + 486
        0x00001fdc:    70b5        .p      STRB     r5,[r6,#2]
        0x00001fde:    f000fcd6    ....    BL       EnterPowerDown ; 0x298e
        0x00001fe2:    e001        ..      B        0x1fe8 ; main + 476
        0x00001fe4:    f000f908    ....    BL       FeedWatchdog ; 0x21f8
        0x00001fe8:    89b0        ..      LDRH     r0,[r6,#0xc]
        0x00001fea:    2800        .(      CMP      r0,#0
        0x00001fec:    d1fa        ..      BNE      0x1fe4 ; main + 472
        0x00001fee:    f001fe6b    ..k.    BL       PowerDown ; 0x3cc8
        0x00001ff2:    f002f8b9    ....    BL       InitVariables ; 0x4168
        0x00001ff6:    7930        0y      LDRB     r0,[r6,#4]
        0x00001ff8:    2800        .(      CMP      r0,#0
        0x00001ffa:    d103        ..      BNE      0x2004 ; main + 504
        0x00001ffc:    2004        .       MOVS     r0,#4
        0x00001ffe:    7130        0q      STRB     r0,[r6,#4]
        0x00002000:    2064        d       MOVS     r0,#0x64
        0x00002002:    81b0        ..      STRH     r0,[r6,#0xc]
        0x00002004:    486e        nH      LDR      r0,[pc,#440] ; [0x21c0] = 0x1770
        0x00002006:    8230        0.      STRH     r0,[r6,#0x10]
        0x00002008:    4c60        `L      LDR      r4,[pc,#384] ; [0x218c] = 0x20000220
        0x0000200a:    3c20         <      SUBS     r4,r4,#0x20
        0x0000200c:    8a30        0.      LDRH     r0,[r6,#0x10]
        0x0000200e:    2800        .(      CMP      r0,#0
        0x00002010:    d107        ..      BNE      0x2022 ; main + 534
        0x00002012:    7930        0y      LDRB     r0,[r6,#4]
        0x00002014:    2801        .(      CMP      r0,#1
        0x00002016:    d104        ..      BNE      0x2022 ; main + 534
        0x00002018:    2005        .       MOVS     r0,#5
        0x0000201a:    f000fca7    ....    BL       PlayMusic ; 0x296c
        0x0000201e:    f000fcb6    ....    BL       EnterPowerDown ; 0x298e
        0x00002022:    7830        0x      LDRB     r0,[r6,#0]
        0x00002024:    2800        .(      CMP      r0,#0
        0x00002026:    d009        ..      BEQ      0x203c ; main + 560
        0x00002028:    20c8        .       MOVS     r0,#0xc8
        0x0000202a:    81b0        ..      STRH     r0,[r6,#0xc]
        0x0000202c:    7035        5p      STRB     r5,[r6,#0]
        0x0000202e:    8b20         .      LDRH     r0,[r4,#0x18]
        0x00002030:    81f0        ..      STRH     r0,[r6,#0xe]
        0x00002032:    2000        .       MOVS     r0,#0
        0x00002034:    f000fb5a    ..Z.    BL       ModemSleep ; 0x26ec
        0x00002038:    2008        .       MOVS     r0,#8
        0x0000203a:    7130        0q      STRB     r0,[r6,#4]
        0x0000203c:    89b0        ..      LDRH     r0,[r6,#0xc]
        0x0000203e:    2800        .(      CMP      r0,#0
        0x00002040:    d145        E.      BNE      0x20ce ; main + 706
        0x00002042:    7930        0y      LDRB     r0,[r6,#4]
        0x00002044:    1e80        ..      SUBS     r0,r0,#2
        0x00002046:    0003        ..      MOVS     r3,r0
        0x00002048:    f005fbc5    ....    BL       __ARM_common_switch8 ; 0x77d6
    $d
        0x0000204c:    0b413a0d    .:A.    DCD    188824077
        0x00002050:    3d31250e    .%1=    DCD    1026630926
        0x00002054:    41374134    4A7A    DCD    1094140212
        0x00002058:    00410841    A.A.    DCD    4261953
    $t
        0x0000205c:    f001fe34    ..4.    BL       PowerDown ; 0x3cc8
        0x00002060:    e035        5.      B        0x20ce ; main + 706
        0x00002062:    f002fb61    ..a.    BL       RegisterWait ; 0x4728
        0x00002066:    e032        2.      B        0x20ce ; main + 706
        0x00002068:    f000ff51    ..Q.    BL       GetCpsiInfo ; 0x2f0e
        0x0000206c:    4855        UH      LDR      r0,[pc,#340] ; [0x21c4] = 0x20000050
        0x0000206e:    7800        .x      LDRB     r0,[r0,#0]
        0x00002070:    2801        .(      CMP      r0,#1
        0x00002072:    d002        ..      BEQ      0x207a ; main + 622
        0x00002074:    2046        F       MOVS     r0,#0x46
        0x00002076:    81b0        ..      STRH     r0,[r6,#0xc]
        0x00002078:    e029        ).      B        0x20ce ; main + 706
        0x0000207a:    2006        .       MOVS     r0,#6
        0x0000207c:    7130        0q      STRB     r0,[r6,#4]
        0x0000207e:    78f0        .x      LDRB     r0,[r6,#3]
        0x00002080:    2800        .(      CMP      r0,#0
        0x00002082:    d005        ..      BEQ      0x2090 ; main + 644
        0x00002084:    f002ff7f    ....    BL       SockOpen ; 0x4f86
        0x00002088:    20ff        .       MOVS     r0,#0xff
        0x0000208a:    3091        .0      ADDS     r0,r0,#0x91
        0x0000208c:    81b0        ..      STRH     r0,[r6,#0xc]
        0x0000208e:    e01e        ..      B        0x20ce ; main + 706
        0x00002090:    203c        <       MOVS     r0,#0x3c
        0x00002092:    81b0        ..      STRH     r0,[r6,#0xc]
        0x00002094:    e01b        ..      B        0x20ce ; main + 706
        0x00002096:    7a30        0z      LDRB     r0,[r6,#8]
        0x00002098:    2802        .(      CMP      r0,#2
        0x0000209a:    d005        ..      BEQ      0x20a8 ; main + 668
        0x0000209c:    78f0        .x      LDRB     r0,[r6,#3]
        0x0000209e:    2800        .(      CMP      r0,#0
        0x000020a0:    d002        ..      BEQ      0x20a8 ; main + 668
        0x000020a2:    2028        (       MOVS     r0,#0x28
        0x000020a4:    81b0        ..      STRH     r0,[r6,#0xc]
        0x000020a6:    e012        ..      B        0x20ce ; main + 706
        0x000020a8:    f001fc5e    ..^.    BL       EnterCall ; 0x3968
        0x000020ac:    e00f        ..      B        0x20ce ; main + 706
        0x000020ae:    f001fda2    ....    BL       Call ; 0x3bf6
        0x000020b2:    e00c        ..      B        0x20ce ; main + 706
        0x000020b4:    f001f83c    ..<.    BL       EnterCallFail ; 0x3130
        0x000020b8:    e009        ..      B        0x20ce ; main + 706
        0x000020ba:    f001fd9b    ....    BL       Redial ; 0x3bf4
        0x000020be:    e006        ..      B        0x20ce ; main + 706
        0x000020c0:    f000fc65    ..e.    BL       EnterPowerDown ; 0x298e
        0x000020c4:    e003        ..      B        0x20ce ; main + 706
        0x000020c6:    8b20         .      LDRH     r0,[r4,#0x18]
        0x000020c8:    81f0        ..      STRH     r0,[r6,#0xe]
        0x000020ca:    f001fbeb    ....    BL       EnterStandby ; 0x38a4
        0x000020ce:    8a70        p.      LDRH     r0,[r6,#0x12]
        0x000020d0:    2800        .(      CMP      r0,#0
        0x000020d2:    d127        '.      BNE      0x2124 ; main + 792
        0x000020d4:    78f0        .x      LDRB     r0,[r6,#3]
        0x000020d6:    2800        .(      CMP      r0,#0
        0x000020d8:    d024        $.      BEQ      0x2124 ; main + 792
        0x000020da:    7930        0y      LDRB     r0,[r6,#4]
        0x000020dc:    1f80        ..      SUBS     r0,r0,#6
        0x000020de:    2806        .(      CMP      r0,#6
        0x000020e0:    d302        ..      BCC      0x20e8 ; main + 732
        0x000020e2:    79f0        .y      LDRB     r0,[r6,#7]
        0x000020e4:    2805        .(      CMP      r0,#5
        0x000020e6:    d31d        ..      BCC      0x2124 ; main + 792
        0x000020e8:    7970        py      LDRB     r0,[r6,#5]
        0x000020ea:    2801        .(      CMP      r0,#1
        0x000020ec:    d006        ..      BEQ      0x20fc ; main + 752
        0x000020ee:    2802        .(      CMP      r0,#2
        0x000020f0:    d004        ..      BEQ      0x20fc ; main + 752
        0x000020f2:    2803        .(      CMP      r0,#3
        0x000020f4:    d005        ..      BEQ      0x2102 ; main + 758
        0x000020f6:    2804        .(      CMP      r0,#4
        0x000020f8:    d114        ..      BNE      0x2124 ; main + 792
        0x000020fa:    e00e        ..      B        0x211a ; main + 782
        0x000020fc:    f002ff43    ..C.    BL       SockOpen ; 0x4f86
        0x00002100:    e010        ..      B        0x2124 ; main + 792
        0x00002102:    4822        "H      LDR      r0,[pc,#136] ; [0x218c] = 0x20000220
        0x00002104:    a330        0.      ADR      r3,{pc}+0xc4 ; 0x21c8
        0x00002106:    3810        .8      SUBS     r0,r0,#0x10
        0x00002108:    9000        ..      STR      r0,[sp,#0]
        0x0000210a:    2200        ."      MOVS     r2,#0
        0x0000210c:    2101        .!      MOVS     r1,#1
        0x0000210e:    2032        2       MOVS     r0,#0x32
        0x00002110:    f002fcac    ....    BL       SendAtWaitRsq ; 0x4a6c
        0x00002114:    2050        P       MOVS     r0,#0x50
        0x00002116:    8270        p.      STRH     r0,[r6,#0x12]
        0x00002118:    e004        ..      B        0x2124 ; main + 792
        0x0000211a:    79b0        .y      LDRB     r0,[r6,#6]
        0x0000211c:    2801        .(      CMP      r0,#1
        0x0000211e:    d101        ..      BNE      0x2124 ; main + 792
        0x00002120:    f003fce4    ....    BL       ClientInit ; 0x5aec
        0x00002124:    f001fccb    ....    BL       KeyHandle ; 0x3abe
        0x00002128:    f001fafc    ....    BL       SecondHandle ; 0x3724
        0x0000212c:    f000fec2    ....    BL       BatterCheck ; 0x2eb4
        0x00002130:    f002fb12    ....    BL       PowerDownHandle ; 0x4758
        0x00002134:    f001ff26    ..&.    BL       MsgHandle ; 0x3f84
        0x00002138:    78f0        .x      LDRB     r0,[r6,#3]
        0x0000213a:    2800        .(      CMP      r0,#0
        0x0000213c:    d005        ..      BEQ      0x214a ; main + 830
        0x0000213e:    f003fee0    ....    BL       UdpHandle ; 0x5f02
        0x00002142:    f002fa5a    ..Z.    BL       SmsHandle ; 0x45fa
        0x00002146:    f002fb07    ....    BL       PowerDownHandle ; 0x4758
        0x0000214a:    f000f855    ..U.    BL       FeedWatchdog ; 0x21f8
        0x0000214e:    e75d        ].      B        0x200c ; main + 512
    SysTick_Config
        0x00002150:    b510        ..      PUSH     {r4,lr}
        0x00002152:    4924        $I      LDR      r1,[pc,#144] ; [0x21e4] = 0xffffff
        0x00002154:    4288        .B      CMP      r0,r1
        0x00002156:    d901        ..      BLS      0x215c ; SysTick_Config + 12
        0x00002158:    2001        .       MOVS     r0,#1
        0x0000215a:    bd10        ..      POP      {r4,pc}
        0x0000215c:    0201        ..      LSLS     r1,r0,#8
        0x0000215e:    0a09        ..      LSRS     r1,r1,#8
        0x00002160:    4821        !H      LDR      r0,[pc,#132] ; [0x21e8] = 0xe000e000
        0x00002162:    1e49        I.      SUBS     r1,r1,#1
        0x00002164:    6141        Aa      STR      r1,[r0,#0x14]
        0x00002166:    4921        !I      LDR      r1,[pc,#132] ; [0x21ec] = 0xe000ed04
        0x00002168:    2307        .#      MOVS     r3,#7
        0x0000216a:    69ca        .i      LDR      r2,[r1,#0x1c]
        0x0000216c:    0212        ..      LSLS     r2,r2,#8
        0x0000216e:    0a12        ..      LSRS     r2,r2,#8
        0x00002170:    0444        D.      LSLS     r4,r0,#17
        0x00002172:    4322        "C      ORRS     r2,r2,r4
        0x00002174:    61ca        .a      STR      r2,[r1,#0x1c]
        0x00002176:    2100        .!      MOVS     r1,#0
        0x00002178:    6181        .a      STR      r1,[r0,#0x18]
        0x0000217a:    6103        .a      STR      r3,[r0,#0x10]
        0x0000217c:    2000        .       MOVS     r0,#0
        0x0000217e:    bd10        ..      POP      {r4,pc}
    $d
        0x00002180:    50000040    @..P    DCD    1342177344
        0x00002184:    50004000    .@.P    DCD    1342193664
        0x00002188:    000927c0    .'..    DCD    600000
        0x0000218c:    20000220     ..     DCD    536871456
        0x00002190:    20000016    ...     DCD    536870934
        0x00002194:    20000120     ..     DCD    536871200
        0x00002198:    696e7522    "uni    DCD    1768846626
        0x0000219c:    6c6e5574    tUnl    DCD    1819170164
        0x000021a0:    2e6b636f    ock.    DCD    778789743
        0x000021a4:    22766177    wav"    DCD    578183543
        0x000021a8:    000d322c    ,2..    DCD    864812
        0x000021ac:    696e7522    "uni    DCD    1768846626
        0x000021b0:    636f4c74    tLoc    DCD    1668238452
        0x000021b4:    61772e6b    k.wa    DCD    1635200619
        0x000021b8:    322c2276    v",2    DCD    841753206
        0x000021bc:    0000000d    ....    DCD    13
        0x000021c0:    00001770    p...    DCD    6000
        0x000021c4:    20000050    P..     DCD    536870992
        0x000021c8:    432b5441    AT+C    DCD    1126913089
        0x000021cc:    504f5049    IPOP    DCD    1347375177
        0x000021d0:    303d4e45    EN=0    DCD    809324101
        0x000021d4:    4455222c    ,"UD    DCD    1146429996
        0x000021d8:    2c2c2250    P",,    DCD    741089872
        0x000021dc:    0d73252c    ,%s.    DCD    225649964
        0x000021e0:    0000000a    ....    DCD    10
        0x000021e4:    00ffffff    ....    DCD    16777215
        0x000021e8:    e000e000    ....    DCD    3758153728
        0x000021ec:    e000ed04    ....    DCD    3758157060
    $t
    .text
    WatchdogInit
        0x000021f0:    48f6        .H      LDR      r0,[pc,#984] ; [0x25cc] = 0x6cb
        0x000021f2:    49f7        .I      LDR      r1,[pc,#988] ; [0x25d0] = 0x40004000
        0x000021f4:    6008        .`      STR      r0,[r1,#0]
        0x000021f6:    4770        pG      BX       lr
    FeedWatchdog
        0x000021f8:    48f5        .H      LDR      r0,[pc,#980] ; [0x25d0] = 0x40004000
        0x000021fa:    6801        .h      LDR      r1,[r0,#0]
        0x000021fc:    2201        ."      MOVS     r2,#1
        0x000021fe:    4311        .C      ORRS     r1,r1,r2
        0x00002200:    6001        .`      STR      r1,[r0,#0]
        0x00002202:    4770        pG      BX       lr
    SendDebugString
        0x00002204:    49f3        .I      LDR      r1,[pc,#972] ; [0x25d4] = 0x40050000
        0x00002206:    e004        ..      B        0x2212 ; SendDebugString + 14
        0x00002208:    698b        .i      LDR      r3,[r1,#0x18]
        0x0000220a:    021b        ..      LSLS     r3,r3,#8
        0x0000220c:    d4fc        ..      BMI      0x2208 ; SendDebugString + 4
        0x0000220e:    600a        .`      STR      r2,[r1,#0]
        0x00002210:    1c40        @.      ADDS     r0,r0,#1
        0x00002212:    7802        .x      LDRB     r2,[r0,#0]
        0x00002214:    2a00        .*      CMP      r2,#0
        0x00002216:    d1f7        ..      BNE      0x2208 ; SendDebugString + 4
        0x00002218:    4770        pG      BX       lr
    debug
        0x0000221a:    b500        ..      PUSH     {lr}
        0x0000221c:    f7fffff2    ....    BL       SendDebugString ; 0x2204
        0x00002220:    a0ed        ..      ADR      r0,{pc}+0x3b8 ; 0x25d8
        0x00002222:    f7ffffef    ....    BL       SendDebugString ; 0x2204
        0x00002226:    bd00        ..      POP      {pc}
    SoftReset
        0x00002228:    b500        ..      PUSH     {lr}
        0x0000222a:    a0ec        ..      ADR      r0,{pc}+0x3b2 ; 0x25dc
        0x0000222c:    f7fffff5    ....    BL       debug ; 0x221a
        0x00002230:    49ed        .I      LDR      r1,[pc,#948] ; [0x25e8] = 0x20000018
        0x00002232:    2001        .       MOVS     r0,#1
        0x00002234:    7008        .p      STRB     r0,[r1,#0]
        0x00002236:    49ed        .I      LDR      r1,[pc,#948] ; [0x25ec] = 0x2000003a
        0x00002238:    2064        d       MOVS     r0,#0x64
        0x0000223a:    7008        .p      STRB     r0,[r1,#0]
        0x0000223c:    49ec        .I      LDR      r1,[pc,#944] ; [0x25f0] = 0x20000024
        0x0000223e:    2000        .       MOVS     r0,#0
        0x00002240:    8008        ..      STRH     r0,[r1,#0]
        0x00002242:    bd00        ..      POP      {pc}
    delay_ms
        0x00002244:    b51c        ..      PUSH     {r2-r4,lr}
        0x00002246:    2300        .#      MOVS     r3,#0
        0x00002248:    9301        ..      STR      r3,[sp,#4]
        0x0000224a:    e021        !.      B        0x2290 ; delay_ms + 76
        0x0000224c:    9300        ..      STR      r3,[sp,#0]
        0x0000224e:    22ff        ."      MOVS     r2,#0xff
        0x00002250:    32af        .2      ADDS     r2,r2,#0xaf
        0x00002252:    e015        ..      B        0x2280 ; delay_ms + 60
        0x00002254:    bf00        ..      NOP      
        0x00002256:    bf00        ..      NOP      
        0x00002258:    bf00        ..      NOP      
        0x0000225a:    bf00        ..      NOP      
        0x0000225c:    bf00        ..      NOP      
        0x0000225e:    bf00        ..      NOP      
        0x00002260:    bf00        ..      NOP      
        0x00002262:    bf00        ..      NOP      
        0x00002264:    bf00        ..      NOP      
        0x00002266:    bf00        ..      NOP      
        0x00002268:    bf00        ..      NOP      
        0x0000226a:    bf00        ..      NOP      
        0x0000226c:    bf00        ..      NOP      
        0x0000226e:    bf00        ..      NOP      
        0x00002270:    bf00        ..      NOP      
        0x00002272:    bf00        ..      NOP      
        0x00002274:    bf00        ..      NOP      
        0x00002276:    bf00        ..      NOP      
        0x00002278:    466c        lF      MOV      r4,sp
        0x0000227a:    8821        !.      LDRH     r1,[r4,#0]
        0x0000227c:    1c49        I.      ADDS     r1,r1,#1
        0x0000227e:    9100        ..      STR      r1,[sp,#0]
        0x00002280:    4669        iF      MOV      r1,sp
        0x00002282:    8809        ..      LDRH     r1,[r1,#0]
        0x00002284:    4291        .B      CMP      r1,r2
        0x00002286:    d3e5        ..      BCC      0x2254 ; delay_ms + 16
        0x00002288:    466a        jF      MOV      r2,sp
        0x0000228a:    8891        ..      LDRH     r1,[r2,#4]
        0x0000228c:    1c49        I.      ADDS     r1,r1,#1
        0x0000228e:    9101        ..      STR      r1,[sp,#4]
        0x00002290:    4669        iF      MOV      r1,sp
        0x00002292:    8889        ..      LDRH     r1,[r1,#4]
        0x00002294:    4281        .B      CMP      r1,r0
        0x00002296:    d3d9        ..      BCC      0x224c ; delay_ms + 8
        0x00002298:    bd1c        ..      POP      {r2-r4,pc}
    delay_50ms
        0x0000229a:    b510        ..      PUSH     {r4,lr}
        0x0000229c:    4bd5        .K      LDR      r3,[pc,#852] ; [0x25f4] = 0x20000045
        0x0000229e:    7018        .p      STRB     r0,[r3,#0]
        0x000022a0:    4cd1        .L      LDR      r4,[pc,#836] ; [0x25e8] = 0x20000018
        0x000022a2:    e001        ..      B        0x22a8 ; delay_50ms + 14
        0x000022a4:    f7ffffa8    ....    BL       FeedWatchdog ; 0x21f8
        0x000022a8:    7818        .x      LDRB     r0,[r3,#0]
        0x000022aa:    2800        .(      CMP      r0,#0
        0x000022ac:    d002        ..      BEQ      0x22b4 ; delay_50ms + 26
        0x000022ae:    7820         x      LDRB     r0,[r4,#0]
        0x000022b0:    2800        .(      CMP      r0,#0
        0x000022b2:    d0f7        ..      BEQ      0x22a4 ; delay_50ms + 10
        0x000022b4:    bd10        ..      POP      {r4,pc}
    SendDebug
        0x000022b6:    4ac7        .J      LDR      r2,[pc,#796] ; [0x25d4] = 0x40050000
        0x000022b8:    e005        ..      B        0x22c6 ; SendDebug + 16
        0x000022ba:    6993        .i      LDR      r3,[r2,#0x18]
        0x000022bc:    021b        ..      LSLS     r3,r3,#8
        0x000022be:    d4fc        ..      BMI      0x22ba ; SendDebug + 4
        0x000022c0:    7803        .x      LDRB     r3,[r0,#0]
        0x000022c2:    1c40        @.      ADDS     r0,r0,#1
        0x000022c4:    6013        .`      STR      r3,[r2,#0]
        0x000022c6:    460b        .F      MOV      r3,r1
        0x000022c8:    1e49        I.      SUBS     r1,r1,#1
        0x000022ca:    b2c9        ..      UXTB     r1,r1
        0x000022cc:    2b00        .+      CMP      r3,#0
        0x000022ce:    d1f4        ..      BNE      0x22ba ; SendDebug + 4
        0x000022d0:    4770        pG      BX       lr
    Hex2Txt
        0x000022d2:    4ac9        .J      LDR      r2,[pc,#804] ; [0x25f8] = 0x79c8
        0x000022d4:    0903        ..      LSRS     r3,r0,#4
        0x000022d6:    5cd3        .\      LDRB     r3,[r2,r3]
        0x000022d8:    700b        .p      STRB     r3,[r1,#0]
        0x000022da:    0700        ..      LSLS     r0,r0,#28
        0x000022dc:    0f00        ..      LSRS     r0,r0,#28
        0x000022de:    5c10        .\      LDRB     r0,[r2,r0]
        0x000022e0:    7048        Hp      STRB     r0,[r1,#1]
        0x000022e2:    4770        pG      BX       lr
    debug_16
        0x000022e4:    b538        8.      PUSH     {r3-r5,lr}
        0x000022e6:    460c        .F      MOV      r4,r1
        0x000022e8:    4615        .F      MOV      r5,r2
        0x000022ea:    2100        .!      MOVS     r1,#0
        0x000022ec:    9100        ..      STR      r1,[sp,#0]
        0x000022ee:    f7ffff89    ....    BL       SendDebugString ; 0x2204
        0x000022f2:    a0c2        ..      ADR      r0,{pc}+0x30a ; 0x25fc
        0x000022f4:    f7ffff86    ....    BL       SendDebugString ; 0x2204
        0x000022f8:    0a20         .      LSRS     r0,r4,#8
        0x000022fa:    4669        iF      MOV      r1,sp
        0x000022fc:    f7ffffe9    ....    BL       Hex2Txt ; 0x22d2
        0x00002300:    4668        hF      MOV      r0,sp
        0x00002302:    f7ffff7f    ....    BL       SendDebugString ; 0x2204
        0x00002306:    b2e0        ..      UXTB     r0,r4
        0x00002308:    4669        iF      MOV      r1,sp
        0x0000230a:    f7ffffe2    ....    BL       Hex2Txt ; 0x22d2
        0x0000230e:    4668        hF      MOV      r0,sp
        0x00002310:    f7ffff78    ..x.    BL       SendDebugString ; 0x2204
        0x00002314:    2d00        .-      CMP      r5,#0
        0x00002316:    d002        ..      BEQ      0x231e ; debug_16 + 58
        0x00002318:    a0af        ..      ADR      r0,{pc}+0x2c0 ; 0x25d8
        0x0000231a:    f7ffff73    ..s.    BL       SendDebugString ; 0x2204
        0x0000231e:    bd38        8.      POP      {r3-r5,pc}
    debug_8
        0x00002320:    b538        8.      PUSH     {r3-r5,lr}
        0x00002322:    460d        .F      MOV      r5,r1
        0x00002324:    4614        .F      MOV      r4,r2
        0x00002326:    2300        .#      MOVS     r3,#0
        0x00002328:    9300        ..      STR      r3,[sp,#0]
        0x0000232a:    f7ffff6b    ..k.    BL       SendDebugString ; 0x2204
        0x0000232e:    a0b4        ..      ADR      r0,{pc}+0x2d2 ; 0x2600
        0x00002330:    f7ffff68    ..h.    BL       SendDebugString ; 0x2204
        0x00002334:    4669        iF      MOV      r1,sp
        0x00002336:    4628        (F      MOV      r0,r5
        0x00002338:    f7ffffcb    ....    BL       Hex2Txt ; 0x22d2
        0x0000233c:    4668        hF      MOV      r0,sp
        0x0000233e:    f7ffff61    ..a.    BL       SendDebugString ; 0x2204
        0x00002342:    2c00        .,      CMP      r4,#0
        0x00002344:    d002        ..      BEQ      0x234c ; debug_8 + 44
        0x00002346:    a0a4        ..      ADR      r0,{pc}+0x292 ; 0x25d8
        0x00002348:    f7ffff5c    ..\.    BL       SendDebugString ; 0x2204
        0x0000234c:    bd38        8.      POP      {r3-r5,pc}
    Hex2String
        0x0000234e:    b5f0        ..      PUSH     {r4-r7,lr}
        0x00002350:    4684        .F      MOV      r12,r0
        0x00002352:    2600        .&      MOVS     r6,#0
        0x00002354:    2300        .#      MOVS     r3,#0
        0x00002356:    48a8        .H      LDR      r0,[pc,#672] ; [0x25f8] = 0x79c8
        0x00002358:    e00e        ..      B        0x2378 ; Hex2String + 42
        0x0000235a:    4664        dF      MOV      r4,r12
        0x0000235c:    5ce5        .\      LDRB     r5,[r4,r3]
        0x0000235e:    092c        ,.      LSRS     r4,r5,#4
        0x00002360:    5d07        .]      LDRB     r7,[r0,r4]
        0x00002362:    1c74        t.      ADDS     r4,r6,#1
        0x00002364:    b2e4        ..      UXTB     r4,r4
        0x00002366:    5597        .U      STRB     r7,[r2,r6]
        0x00002368:    072d        -.      LSLS     r5,r5,#28
        0x0000236a:    0f2d        -.      LSRS     r5,r5,#28
        0x0000236c:    5d45        E]      LDRB     r5,[r0,r5]
        0x0000236e:    1c66        f.      ADDS     r6,r4,#1
        0x00002370:    b2f6        ..      UXTB     r6,r6
        0x00002372:    5515        .U      STRB     r5,[r2,r4]
        0x00002374:    1c5b        [.      ADDS     r3,r3,#1
        0x00002376:    b2db        ..      UXTB     r3,r3
        0x00002378:    428b        .B      CMP      r3,r1
        0x0000237a:    d3ee        ..      BCC      0x235a ; Hex2String + 12
        0x0000237c:    2000        .       MOVS     r0,#0
        0x0000237e:    5590        .U      STRB     r0,[r2,r6]
        0x00002380:    bdf0        ..      POP      {r4-r7,pc}
    Str2Hexs
        0x00002382:    b5f8        ..      PUSH     {r3-r7,lr}
        0x00002384:    4606        .F      MOV      r6,r0
        0x00002386:    460f        .F      MOV      r7,r1
        0x00002388:    4615        .F      MOV      r5,r2
        0x0000238a:    2400        .$      MOVS     r4,#0
        0x0000238c:    4630        0F      MOV      r0,r6
        0x0000238e:    f004f829    ..).    BL       strlen ; 0x63e4
        0x00002392:    b2c2        ..      UXTB     r2,r0
        0x00002394:    0678        x.      LSLS     r0,r7,#25
        0x00002396:    0e00        ..      LSRS     r0,r0,#24
        0x00002398:    4282        .B      CMP      r2,r0
        0x0000239a:    d900        ..      BLS      0x239e ; Str2Hexs + 28
        0x0000239c:    4602        .F      MOV      r2,r0
        0x0000239e:    2000        .       MOVS     r0,#0
        0x000023a0:    e023        #.      B        0x23ea ; Str2Hexs + 104
        0x000023a2:    5c31        1\      LDRB     r1,[r6,r0]
        0x000023a4:    460b        .F      MOV      r3,r1
        0x000023a6:    3b30        0;      SUBS     r3,r3,#0x30
        0x000023a8:    2b09        .+      CMP      r3,#9
        0x000023aa:    d801        ..      BHI      0x23b0 ; Str2Hexs + 46
        0x000023ac:    b2d9        ..      UXTB     r1,r3
        0x000023ae:    e00c        ..      B        0x23ca ; Str2Hexs + 72
        0x000023b0:    460b        .F      MOV      r3,r1
        0x000023b2:    3b41        A;      SUBS     r3,r3,#0x41
        0x000023b4:    2b05        .+      CMP      r3,#5
        0x000023b6:    d802        ..      BHI      0x23be ; Str2Hexs + 60
        0x000023b8:    3937        79      SUBS     r1,r1,#0x37
        0x000023ba:    b2c9        ..      UXTB     r1,r1
        0x000023bc:    e005        ..      B        0x23ca ; Str2Hexs + 72
        0x000023be:    460b        .F      MOV      r3,r1
        0x000023c0:    3b61        a;      SUBS     r3,r3,#0x61
        0x000023c2:    2b05        .+      CMP      r3,#5
        0x000023c4:    d80b        ..      BHI      0x23de ; Str2Hexs + 92
        0x000023c6:    3957        W9      SUBS     r1,r1,#0x57
        0x000023c8:    b2c9        ..      UXTB     r1,r1
        0x000023ca:    07c3        ..      LSLS     r3,r0,#31
        0x000023cc:    d009        ..      BEQ      0x23e2 ; Str2Hexs + 96
        0x000023ce:    4623        #F      MOV      r3,r4
        0x000023d0:    195b        [.      ADDS     r3,r3,r5
        0x000023d2:    1c64        d.      ADDS     r4,r4,#1
        0x000023d4:    781f        .x      LDRB     r7,[r3,#0]
        0x000023d6:    b2e4        ..      UXTB     r4,r4
        0x000023d8:    1879        y.      ADDS     r1,r7,r1
        0x000023da:    7019        .p      STRB     r1,[r3,#0]
        0x000023dc:    e003        ..      B        0x23e6 ; Str2Hexs + 100
        0x000023de:    2000        .       MOVS     r0,#0
        0x000023e0:    bdf8        ..      POP      {r3-r7,pc}
        0x000023e2:    0109        ..      LSLS     r1,r1,#4
        0x000023e4:    5529        )U      STRB     r1,[r5,r4]
        0x000023e6:    1c40        @.      ADDS     r0,r0,#1
        0x000023e8:    b2c0        ..      UXTB     r0,r0
        0x000023ea:    4290        .B      CMP      r0,r2
        0x000023ec:    d3d9        ..      BCC      0x23a2 ; Str2Hexs + 32
        0x000023ee:    2001        .       MOVS     r0,#1
        0x000023f0:    bdf8        ..      POP      {r3-r7,pc}
    Dec2Txt
        0x000023f2:    b5f8        ..      PUSH     {r3-r7,lr}
        0x000023f4:    460c        .F      MOV      r4,r1
        0x000023f6:    2500        .%      MOVS     r5,#0
        0x000023f8:    2700        .'      MOVS     r7,#0
        0x000023fa:    4e7f        .N      LDR      r6,[pc,#508] ; [0x25f8] = 0x79c8
        0x000023fc:    2864        d(      CMP      r0,#0x64
        0x000023fe:    d30e        ..      BCC      0x241e ; Dec2Txt + 44
        0x00002400:    2164        d!      MOVS     r1,#0x64
        0x00002402:    f004f90d    ....    BL       __aeabi_uidiv ; 0x6620
        0x00002406:    5c30        0\      LDRB     r0,[r6,r0]
        0x00002408:    7020         p      STRB     r0,[r4,#0]
        0x0000240a:    4608        .F      MOV      r0,r1
        0x0000240c:    210a        .!      MOVS     r1,#0xa
        0x0000240e:    f004f907    ....    BL       __aeabi_uidiv ; 0x6620
        0x00002412:    5c30        0\      LDRB     r0,[r6,r0]
        0x00002414:    7060        `p      STRB     r0,[r4,#1]
        0x00002416:    5c70        p\      LDRB     r0,[r6,r1]
        0x00002418:    70a0        .p      STRB     r0,[r4,#2]
        0x0000241a:    70e7        .p      STRB     r7,[r4,#3]
        0x0000241c:    bdf8        ..      POP      {r3-r7,pc}
        0x0000241e:    2130        0!      MOVS     r1,#0x30
        0x00002420:    280a        .(      CMP      r0,#0xa
        0x00002422:    d310        ..      BCC      0x2446 ; Dec2Txt + 84
        0x00002424:    2a03        .*      CMP      r2,#3
        0x00002426:    d301        ..      BCC      0x242c ; Dec2Txt + 58
        0x00002428:    2501        .%      MOVS     r5,#1
        0x0000242a:    7021        !p      STRB     r1,[r4,#0]
        0x0000242c:    210a        .!      MOVS     r1,#0xa
        0x0000242e:    f004f8f7    ....    BL       __aeabi_uidiv ; 0x6620
        0x00002432:    5c32        2\      LDRB     r2,[r6,r0]
        0x00002434:    1c68        h.      ADDS     r0,r5,#1
        0x00002436:    b2c0        ..      UXTB     r0,r0
        0x00002438:    5562        bU      STRB     r2,[r4,r5]
        0x0000243a:    5c72        r\      LDRB     r2,[r6,r1]
        0x0000243c:    1c41        A.      ADDS     r1,r0,#1
        0x0000243e:    b2c9        ..      UXTB     r1,r1
        0x00002440:    5422        "T      STRB     r2,[r4,r0]
        0x00002442:    5467        gT      STRB     r7,[r4,r1]
        0x00002444:    bdf8        ..      POP      {r3-r7,pc}
        0x00002446:    2a02        .*      CMP      r2,#2
        0x00002448:    d305        ..      BCC      0x2456 ; Dec2Txt + 100
        0x0000244a:    2501        .%      MOVS     r5,#1
        0x0000244c:    7021        !p      STRB     r1,[r4,#0]
        0x0000244e:    2a03        .*      CMP      r2,#3
        0x00002450:    d301        ..      BCC      0x2456 ; Dec2Txt + 100
        0x00002452:    2502        .%      MOVS     r5,#2
        0x00002454:    7061        ap      STRB     r1,[r4,#1]
        0x00002456:    5c31        1\      LDRB     r1,[r6,r0]
        0x00002458:    1c68        h.      ADDS     r0,r5,#1
        0x0000245a:    b2c0        ..      UXTB     r0,r0
        0x0000245c:    5561        aU      STRB     r1,[r4,r5]
        0x0000245e:    5427        'T      STRB     r7,[r4,r0]
        0x00002460:    bdf8        ..      POP      {r3-r7,pc}
    DEC2Txt
        0x00002462:    b5f8        ..      PUSH     {r3-r7,lr}
        0x00002464:    460c        .F      MOV      r4,r1
        0x00002466:    2500        .%      MOVS     r5,#0
        0x00002468:    217d        }!      MOVS     r1,#0x7d
        0x0000246a:    00c9        ..      LSLS     r1,r1,#3
        0x0000246c:    2700        .'      MOVS     r7,#0
        0x0000246e:    4e62        bN      LDR      r6,[pc,#392] ; [0x25f8] = 0x79c8
        0x00002470:    4288        .B      CMP      r0,r1
        0x00002472:    d313        ..      BCC      0x249c ; DEC2Txt + 58
        0x00002474:    f004f8d4    ....    BL       __aeabi_uidiv ; 0x6620
        0x00002478:    5c30        0\      LDRB     r0,[r6,r0]
        0x0000247a:    7020         p      STRB     r0,[r4,#0]
        0x0000247c:    4608        .F      MOV      r0,r1
        0x0000247e:    2164        d!      MOVS     r1,#0x64
        0x00002480:    f004f8ce    ....    BL       __aeabi_uidiv ; 0x6620
        0x00002484:    5c30        0\      LDRB     r0,[r6,r0]
        0x00002486:    7060        `p      STRB     r0,[r4,#1]
        0x00002488:    4608        .F      MOV      r0,r1
        0x0000248a:    210a        .!      MOVS     r1,#0xa
        0x0000248c:    f004f8c8    ....    BL       __aeabi_uidiv ; 0x6620
        0x00002490:    5c30        0\      LDRB     r0,[r6,r0]
        0x00002492:    70a0        .p      STRB     r0,[r4,#2]
        0x00002494:    5c70        p\      LDRB     r0,[r6,r1]
        0x00002496:    70e0        .p      STRB     r0,[r4,#3]
        0x00002498:    7127        'q      STRB     r7,[r4,#4]
        0x0000249a:    bdf8        ..      POP      {r3-r7,pc}
        0x0000249c:    2864        d(      CMP      r0,#0x64
        0x0000249e:    d30e        ..      BCC      0x24be ; DEC2Txt + 92
        0x000024a0:    2164        d!      MOVS     r1,#0x64
        0x000024a2:    f004f8bd    ....    BL       __aeabi_uidiv ; 0x6620
        0x000024a6:    5c30        0\      LDRB     r0,[r6,r0]
        0x000024a8:    7020         p      STRB     r0,[r4,#0]
        0x000024aa:    4608        .F      MOV      r0,r1
        0x000024ac:    210a        .!      MOVS     r1,#0xa
        0x000024ae:    f004f8b7    ....    BL       __aeabi_uidiv ; 0x6620
        0x000024b2:    5c30        0\      LDRB     r0,[r6,r0]
        0x000024b4:    7060        `p      STRB     r0,[r4,#1]
        0x000024b6:    5c70        p\      LDRB     r0,[r6,r1]
        0x000024b8:    70a0        .p      STRB     r0,[r4,#2]
        0x000024ba:    70e7        .p      STRB     r7,[r4,#3]
        0x000024bc:    bdf8        ..      POP      {r3-r7,pc}
        0x000024be:    2130        0!      MOVS     r1,#0x30
        0x000024c0:    280a        .(      CMP      r0,#0xa
        0x000024c2:    d310        ..      BCC      0x24e6 ; DEC2Txt + 132
        0x000024c4:    2a03        .*      CMP      r2,#3
        0x000024c6:    d301        ..      BCC      0x24cc ; DEC2Txt + 106
        0x000024c8:    2501        .%      MOVS     r5,#1
        0x000024ca:    7021        !p      STRB     r1,[r4,#0]
        0x000024cc:    210a        .!      MOVS     r1,#0xa
        0x000024ce:    f004f8a7    ....    BL       __aeabi_uidiv ; 0x6620
        0x000024d2:    5c32        2\      LDRB     r2,[r6,r0]
        0x000024d4:    1c68        h.      ADDS     r0,r5,#1
        0x000024d6:    b2c0        ..      UXTB     r0,r0
        0x000024d8:    5562        bU      STRB     r2,[r4,r5]
        0x000024da:    5c72        r\      LDRB     r2,[r6,r1]
        0x000024dc:    1c41        A.      ADDS     r1,r0,#1
        0x000024de:    b2c9        ..      UXTB     r1,r1
        0x000024e0:    5422        "T      STRB     r2,[r4,r0]
        0x000024e2:    5467        gT      STRB     r7,[r4,r1]
        0x000024e4:    bdf8        ..      POP      {r3-r7,pc}
        0x000024e6:    2a02        .*      CMP      r2,#2
        0x000024e8:    d305        ..      BCC      0x24f6 ; DEC2Txt + 148
        0x000024ea:    2501        .%      MOVS     r5,#1
        0x000024ec:    7021        !p      STRB     r1,[r4,#0]
        0x000024ee:    2a03        .*      CMP      r2,#3
        0x000024f0:    d301        ..      BCC      0x24f6 ; DEC2Txt + 148
        0x000024f2:    2502        .%      MOVS     r5,#2
        0x000024f4:    7061        ap      STRB     r1,[r4,#1]
        0x000024f6:    5c31        1\      LDRB     r1,[r6,r0]
        0x000024f8:    1c68        h.      ADDS     r0,r5,#1
        0x000024fa:    b2c0        ..      UXTB     r0,r0
        0x000024fc:    5561        aU      STRB     r1,[r4,r5]
        0x000024fe:    5427        'T      STRB     r7,[r4,r0]
        0x00002500:    bdf8        ..      POP      {r3-r7,pc}
    ClkInit
        0x00002502:    b510        ..      PUSH     {r4,lr}
        0x00002504:    483f        ?H      LDR      r0,[pc,#252] ; [0x2604] = 0x50000100
        0x00002506:    2159        Y!      MOVS     r1,#0x59
        0x00002508:    6001        .`      STR      r1,[r0,#0]
        0x0000250a:    2116        .!      MOVS     r1,#0x16
        0x0000250c:    6001        .`      STR      r1,[r0,#0]
        0x0000250e:    2188        .!      MOVS     r1,#0x88
        0x00002510:    6001        .`      STR      r1,[r0,#0]
        0x00002512:    493d        =I      LDR      r1,[pc,#244] ; [0x2608] = 0x50000200
        0x00002514:    2009        .       MOVS     r0,#9
        0x00002516:    6008        .`      STR      r0,[r1,#0]
        0x00002518:    2309        .#      MOVS     r3,#9
        0x0000251a:    483c        <H      LDR      r0,[pc,#240] ; [0x260c] = 0x3d090
        0x0000251c:    e003        ..      B        0x2526 ; ClkInit + 36
        0x0000251e:    4602        .F      MOV      r2,r0
        0x00002520:    1e40        @.      SUBS     r0,r0,#1
        0x00002522:    2a00        .*      CMP      r2,#0
        0x00002524:    dd03        ..      BLE      0x252e ; ClkInit + 44
        0x00002526:    68cc        .h      LDR      r4,[r1,#0xc]
        0x00002528:    461a        .F      MOV      r2,r3
        0x0000252a:    43a2        .C      BICS     r2,r2,r4
        0x0000252c:    d1f7        ..      BNE      0x251e ; ClkInit + 28
        0x0000252e:    2000        .       MOVS     r0,#0
        0x00002530:    6108        .a      STR      r0,[r1,#0x10]
        0x00002532:    6a0a        .j      LDR      r2,[r1,#0x20]
        0x00002534:    2301        .#      MOVS     r3,#1
        0x00002536:    041b        ..      LSLS     r3,r3,#16
        0x00002538:    431a        .C      ORRS     r2,r2,r3
        0x0000253a:    620a        .b      STR      r2,[r1,#0x20]
        0x0000253c:    6a0a        .j      LDR      r2,[r1,#0x20]
        0x0000253e:    009b        ..      LSLS     r3,r3,#2
        0x00002540:    431a        .C      ORRS     r2,r2,r3
        0x00002542:    620a        .b      STR      r2,[r1,#0x20]
        0x00002544:    4a32        2J      LDR      r2,[pc,#200] ; [0x2610] = 0x10030041
        0x00002546:    608a        .`      STR      r2,[r1,#8]
        0x00002548:    220b        ."      MOVS     r2,#0xb
        0x0000254a:    614a        Ja      STR      r2,[r1,#0x14]
        0x0000254c:    61c8        .a      STR      r0,[r1,#0x1c]
        0x0000254e:    2003        .       MOVS     r0,#3
        0x00002550:    0440        @.      LSLS     r0,r0,#17
        0x00002552:    6188        .a      STR      r0,[r1,#0x18]
        0x00002554:    f7fdfea2    ....    BL       SystemCoreClockUpdate ; 0x29c
        0x00002558:    bd10        ..      POP      {r4,pc}
    UartInit
        0x0000255a:    b5f0        ..      PUSH     {r4-r7,lr}
        0x0000255c:    2005        .       MOVS     r0,#5
        0x0000255e:    0700        ..      LSLS     r0,r0,#28
        0x00002560:    6bc1        .k      LDR      r1,[r0,#0x3c]
        0x00002562:    22ff        ."      MOVS     r2,#0xff
        0x00002564:    3202        .2      ADDS     r2,#2
        0x00002566:    4391        .C      BICS     r1,r1,r2
        0x00002568:    1c49        I.      ADDS     r1,r1,#1
        0x0000256a:    63c1        .c      STR      r1,[r0,#0x3c]
        0x0000256c:    6bc1        .k      LDR      r1,[r0,#0x3c]
        0x0000256e:    4a29        )J      LDR      r2,[pc,#164] ; [0x2614] = 0xfffffdfd
        0x00002570:    4011        .@      ANDS     r1,r1,r2
        0x00002572:    1c89        ..      ADDS     r1,r1,#2
        0x00002574:    63c1        .c      STR      r1,[r0,#0x3c]
        0x00002576:    4917        .I      LDR      r1,[pc,#92] ; [0x25d4] = 0x40050000
        0x00002578:    2500        .%      MOVS     r5,#0
        0x0000257a:    630d        .c      STR      r5,[r1,#0x30]
        0x0000257c:    4a26        &J      LDR      r2,[pc,#152] ; [0x2618] = 0x30000066
        0x0000257e:    624a        Jb      STR      r2,[r1,#0x24]
        0x00002580:    2303        .#      MOVS     r3,#3
        0x00002582:    60cb        .`      STR      r3,[r1,#0xc]
        0x00002584:    684e        Nh      LDR      r6,[r1,#4]
        0x00002586:    2411        .$      MOVS     r4,#0x11
        0x00002588:    4326        &C      ORRS     r6,r6,r4
        0x0000258a:    604e        N`      STR      r6,[r1,#4]
        0x0000258c:    2101        .!      MOVS     r1,#1
        0x0000258e:    4e23        #N      LDR      r6,[pc,#140] ; [0x261c] = 0xe000e100
        0x00002590:    0309        ..      LSLS     r1,r1,#12
        0x00002592:    6031        1`      STR      r1,[r6,#0]
        0x00002594:    6b41        Ak      LDR      r1,[r0,#0x34]
        0x00002596:    2704        .'      MOVS     r7,#4
        0x00002598:    43b9        .C      BICS     r1,r1,r7
        0x0000259a:    023f        ?.      LSLS     r7,r7,#8
        0x0000259c:    4339        9C      ORRS     r1,r1,r7
        0x0000259e:    6341        Ac      STR      r1,[r0,#0x34]
        0x000025a0:    6b41        Ak      LDR      r1,[r0,#0x34]
        0x000025a2:    2708        .'      MOVS     r7,#8
        0x000025a4:    43b9        .C      BICS     r1,r1,r7
        0x000025a6:    023f        ?.      LSLS     r7,r7,#8
        0x000025a8:    4339        9C      ORRS     r1,r1,r7
        0x000025aa:    6341        Ac      STR      r1,[r0,#0x34]
        0x000025ac:    481c        .H      LDR      r0,[pc,#112] ; [0x2620] = 0x40150000
        0x000025ae:    6305        .c      STR      r5,[r0,#0x30]
        0x000025b0:    6242        Bb      STR      r2,[r0,#0x24]
        0x000025b2:    60c3        .`      STR      r3,[r0,#0xc]
        0x000025b4:    6841        Ah      LDR      r1,[r0,#4]
        0x000025b6:    4321        !C      ORRS     r1,r1,r4
        0x000025b8:    6041        A`      STR      r1,[r0,#4]
        0x000025ba:    00b8        ..      LSLS     r0,r7,#2
        0x000025bc:    6030        0`      STR      r0,[r6,#0]
        0x000025be:    4819        .H      LDR      r0,[pc,#100] ; [0x2624] = 0x5000c000
        0x000025c0:    6802        .h      LDR      r2,[r0,#0]
        0x000025c2:    2101        .!      MOVS     r1,#1
        0x000025c4:    430a        .C      ORRS     r2,r2,r1
        0x000025c6:    6002        .`      STR      r2,[r0,#0]
        0x000025c8:    bdf0        ..      POP      {r4-r7,pc}
    $d
        0x000025ca:    0000        ..      DCW    0
        0x000025cc:    000006cb    ....    DCD    1739
        0x000025d0:    40004000    .@.@    DCD    1073758208
        0x000025d4:    40050000    ...@    DCD    1074069504
        0x000025d8:    00000a0d    ....    DCD    2573
        0x000025dc:    74666f53    Soft    DCD    1952870227
        0x000025e0:    65736552    Rese    DCD    1702061394
        0x000025e4:    00000074    t...    DCD    116
        0x000025e8:    20000018    ...     DCD    536870936
        0x000025ec:    2000003a    :..     DCD    536870970
        0x000025f0:    20000024    $..     DCD    536870948
        0x000025f4:    20000045    E..     DCD    536870981
        0x000025f8:    000079c8    .y..    DCD    31176
        0x000025fc:    0000003a    :...    DCD    58
        0x00002600:    0078303a    :0x.    DCD    7876666
        0x00002604:    50000100    ...P    DCD    1342177536
        0x00002608:    50000200    ...P    DCD    1342177792
        0x0000260c:    0003d090    ....    DCD    250000
        0x00002610:    10030041    A...    DCD    268632129
        0x00002614:    fffffdfd    ....    DCD    4294966781
        0x00002618:    30000066    f..0    DCD    805306470
        0x0000261c:    e000e100    ....    DCD    3758153984
        0x00002620:    40150000    ...@    DCD    1075118080
        0x00002624:    5000c000    ...P    DCD    1342226432
    $t
    AdcInit
        0x00002628:    2005        .       MOVS     r0,#5
        0x0000262a:    0700        ..      LSLS     r0,r0,#28
        0x0000262c:    68c2        .h      LDR      r2,[r0,#0xc]
        0x0000262e:    2101        .!      MOVS     r1,#1
        0x00002630:    0709        ..      LSLS     r1,r1,#28
        0x00002632:    430a        .C      ORRS     r2,r2,r1
        0x00002634:    60c2        .`      STR      r2,[r0,#0xc]
        0x00002636:    68c2        .h      LDR      r2,[r0,#0xc]
        0x00002638:    438a        .C      BICS     r2,r2,r1
        0x0000263a:    60c2        .`      STR      r2,[r0,#0xc]
        0x0000263c:    2201        ."      MOVS     r2,#1
        0x0000263e:    4bf8        .K      LDR      r3,[pc,#992] ; [0x2a20] = 0xe000e180
        0x00002640:    0049        I.      LSLS     r1,r1,#1
        0x00002642:    6019        .`      STR      r1,[r3,#0]
        0x00002644:    4bf7        .K      LDR      r3,[pc,#988] ; [0x2a24] = 0x50004040
        0x00002646:    1349        I.      ASRS     r1,r1,#13
        0x00002648:    6059        Y`      STR      r1,[r3,#4]
        0x0000264a:    6b41        Ak      LDR      r1,[r0,#0x34]
        0x0000264c:    23ff        .#      MOVS     r3,#0xff
        0x0000264e:    3302        .3      ADDS     r3,#2
        0x00002650:    4399        .C      BICS     r1,r1,r3
        0x00002652:    1c49        I.      ADDS     r1,r1,#1
        0x00002654:    6341        Ac      STR      r1,[r0,#0x34]
        0x00002656:    48f4        .H      LDR      r0,[pc,#976] ; [0x2a28] = 0x400e0000
        0x00002658:    6202        .b      STR      r2,[r0,#0x20]
        0x0000265a:    6a41        Aj      LDR      r1,[r0,#0x24]
        0x0000265c:    6a42        Bj      LDR      r2,[r0,#0x24]
        0x0000265e:    0a12        ..      LSRS     r2,r2,#8
        0x00002660:    0212        ..      LSLS     r2,r2,#8
        0x00002662:    4311        .C      ORRS     r1,r1,r2
        0x00002664:    6241        Ab      STR      r1,[r0,#0x24]
        0x00002666:    4770        pG      BX       lr
    ModulePowerOn
        0x00002668:    49f0        .I      LDR      r1,[pc,#960] ; [0x2a2c] = 0x50004240
        0x0000266a:    2800        .(      CMP      r0,#0
        0x0000266c:    d002        ..      BEQ      0x2674 ; ModulePowerOn + 12
        0x0000266e:    2001        .       MOVS     r0,#1
        0x00002670:    6148        Ha      STR      r0,[r1,#0x14]
        0x00002672:    4770        pG      BX       lr
        0x00002674:    2000        .       MOVS     r0,#0
        0x00002676:    6148        Ha      STR      r0,[r1,#0x14]
        0x00002678:    4770        pG      BX       lr
    LedTigger
        0x0000267a:    49ec        .I      LDR      r1,[pc,#944] ; [0x2a2c] = 0x50004240
        0x0000267c:    3940        @9      SUBS     r1,r1,#0x40
        0x0000267e:    6b08        .k      LDR      r0,[r1,#0x30]
        0x00002680:    2800        .(      CMP      r0,#0
        0x00002682:    d002        ..      BEQ      0x268a ; LedTigger + 16
        0x00002684:    2000        .       MOVS     r0,#0
        0x00002686:    6308        .c      STR      r0,[r1,#0x30]
        0x00002688:    4770        pG      BX       lr
        0x0000268a:    2001        .       MOVS     r0,#1
        0x0000268c:    e7fb        ..      B        0x2686 ; LedTigger + 12
    ModuleOn
        0x0000268e:    49e7        .I      LDR      r1,[pc,#924] ; [0x2a2c] = 0x50004240
        0x00002690:    3940        @9      SUBS     r1,r1,#0x40
        0x00002692:    2800        .(      CMP      r0,#0
        0x00002694:    d002        ..      BEQ      0x269c ; ModuleOn + 14
        0x00002696:    2001        .       MOVS     r0,#1
        0x00002698:    6048        H`      STR      r0,[r1,#4]
        0x0000269a:    4770        pG      BX       lr
        0x0000269c:    2000        .       MOVS     r0,#0
        0x0000269e:    6048        H`      STR      r0,[r1,#4]
        0x000026a0:    4770        pG      BX       lr
    LockPower
        0x000026a2:    49e2        .I      LDR      r1,[pc,#904] ; [0x2a2c] = 0x50004240
        0x000026a4:    6388        .c      STR      r0,[r1,#0x38]
        0x000026a6:    4770        pG      BX       lr
    PressBatter
        0x000026a8:    b510        ..      PUSH     {r4,lr}
        0x000026aa:    4ce0        .L      LDR      r4,[pc,#896] ; [0x2a2c] = 0x50004240
        0x000026ac:    6b20         k      LDR      r0,[r4,#0x30]
        0x000026ae:    2800        .(      CMP      r0,#0
        0x000026b0:    d001        ..      BEQ      0x26b6 ; PressBatter + 14
        0x000026b2:    2000        .       MOVS     r0,#0
        0x000026b4:    bd10        ..      POP      {r4,pc}
        0x000026b6:    2003        .       MOVS     r0,#3
        0x000026b8:    f7fffdc4    ....    BL       delay_ms ; 0x2244
        0x000026bc:    6b20         k      LDR      r0,[r4,#0x30]
        0x000026be:    2800        .(      CMP      r0,#0
        0x000026c0:    d001        ..      BEQ      0x26c6 ; PressBatter + 30
        0x000026c2:    2000        .       MOVS     r0,#0
        0x000026c4:    bd10        ..      POP      {r4,pc}
        0x000026c6:    2001        .       MOVS     r0,#1
        0x000026c8:    bd10        ..      POP      {r4,pc}
    PressHelp
        0x000026ca:    b510        ..      PUSH     {r4,lr}
        0x000026cc:    4cd7        .L      LDR      r4,[pc,#860] ; [0x2a2c] = 0x50004240
        0x000026ce:    6b60        `k      LDR      r0,[r4,#0x34]
        0x000026d0:    2800        .(      CMP      r0,#0
        0x000026d2:    d001        ..      BEQ      0x26d8 ; PressHelp + 14
        0x000026d4:    2000        .       MOVS     r0,#0
        0x000026d6:    bd10        ..      POP      {r4,pc}
        0x000026d8:    2003        .       MOVS     r0,#3
        0x000026da:    f7fffdb3    ....    BL       delay_ms ; 0x2244
        0x000026de:    6b60        `k      LDR      r0,[r4,#0x34]
        0x000026e0:    2800        .(      CMP      r0,#0
        0x000026e2:    d001        ..      BEQ      0x26e8 ; PressHelp + 30
        0x000026e4:    2000        .       MOVS     r0,#0
        0x000026e6:    bd10        ..      POP      {r4,pc}
        0x000026e8:    2001        .       MOVS     r0,#1
        0x000026ea:    bd10        ..      POP      {r4,pc}
    ModemSleep
        0x000026ec:    b510        ..      PUSH     {r4,lr}
        0x000026ee:    4604        .F      MOV      r4,r0
        0x000026f0:    2201        ."      MOVS     r2,#1
        0x000026f2:    4621        !F      MOV      r1,r4
        0x000026f4:    a0ce        ..      ADR      r0,{pc}+0x33c ; 0x2a30
        0x000026f6:    f7fffe13    ....    BL       debug_8 ; 0x2320
        0x000026fa:    48cf        .H      LDR      r0,[pc,#828] ; [0x2a38] = 0x2000004c
        0x000026fc:    73c4        .s      STRB     r4,[r0,#0xf]
        0x000026fe:    48cb        .H      LDR      r0,[pc,#812] ; [0x2a2c] = 0x50004240
        0x00002700:    3840        @8      SUBS     r0,r0,#0x40
        0x00002702:    2c00        .,      CMP      r4,#0
        0x00002704:    d002        ..      BEQ      0x270c ; ModemSleep + 32
        0x00002706:    2100        .!      MOVS     r1,#0
        0x00002708:    6101        .a      STR      r1,[r0,#0x10]
        0x0000270a:    bd10        ..      POP      {r4,pc}
        0x0000270c:    2101        .!      MOVS     r1,#1
        0x0000270e:    6101        .a      STR      r1,[r0,#0x10]
        0x00002710:    bd10        ..      POP      {r4,pc}
    AdcStart
        0x00002712:    48c5        .H      LDR      r0,[pc,#788] ; [0x2a28] = 0x400e0000
        0x00002714:    2101        .!      MOVS     r1,#1
        0x00002716:    6301        .c      STR      r1,[r0,#0x30]
        0x00002718:    6a01        .j      LDR      r1,[r0,#0x20]
        0x0000271a:    2202        ."      MOVS     r2,#2
        0x0000271c:    4311        .C      ORRS     r1,r1,r2
        0x0000271e:    6201        .b      STR      r1,[r0,#0x20]
        0x00002720:    0711        ..      LSLS     r1,r2,#28
        0x00002722:    4abf        .J      LDR      r2,[pc,#764] ; [0x2a20] = 0xe000e180
        0x00002724:    3a80        .:      SUBS     r2,r2,#0x80
        0x00002726:    6011        .`      STR      r1,[r2,#0]
        0x00002728:    6a01        .j      LDR      r1,[r0,#0x20]
        0x0000272a:    2201        ."      MOVS     r2,#1
        0x0000272c:    02d2        ..      LSLS     r2,r2,#11
        0x0000272e:    4311        .C      ORRS     r1,r1,r2
        0x00002730:    6201        .b      STR      r1,[r0,#0x20]
        0x00002732:    4770        pG      BX       lr
    WhatToDo
        0x00002734:    b500        ..      PUSH     {lr}
        0x00002736:    f7ffffc8    ....    BL       PressHelp ; 0x26ca
        0x0000273a:    2800        .(      CMP      r0,#0
        0x0000273c:    d103        ..      BNE      0x2746 ; WhatToDo + 18
        0x0000273e:    f7ffffb3    ....    BL       PressBatter ; 0x26a8
        0x00002742:    2800        .(      CMP      r0,#0
        0x00002744:    d0f7        ..      BEQ      0x2736 ; WhatToDo + 2
        0x00002746:    bd00        ..      POP      {pc}
    LedBlink
        0x00002748:    49bc        .I      LDR      r1,[pc,#752] ; [0x2a3c] = 0x2000003b
        0x0000274a:    2000        .       MOVS     r0,#0
        0x0000274c:    7008        .p      STRB     r0,[r1,#0]
        0x0000274e:    4770        pG      BX       lr
    LedDark
        0x00002750:    48ba        .H      LDR      r0,[pc,#744] ; [0x2a3c] = 0x2000003b
        0x00002752:    7801        .x      LDRB     r1,[r0,#0]
        0x00002754:    2902        .)      CMP      r1,#2
        0x00002756:    d008        ..      BEQ      0x276a ; LedDark + 26
        0x00002758:    2102        .!      MOVS     r1,#2
        0x0000275a:    7001        .p      STRB     r1,[r0,#0]
        0x0000275c:    49b3        .I      LDR      r1,[pc,#716] ; [0x2a2c] = 0x50004240
        0x0000275e:    2001        .       MOVS     r0,#1
        0x00002760:    3940        @9      SUBS     r1,r1,#0x40
        0x00002762:    6308        .c      STR      r0,[r1,#0x30]
        0x00002764:    49b6        .I      LDR      r1,[pc,#728] ; [0x2a40] = 0x20000034
        0x00002766:    2000        .       MOVS     r0,#0
        0x00002768:    7008        .p      STRB     r0,[r1,#0]
        0x0000276a:    4770        pG      BX       lr
    WaitLockPower
        0x0000276c:    b5f8        ..      PUSH     {r3-r7,lr}
        0x0000276e:    f002f9c4    ....    BL       module_PowerOn ; 0x4afa
        0x00002772:    f7ffffaa    ....    BL       PressHelp ; 0x26ca
        0x00002776:    2100        .!      MOVS     r1,#0
        0x00002778:    4eb2        .N      LDR      r6,[pc,#712] ; [0x2a44] = 0x20000017
        0x0000277a:    2401        .$      MOVS     r4,#1
        0x0000277c:    2800        .(      CMP      r0,#0
        0x0000277e:    d001        ..      BEQ      0x2784 ; WaitLockPower + 24
        0x00002780:    7031        1p      STRB     r1,[r6,#0]
        0x00002782:    e000        ..      B        0x2786 ; WaitLockPower + 26
        0x00002784:    7034        4p      STRB     r4,[r6,#0]
        0x00002786:    7830        0x      LDRB     r0,[r6,#0]
        0x00002788:    4faf        .O      LDR      r7,[pc,#700] ; [0x2a48] = 0x20000043
        0x0000278a:    2800        .(      CMP      r0,#0
        0x0000278c:    d002        ..      BEQ      0x2794 ; WaitLockPower + 40
        0x0000278e:    2034        4       MOVS     r0,#0x34
        0x00002790:    7038        8p      STRB     r0,[r7,#0]
        0x00002792:    e001        ..      B        0x2798 ; WaitLockPower + 44
        0x00002794:    2023        #       MOVS     r0,#0x23
        0x00002796:    7038        8p      STRB     r0,[r7,#0]
        0x00002798:    4dac        .M      LDR      r5,[pc,#688] ; [0x2a4c] = 0x2000001a
        0x0000279a:    e00a        ..      B        0x27b2 ; WaitLockPower + 70
        0x0000279c:    f7ffff95    ....    BL       PressHelp ; 0x26ca
        0x000027a0:    2800        .(      CMP      r0,#0
        0x000027a2:    d006        ..      BEQ      0x27b2 ; WaitLockPower + 70
        0x000027a4:    f7ffff80    ....    BL       PressBatter ; 0x26a8
        0x000027a8:    2800        .(      CMP      r0,#0
        0x000027aa:    d002        ..      BEQ      0x27b2 ; WaitLockPower + 70
        0x000027ac:    2000        .       MOVS     r0,#0
        0x000027ae:    7030        0p      STRB     r0,[r6,#0]
        0x000027b0:    702c        ,p      STRB     r4,[r5,#0]
        0x000027b2:    7838        8x      LDRB     r0,[r7,#0]
        0x000027b4:    2800        .(      CMP      r0,#0
        0x000027b6:    d1f1        ..      BNE      0x279c ; WaitLockPower + 48
        0x000027b8:    2001        .       MOVS     r0,#1
        0x000027ba:    f7ffff72    ..r.    BL       LockPower ; 0x26a2
        0x000027be:    a0a4        ..      ADR      r0,{pc}+0x292 ; 0x2a50
        0x000027c0:    f7fffd2b    ..+.    BL       debug ; 0x221a
        0x000027c4:    48a4        .H      LDR      r0,[pc,#656] ; [0x2a58] = 0x20000220
        0x000027c6:    7880        .x      LDRB     r0,[r0,#2]
        0x000027c8:    2800        .(      CMP      r0,#0
        0x000027ca:    d003        ..      BEQ      0x27d4 ; WaitLockPower + 104
        0x000027cc:    f7ffff6c    ..l.    BL       PressBatter ; 0x26a8
        0x000027d0:    2800        .(      CMP      r0,#0
        0x000027d2:    d00a        ..      BEQ      0x27ea ; WaitLockPower + 126
        0x000027d4:    f7ffffb8    ....    BL       LedBlink ; 0x2748
        0x000027d8:    7828        (x      LDRB     r0,[r5,#0]
        0x000027da:    2801        .(      CMP      r0,#1
        0x000027dc:    d104        ..      BNE      0x27e8 ; WaitLockPower + 124
        0x000027de:    4896        .H      LDR      r0,[pc,#600] ; [0x2a38] = 0x2000004c
        0x000027e0:    7144        Dq      STRB     r4,[r0,#5]
        0x000027e2:    a09e        ..      ADR      r0,{pc}+0x27a ; 0x2a5c
        0x000027e4:    f7fffd19    ....    BL       debug ; 0x221a
        0x000027e8:    bdf8        ..      POP      {r3-r7,pc}
        0x000027ea:    f7ffffb1    ....    BL       LedDark ; 0x2750
        0x000027ee:    e7f3        ..      B        0x27d8 ; WaitLockPower + 108
    MeasurePower
        0x000027f0:    b5f8        ..      PUSH     {r3-r7,lr}
        0x000027f2:    4605        .F      MOV      r5,r0
        0x000027f4:    2300        .#      MOVS     r3,#0
        0x000027f6:    260f        .&      MOVS     r6,#0xf
        0x000027f8:    2400        .$      MOVS     r4,#0
        0x000027fa:    f7ffff8a    ....    BL       AdcStart ; 0x2712
        0x000027fe:    4f92        .O      LDR      r7,[pc,#584] ; [0x2a48] = 0x20000043
        0x00002800:    703e        >p      STRB     r6,[r7,#0]
        0x00002802:    7838        8x      LDRB     r0,[r7,#0]
        0x00002804:    2800        .(      CMP      r0,#0
        0x00002806:    d10a        ..      BNE      0x281e ; MeasurePower + 46
        0x00002808:    4897        .H      LDR      r0,[pc,#604] ; [0x2a68] = 0x20000032
        0x0000280a:    8800        ..      LDRH     r0,[r0,#0]
        0x0000280c:    1820         .      ADDS     r0,r4,r0
        0x0000280e:    b284        ..      UXTH     r4,r0
        0x00002810:    1c5b        [.      ADDS     r3,r3,#1
        0x00002812:    b2db        ..      UXTB     r3,r3
        0x00002814:    42ab        .B      CMP      r3,r5
        0x00002816:    d202        ..      BCS      0x281e ; MeasurePower + 46
        0x00002818:    f7ffff7b    ..{.    BL       AdcStart ; 0x2712
        0x0000281c:    703e        >p      STRB     r6,[r7,#0]
        0x0000281e:    42ab        .B      CMP      r3,r5
        0x00002820:    d3ef        ..      BCC      0x2802 ; MeasurePower + 18
        0x00002822:    4629        )F      MOV      r1,r5
        0x00002824:    4620         F      MOV      r0,r4
        0x00002826:    f003fefb    ....    BL       __aeabi_uidiv ; 0x6620
        0x0000282a:    498f        .I      LDR      r1,[pc,#572] ; [0x2a68] = 0x20000032
        0x0000282c:    8008        ..      STRH     r0,[r1,#0]
        0x0000282e:    bdf8        ..      POP      {r3-r7,pc}
    DelayUntil
        0x00002830:    b5f8        ..      PUSH     {r3-r7,lr}
        0x00002832:    460f        .F      MOV      r7,r1
        0x00002834:    4c8d        .L      LDR      r4,[pc,#564] ; [0x2a6c] = 0x20000045
        0x00002836:    7020         p      STRB     r0,[r4,#0]
        0x00002838:    4d8d        .M      LDR      r5,[pc,#564] ; [0x2a70] = 0x2000003d
        0x0000283a:    4e8e        .N      LDR      r6,[pc,#568] ; [0x2a74] = 0x20000018
        0x0000283c:    e00a        ..      B        0x2854 ; DelayUntil + 36
        0x0000283e:    7828        (x      LDRB     r0,[r5,#0]
        0x00002840:    2801        .(      CMP      r0,#1
        0x00002842:    d105        ..      BNE      0x2850 ; DelayUntil + 32
        0x00002844:    4639        9F      MOV      r1,r7
        0x00002846:    488c        .H      LDR      r0,[pc,#560] ; [0x2a78] = 0x2000025c
        0x00002848:    f003fd92    ....    BL       strstr ; 0x6370
        0x0000284c:    2800        .(      CMP      r0,#0
        0x0000284e:    d107        ..      BNE      0x2860 ; DelayUntil + 48
        0x00002850:    f7fffcd2    ....    BL       FeedWatchdog ; 0x21f8
        0x00002854:    7820         x      LDRB     r0,[r4,#0]
        0x00002856:    2800        .(      CMP      r0,#0
        0x00002858:    d002        ..      BEQ      0x2860 ; DelayUntil + 48
        0x0000285a:    7830        0x      LDRB     r0,[r6,#0]
        0x0000285c:    2800        .(      CMP      r0,#0
        0x0000285e:    d0ee        ..      BEQ      0x283e ; DelayUntil + 14
        0x00002860:    bdf8        ..      POP      {r3-r7,pc}
    PlayVoice
        0x00002862:    b510        ..      PUSH     {r4,lr}
        0x00002864:    4604        .F      MOV      r4,r0
        0x00002866:    a085        ..      ADR      r0,{pc}+0x216 ; 0x2a7c
        0x00002868:    f002f836    ..6.    BL       SendAtCommand ; 0x48d8
        0x0000286c:    4620         F      MOV      r0,r4
        0x0000286e:    f002f833    ..3.    BL       SendAtCommand ; 0x48d8
        0x00002872:    2032        2       MOVS     r0,#0x32
        0x00002874:    f002f8e2    ....    BL       module_WaitResponse ; 0x4a3c
        0x00002878:    bd10        ..      POP      {r4,pc}
    PinStatusIndication
        0x0000287a:    b510        ..      PUSH     {r4,lr}
        0x0000287c:    4604        .F      MOV      r4,r0
        0x0000287e:    2c01        .,      CMP      r4,#1
        0x00002880:    d009        ..      BEQ      0x2896 ; PinStatusIndication + 28
        0x00002882:    2100        .!      MOVS     r1,#0
        0x00002884:    4a81        .J      LDR      r2,[pc,#516] ; [0x2a8c] = 0x20000019
        0x00002886:    2c02        .,      CMP      r4,#2
        0x00002888:    d00c        ..      BEQ      0x28a4 ; PinStatusIndication + 42
        0x0000288a:    2c03        .,      CMP      r4,#3
        0x0000288c:    d012        ..      BEQ      0x28b4 ; PinStatusIndication + 58
        0x0000288e:    7011        .p      STRB     r1,[r2,#0]
        0x00002890:    a07f        ..      ADR      r0,{pc}+0x200 ; 0x2a90
        0x00002892:    f7ffffe6    ....    BL       PlayVoice ; 0x2862
        0x00002896:    2c01        .,      CMP      r4,#1
        0x00002898:    d103        ..      BNE      0x28a2 ; PinStatusIndication + 40
        0x0000289a:    a182        ..      ADR      r1,{pc}+0x20a ; 0x2aa4
        0x0000289c:    2078        x       MOVS     r0,#0x78
        0x0000289e:    f7ffffc7    ....    BL       DelayUntil ; 0x2830
        0x000028a2:    bd10        ..      POP      {r4,pc}
        0x000028a4:    7011        .p      STRB     r1,[r2,#0]
        0x000028a6:    a083        ..      ADR      r0,{pc}+0x20e ; 0x2ab4
        0x000028a8:    f7ffffdb    ....    BL       PlayVoice ; 0x2862
        0x000028ac:    a087        ..      ADR      r0,{pc}+0x220 ; 0x2acc
        0x000028ae:    f7fffcb4    ....    BL       debug ; 0x221a
        0x000028b2:    e7f0        ..      B        0x2896 ; PinStatusIndication + 28
        0x000028b4:    7011        .p      STRB     r1,[r2,#0]
        0x000028b6:    a089        ..      ADR      r0,{pc}+0x226 ; 0x2adc
        0x000028b8:    f7ffffd3    ....    BL       PlayVoice ; 0x2862
        0x000028bc:    a08c        ..      ADR      r0,{pc}+0x234 ; 0x2af0
        0x000028be:    f7fffcac    ....    BL       debug ; 0x221a
        0x000028c2:    e7e8        ..      B        0x2896 ; PinStatusIndication + 28
    PinHandle
        0x000028c4:    b5f8        ..      PUSH     {r3-r7,lr}
        0x000028c6:    4607        .F      MOV      r7,r0
        0x000028c8:    2014        .       MOVS     r0,#0x14
        0x000028ca:    f7fffce6    ....    BL       delay_50ms ; 0x229a
        0x000028ce:    4e62        bN      LDR      r6,[pc,#392] ; [0x2a58] = 0x20000220
        0x000028d0:    2400        .$      MOVS     r4,#0
        0x000028d2:    3627        '6      ADDS     r6,r6,#0x27
        0x000028d4:    4d6d        mM      LDR      r5,[pc,#436] ; [0x2a8c] = 0x20000019
        0x000028d6:    003b        ;.      MOVS     r3,r7
        0x000028d8:    f004ff7d    ..}.    BL       __ARM_common_switch8 ; 0x77d6
    $d
        0x000028dc:    18041305    ....    DCD    402920197
        0x000028e0:    0026131f    ..&.    DCD    2495263
    $t
        0x000028e4:    495c        \I      LDR      r1,[pc,#368] ; [0x2a58] = 0x20000220
        0x000028e6:    2001        .       MOVS     r0,#1
        0x000028e8:    311d        .1      ADDS     r1,r1,#0x1d
        0x000028ea:    460c        .F      MOV      r4,r1
        0x000028ec:    f002fdf7    ....    BL       LockPinCode ; 0x54de
        0x000028f0:    2801        .(      CMP      r0,#1
        0x000028f2:    d103        ..      BNE      0x28fc ; PinHandle + 56
        0x000028f4:    4631        1F      MOV      r1,r6
        0x000028f6:    4620         F      MOV      r0,r4
        0x000028f8:    f002fdb9    ....    BL       ChgPinCode ; 0x546e
        0x000028fc:    f7ffffbd    ....    BL       PinStatusIndication ; 0x287a
        0x00002900:    e012        ..      B        0x2928 ; PinHandle + 100
        0x00002902:    4638        8F      MOV      r0,r7
        0x00002904:    f7ffffb9    ....    BL       PinStatusIndication ; 0x287a
        0x00002908:    702c        ,p      STRB     r4,[r5,#0]
        0x0000290a:    e00d        ..      B        0x2928 ; PinHandle + 100
        0x0000290c:    2100        .!      MOVS     r1,#0
        0x0000290e:    4630        0F      MOV      r0,r6
        0x00002910:    f002fe20    .. .    BL       ActiveSimLock ; 0x5554
        0x00002914:    f7ffffb1    ....    BL       PinStatusIndication ; 0x287a
        0x00002918:    e006        ..      B        0x2928 ; PinHandle + 100
        0x0000291a:    a078        x.      ADR      r0,{pc}+0x1e2 ; 0x2afc
        0x0000291c:    f7fffc7d    ..}.    BL       debug ; 0x221a
        0x00002920:    2003        .       MOVS     r0,#3
        0x00002922:    f7ffffaa    ....    BL       PinStatusIndication ; 0x287a
        0x00002926:    702c        ,p      STRB     r4,[r5,#0]
        0x00002928:    2001        .       MOVS     r0,#1
        0x0000292a:    bdf8        ..      POP      {r3-r7,pc}
    PhoneInit
        0x0000292c:    b510        ..      PUSH     {r4,lr}
        0x0000292e:    f002f8ef    ....    BL       module_Init ; 0x4b10
        0x00002932:    f002fa62    ..b.    BL       GetSimPinStatus ; 0x4dfa
        0x00002936:    4604        .F      MOV      r4,r0
        0x00002938:    f001ff8e    ....    BL       ResetUartFlag ; 0x4858
        0x0000293c:    4620         F      MOV      r0,r4
        0x0000293e:    f7ffffc1    ....    BL       PinHandle ; 0x28c4
        0x00002942:    f002f90c    ....    BL       ModemNetworkInit ; 0x4b5e
        0x00002946:    f002fae0    ....    BL       GpsStop ; 0x4f0a
        0x0000294a:    f002f96f    ..o.    BL       ModemAudioInit ; 0x4c2c
        0x0000294e:    bd10        ..      POP      {r4,pc}
    BatteryIndicate
        0x00002950:    4941        AI      LDR      r1,[pc,#260] ; [0x2a58] = 0x20000220
        0x00002952:    3920         9      SUBS     r1,r1,#0x20
        0x00002954:    8b8a        ..      LDRH     r2,[r1,#0x1c]
        0x00002956:    4282        .B      CMP      r2,r0
        0x00002958:    d901        ..      BLS      0x295e ; BatteryIndicate + 14
        0x0000295a:    a06b        k.      ADR      r0,{pc}+0x1ae ; 0x2b08
        0x0000295c:    e781        ..      B        PlayVoice ; 0x2862
        0x0000295e:    8b49        I.      LDRH     r1,[r1,#0x1a]
        0x00002960:    4281        .B      CMP      r1,r0
        0x00002962:    d901        ..      BLS      0x2968 ; BatteryIndicate + 24
        0x00002964:    a06e        n.      ADR      r0,{pc}+0x1bc ; 0x2b20
        0x00002966:    e77c        |.      B        PlayVoice ; 0x2862
        0x00002968:    a072        r.      ADR      r0,{pc}+0x1cc ; 0x2b34
        0x0000296a:    e77a        z.      B        PlayVoice ; 0x2862
    PlayMusic
        0x0000296c:    b510        ..      PUSH     {r4,lr}
        0x0000296e:    4604        .F      MOV      r4,r0
        0x00002970:    2c06        .,      CMP      r4,#6
        0x00002972:    d20b        ..      BCS      0x298c ; PlayMusic + 32
        0x00002974:    a041        A.      ADR      r0,{pc}+0x108 ; 0x2a7c
        0x00002976:    f001ffaf    ....    BL       SendAtCommand ; 0x48d8
        0x0000297a:    492f        /I      LDR      r1,[pc,#188] ; [0x2a38] = 0x2000004c
        0x0000297c:    00a0        ..      LSLS     r0,r4,#2
        0x0000297e:    3118        .1      ADDS     r1,r1,#0x18
        0x00002980:    5808        .X      LDR      r0,[r1,r0]
        0x00002982:    f001ffa9    ....    BL       SendAtCommand ; 0x48d8
        0x00002986:    2032        2       MOVS     r0,#0x32
        0x00002988:    f002f858    ..X.    BL       module_WaitResponse ; 0x4a3c
        0x0000298c:    bd10        ..      POP      {r4,pc}
    EnterPowerDown
        0x0000298e:    b510        ..      PUSH     {r4,lr}
        0x00002990:    4c2e        .L      LDR      r4,[pc,#184] ; [0x2a4c] = 0x2000001a
        0x00002992:    7820         x      LDRB     r0,[r4,#0]
        0x00002994:    280e        .(      CMP      r0,#0xe
        0x00002996:    d014        ..      BEQ      0x29c2 ; EnterPowerDown + 52
        0x00002998:    2000        .       MOVS     r0,#0
        0x0000299a:    f7fffea7    ....    BL       ModemSleep ; 0x26ec
        0x0000299e:    2014        .       MOVS     r0,#0x14
        0x000029a0:    f7fffc7b    ..{.    BL       delay_50ms ; 0x229a
        0x000029a4:    2005        .       MOVS     r0,#5
        0x000029a6:    f7ffffe1    ....    BL       PlayMusic ; 0x296c
        0x000029aa:    4967        gI      LDR      r1,[pc,#412] ; [0x2b48] = 0x20000022
        0x000029ac:    203c        <       MOVS     r0,#0x3c
        0x000029ae:    8008        ..      STRH     r0,[r1,#0]
        0x000029b0:    200e        .       MOVS     r0,#0xe
        0x000029b2:    7020         p      STRB     r0,[r4,#0]
        0x000029b4:    4865        eH      LDR      r0,[pc,#404] ; [0x2b4c] = 0x20000010
        0x000029b6:    7800        .x      LDRB     r0,[r0,#0]
        0x000029b8:    2800        .(      CMP      r0,#0
        0x000029ba:    d002        ..      BEQ      0x29c2 ; EnterPowerDown + 52
        0x000029bc:    2001        .       MOVS     r0,#1
        0x000029be:    f7fef85b    ..[.    BL       LogOnOff ; 0xa78
        0x000029c2:    bd10        ..      POP      {r4,pc}
    CsqPlay
        0x000029c4:    2806        .(      CMP      r0,#6
        0x000029c6:    d204        ..      BCS      0x29d2 ; CsqPlay + 14
        0x000029c8:    491b        .I      LDR      r1,[pc,#108] ; [0x2a38] = 0x2000004c
        0x000029ca:    0080        ..      LSLS     r0,r0,#2
        0x000029cc:    3170        p1      ADDS     r1,r1,#0x70
        0x000029ce:    5808        .X      LDR      r0,[r1,r0]
        0x000029d0:    e747        G.      B        PlayVoice ; 0x2862
        0x000029d2:    4770        pG      BX       lr
    GetString
        0x000029d4:    b5ff        ..      PUSH     {r0-r7,lr}
        0x000029d6:    b081        ..      SUB      sp,sp,#4
        0x000029d8:    9e0a        ..      LDR      r6,[sp,#0x28]
        0x000029da:    460f        .F      MOV      r7,r1
        0x000029dc:    461d        .F      MOV      r5,r3
        0x000029de:    4639        9F      MOV      r1,r7
        0x000029e0:    f003fcc6    ....    BL       strstr ; 0x6370
        0x000029e4:    4604        .F      MOV      r4,r0
        0x000029e6:    2c00        .,      CMP      r4,#0
        0x000029e8:    d018        ..      BEQ      0x2a1c ; GetString + 72
        0x000029ea:    4638        8F      MOV      r0,r7
        0x000029ec:    f003fcfa    ....    BL       strlen ; 0x63e4
        0x000029f0:    1907        ..      ADDS     r7,r0,r4
        0x000029f2:    4638        8F      MOV      r0,r7
        0x000029f4:    9903        ..      LDR      r1,[sp,#0xc]
        0x000029f6:    f003fcbb    ....    BL       strstr ; 0x6370
        0x000029fa:    4604        .F      MOV      r4,r0
        0x000029fc:    2c00        .,      CMP      r4,#0
        0x000029fe:    d00d        ..      BEQ      0x2a1c ; GetString + 72
        0x00002a00:    1be0        ..      SUBS     r0,r4,r7
        0x00002a02:    42b0        .B      CMP      r0,r6
        0x00002a04:    dc0a        ..      BGT      0x2a1c ; GetString + 72
        0x00002a06:    b2c6        ..      UXTB     r6,r0
        0x00002a08:    4632        2F      MOV      r2,r6
        0x00002a0a:    4639        9F      MOV      r1,r7
        0x00002a0c:    4628        (F      MOV      r0,r5
        0x00002a0e:    f003fd67    ..g.    BL       __aeabi_memcpy ; 0x64e0
        0x00002a12:    2000        .       MOVS     r0,#0
        0x00002a14:    55a8        .U      STRB     r0,[r5,r6]
        0x00002a16:    4620         F      MOV      r0,r4
        0x00002a18:    b005        ..      ADD      sp,sp,#0x14
        0x00002a1a:    e5d5        ..      B        0x25c8 ; UartInit + 110
        0x00002a1c:    e098        ..      B        0x2b50 ; GetString + 380
    $d
        0x00002a1e:    0000        ..      DCW    0
        0x00002a20:    e000e180    ....    DCD    3758154112
        0x00002a24:    50004040    @@.P    DCD    1342193728
        0x00002a28:    400e0000    ...@    DCD    1074659328
        0x00002a2c:    50004240    @B.P    DCD    1342194240
        0x00002a30:    65656c73    slee    DCD    1701145715
        0x00002a34:    00000070    p...    DCD    112
        0x00002a38:    2000004c    L..     DCD    536870988
        0x00002a3c:    2000003b    ;..     DCD    536870971
        0x00002a40:    20000034    4..     DCD    536870964
        0x00002a44:    20000017    ...     DCD    536870935
        0x00002a48:    20000043    C..     DCD    536870979
        0x00002a4c:    2000001a    ...     DCD    536870938
        0x00002a50:    39322e30    0.29    DCD    959589936
        0x00002a54:    00000000    ....    DCD    0
        0x00002a58:    20000220     ..     DCD    536871456
        0x00002a5c:    74736574    test    DCD    1953719668
        0x00002a60:    646f6d20     mod    DCD    1685024032
        0x00002a64:    00000065    e...    DCD    101
        0x00002a68:    20000032    2..     DCD    536870962
        0x00002a6c:    20000045    E..     DCD    536870981
        0x00002a70:    2000003d    =..     DCD    536870973
        0x00002a74:    20000018    ...     DCD    536870936
        0x00002a78:    2000025c    \..     DCD    536871516
        0x00002a7c:    432b5441    AT+C    DCD    1126913089
        0x00002a80:    50584d43    CMXP    DCD    1347964227
        0x00002a84:    5759414c    LAYW    DCD    1465467212
        0x00002a88:    003d5641    AV=.    DCD    4019777
        0x00002a8c:    20000019    ...     DCD    536870937
        0x00002a90:    536f6e22    "noS    DCD    1399811618
        0x00002a94:    61436d69    imCa    DCD    1631808873
        0x00002a98:    772e6472    rd.w    DCD    1999529074
        0x00002a9c:    2c227661    av",    DCD    740456033
        0x00002aa0:    00000d32    2...    DCD    3378
        0x00002aa4:    4950432b    +CPI    DCD    1229996843
        0x00002aa8:    52203a4e    N: R    DCD    1377843790
        0x00002aac:    59444145    EADY    DCD    1497645381
        0x00002ab0:    00000000    ....    DCD    0
        0x00002ab4:    6e697022    "pin    DCD    1852403746
        0x00002ab8:    65646f43    Code    DCD    1701080899
        0x00002abc:    72577349    IsWr    DCD    1918333769
        0x00002ac0:    2e676e6f    ong.    DCD    778530415
        0x00002ac4:    22766177    wav"    DCD    578183543
        0x00002ac8:    000d322c    ,2..    DCD    864812
        0x00002acc:    206e6970    pin     DCD    544106864
        0x00002ad0:    65646f63    code    DCD    1701080931
        0x00002ad4:    72726520     err    DCD    1920099616
        0x00002ad8:    00000000    ....    DCD    0
        0x00002adc:    65656e22    "nee    DCD    1701146146
        0x00002ae0:    6b755064    dPuk    DCD    1802850404
        0x00002ae4:    7661772e    .wav    DCD    1986098990
        0x00002ae8:    0d322c22    ",2.    DCD    221391906
        0x00002aec:    00000000    ....    DCD    0
        0x00002af0:    6465656e    need    DCD    1684366702
        0x00002af4:    6b757020     puk    DCD    1802858528
        0x00002af8:    00002120     !..    DCD    8480
        0x00002afc:    206d6973    sim     DCD    544041331
        0x00002b00:    6b636f6c    lock    DCD    1801678700
        0x00002b04:    00006465    ed..    DCD    25701
        0x00002b08:    70657222    "rep    DCD    1885696546
        0x00002b0c:    6563616c    lace    DCD    1701011820
        0x00002b10:    74746142    Batt    DCD    1953784130
        0x00002b14:    2e797265    ery.    DCD    779711077
        0x00002b18:    22766177    wav"    DCD    578183543
        0x00002b1c:    000d322c    ,2..    DCD    864812
        0x00002b20:    74616222    "bat    DCD    1952539170
        0x00002b24:    79726574    tery    DCD    2037540212
        0x00002b28:    2e776f4c    Low.    DCD    779579212
        0x00002b2c:    22766177    wav"    DCD    578183543
        0x00002b30:    000d322c    ,2..    DCD    864812
        0x00002b34:    74616222    "bat    DCD    1952539170
        0x00002b38:    79726574    tery    DCD    2037540212
        0x00002b3c:    772e4b4f    OK.w    DCD    1999522639
        0x00002b40:    2c227661    av",    DCD    740456033
        0x00002b44:    00000d32    2...    DCD    3378
        0x00002b48:    20000022    "..     DCD    536870946
        0x00002b4c:    20000010    ...     DCD    536870928
    $t
        0x00002b50:    2000        .       MOVS     r0,#0
        0x00002b52:    e761        a.      B        0x2a18 ; GetString + 68
    IsUnder3G
        0x00002b54:    b51c        ..      PUSH     {r2-r4,lr}
        0x00002b56:    a1fb        ..      ADR      r1,{pc}+0x3ee ; 0x2f44
        0x00002b58:    a0fd        ..      ADR      r0,{pc}+0x3f8 ; 0x2f50
        0x00002b5a:    f001ff08    ....    BL       SendAtCmdRsq ; 0x496e
        0x00002b5e:    2801        .(      CMP      r0,#1
        0x00002b60:    d117        ..      BNE      0x2b92 ; IsUnder3G + 62
        0x00002b62:    2002        .       MOVS     r0,#2
        0x00002b64:    9000        ..      STR      r0,[sp,#0]
        0x00002b66:    49ff        .I      LDR      r1,[pc,#1020] ; [0x2f64] = 0x20000048
        0x00002b68:    48fd        .H      LDR      r0,[pc,#1012] ; [0x2f60] = 0x2000025c
        0x00002b6a:    8809        ..      LDRH     r1,[r1,#0]
        0x00002b6c:    ab01        ..      ADD      r3,sp,#4
        0x00002b6e:    1840        @.      ADDS     r0,r0,r1
        0x00002b70:    a2fd        ..      ADR      r2,{pc}+0x3f8 ; 0x2f68
        0x00002b72:    a1fe        ..      ADR      r1,{pc}+0x3fa ; 0x2f6c
        0x00002b74:    f7ffff2e    ....    BL       GetString ; 0x29d4
        0x00002b78:    2800        .(      CMP      r0,#0
        0x00002b7a:    d00a        ..      BEQ      0x2b92 ; IsUnder3G + 62
        0x00002b7c:    a801        ..      ADD      r0,sp,#4
        0x00002b7e:    f7fffb4c    ..L.    BL       debug ; 0x221a
        0x00002b82:    4668        hF      MOV      r0,sp
        0x00002b84:    7900        .y      LDRB     r0,[r0,#4]
        0x00002b86:    2834        4(      CMP      r0,#0x34
        0x00002b88:    d901        ..      BLS      0x2b8e ; IsUnder3G + 58
        0x00002b8a:    2001        .       MOVS     r0,#1
        0x00002b8c:    bd1c        ..      POP      {r2-r4,pc}
        0x00002b8e:    2000        .       MOVS     r0,#0
        0x00002b90:    bd1c        ..      POP      {r2-r4,pc}
        0x00002b92:    2001        .       MOVS     r0,#1
        0x00002b94:    bd1c        ..      POP      {r2-r4,pc}
    GetGsmSigal
        0x00002b96:    b570        p.      PUSH     {r4-r6,lr}
        0x00002b98:    f002f98f    ....    BL       signal_quality ; 0x4eba
        0x00002b9c:    4604        .F      MOV      r4,r0
        0x00002b9e:    2500        .%      MOVS     r5,#0
        0x00002ba0:    f7ffffd8    ....    BL       IsUnder3G ; 0x2b54
        0x00002ba4:    2800        .(      CMP      r0,#0
        0x00002ba6:    d015        ..      BEQ      0x2bd4 ; GetGsmSigal + 62
        0x00002ba8:    2c63        c,      CMP      r4,#0x63
        0x00002baa:    d028        (.      BEQ      0x2bfe ; GetGsmSigal + 104
        0x00002bac:    2c02        .,      CMP      r4,#2
        0x00002bae:    d326        &.      BCC      0x2bfe ; GetGsmSigal + 104
        0x00002bb0:    2c11        .,      CMP      r4,#0x11
        0x00002bb2:    d301        ..      BCC      0x2bb8 ; GetGsmSigal + 34
        0x00002bb4:    2505        .%      MOVS     r5,#5
        0x00002bb6:    e022        ".      B        0x2bfe ; GetGsmSigal + 104
        0x00002bb8:    2c0c        .,      CMP      r4,#0xc
        0x00002bba:    d301        ..      BCC      0x2bc0 ; GetGsmSigal + 42
        0x00002bbc:    2504        .%      MOVS     r5,#4
        0x00002bbe:    e01e        ..      B        0x2bfe ; GetGsmSigal + 104
        0x00002bc0:    2c07        .,      CMP      r4,#7
        0x00002bc2:    d301        ..      BCC      0x2bc8 ; GetGsmSigal + 50
        0x00002bc4:    2503        .%      MOVS     r5,#3
        0x00002bc6:    e01a        ..      B        0x2bfe ; GetGsmSigal + 104
        0x00002bc8:    2c04        .,      CMP      r4,#4
        0x00002bca:    d301        ..      BCC      0x2bd0 ; GetGsmSigal + 58
        0x00002bcc:    2502        .%      MOVS     r5,#2
        0x00002bce:    e016        ..      B        0x2bfe ; GetGsmSigal + 104
        0x00002bd0:    2501        .%      MOVS     r5,#1
        0x00002bd2:    e014        ..      B        0x2bfe ; GetGsmSigal + 104
        0x00002bd4:    2c63        c,      CMP      r4,#0x63
        0x00002bd6:    d012        ..      BEQ      0x2bfe ; GetGsmSigal + 104
        0x00002bd8:    2c02        .,      CMP      r4,#2
        0x00002bda:    d310        ..      BCC      0x2bfe ; GetGsmSigal + 104
        0x00002bdc:    2c11        .,      CMP      r4,#0x11
        0x00002bde:    d301        ..      BCC      0x2be4 ; GetGsmSigal + 78
        0x00002be0:    2505        .%      MOVS     r5,#5
        0x00002be2:    e00c        ..      B        0x2bfe ; GetGsmSigal + 104
        0x00002be4:    2c0c        .,      CMP      r4,#0xc
        0x00002be6:    d301        ..      BCC      0x2bec ; GetGsmSigal + 86
        0x00002be8:    2504        .%      MOVS     r5,#4
        0x00002bea:    e008        ..      B        0x2bfe ; GetGsmSigal + 104
        0x00002bec:    2c08        .,      CMP      r4,#8
        0x00002bee:    d301        ..      BCC      0x2bf4 ; GetGsmSigal + 94
        0x00002bf0:    2503        .%      MOVS     r5,#3
        0x00002bf2:    e004        ..      B        0x2bfe ; GetGsmSigal + 104
        0x00002bf4:    2c05        .,      CMP      r4,#5
        0x00002bf6:    d301        ..      BCC      0x2bfc ; GetGsmSigal + 102
        0x00002bf8:    2502        .%      MOVS     r5,#2
        0x00002bfa:    e000        ..      B        0x2bfe ; GetGsmSigal + 104
        0x00002bfc:    2501        .%      MOVS     r5,#1
        0x00002bfe:    4628        (F      MOV      r0,r5
        0x00002c00:    bd70        p.      POP      {r4-r6,pc}
    Str2Speech
        0x00002c02:    b5f1        ..      PUSH     {r0,r4-r7,lr}
        0x00002c04:    b082        ..      SUB      sp,sp,#8
        0x00002c06:    9802        ..      LDR      r0,[sp,#8]
        0x00002c08:    f003fbec    ....    BL       strlen ; 0x63e4
        0x00002c0c:    b2c0        ..      UXTB     r0,r0
        0x00002c0e:    9001        ..      STR      r0,[sp,#4]
        0x00002c10:    2400        .$      MOVS     r4,#0
        0x00002c12:    4dd7        .M      LDR      r5,[pc,#860] ; [0x2f70] = 0x20000045
        0x00002c14:    e025        %.      B        0x2c62 ; Str2Speech + 96
        0x00002c16:    9802        ..      LDR      r0,[sp,#8]
        0x00002c18:    5d00        .]      LDRB     r0,[r0,r4]
        0x00002c1a:    282e        .(      CMP      r0,#0x2e
        0x00002c1c:    d00a        ..      BEQ      0x2c34 ; Str2Speech + 50
        0x00002c1e:    3830        08      SUBS     r0,r0,#0x30
        0x00002c20:    0081        ..      LSLS     r1,r0,#2
        0x00002c22:    48d4        .H      LDR      r0,[pc,#848] ; [0x2f74] = 0x2000007c
        0x00002c24:    5840        @X      LDR      r0,[r0,r1]
        0x00002c26:    f7fffe1c    ....    BL       PlayVoice ; 0x2862
        0x00002c2a:    2032        2       MOVS     r0,#0x32
        0x00002c2c:    7028        (p      STRB     r0,[r5,#0]
        0x00002c2e:    4ecc        .N      LDR      r6,[pc,#816] ; [0x2f60] = 0x2000025c
        0x00002c30:    4fcc        .O      LDR      r7,[pc,#816] ; [0x2f64] = 0x20000048
        0x00002c32:    e00d        ..      B        0x2c50 ; Str2Speech + 78
        0x00002c34:    48cf        .H      LDR      r0,[pc,#828] ; [0x2f74] = 0x2000007c
        0x00002c36:    6a80        .j      LDR      r0,[r0,#0x28]
        0x00002c38:    f7fffe13    ....    BL       PlayVoice ; 0x2862
        0x00002c3c:    e7f5        ..      B        0x2c2a ; Str2Speech + 40
        0x00002c3e:    8838        8.      LDRH     r0,[r7,#0]
        0x00002c40:    a1cd        ..      ADR      r1,{pc}+0x338 ; 0x2f78
        0x00002c42:    1830        0.      ADDS     r0,r6,r0
        0x00002c44:    f003fb94    ....    BL       strstr ; 0x6370
        0x00002c48:    2800        .(      CMP      r0,#0
        0x00002c4a:    d108        ..      BNE      0x2c5e ; Str2Speech + 92
        0x00002c4c:    f7fffad4    ....    BL       FeedWatchdog ; 0x21f8
        0x00002c50:    7828        (x      LDRB     r0,[r5,#0]
        0x00002c52:    2800        .(      CMP      r0,#0
        0x00002c54:    d003        ..      BEQ      0x2c5e ; Str2Speech + 92
        0x00002c56:    48ca        .H      LDR      r0,[pc,#808] ; [0x2f80] = 0x20000018
        0x00002c58:    7800        .x      LDRB     r0,[r0,#0]
        0x00002c5a:    2800        .(      CMP      r0,#0
        0x00002c5c:    d0ef        ..      BEQ      0x2c3e ; Str2Speech + 60
        0x00002c5e:    1c64        d.      ADDS     r4,r4,#1
        0x00002c60:    b2e4        ..      UXTB     r4,r4
        0x00002c62:    9801        ..      LDR      r0,[sp,#4]
        0x00002c64:    4284        .B      CMP      r4,r0
        0x00002c66:    d3d6        ..      BCC      0x2c16 ; Str2Speech + 20
        0x00002c68:    bdfe        ..      POP      {r1-r7,pc}
    BatteryVoltage
        0x00002c6a:    b510        ..      PUSH     {r4,lr}
        0x00002c6c:    460c        .F      MOV      r4,r1
        0x00002c6e:    210a        .!      MOVS     r1,#0xa
        0x00002c70:    4348        HC      MULS     r0,r1,r0
        0x00002c72:    213e        >!      MOVS     r1,#0x3e
        0x00002c74:    f003fcd4    ....    BL       __aeabi_uidiv ; 0x6620
        0x00002c78:    b280        ..      UXTH     r0,r0
        0x00002c7a:    2164        d!      MOVS     r1,#0x64
        0x00002c7c:    f003fcd0    ....    BL       __aeabi_uidiv ; 0x6620
        0x00002c80:    3030        00      ADDS     r0,r0,#0x30
        0x00002c82:    7020         p      STRB     r0,[r4,#0]
        0x00002c84:    202e        .       MOVS     r0,#0x2e
        0x00002c86:    7060        `p      STRB     r0,[r4,#1]
        0x00002c88:    4608        .F      MOV      r0,r1
        0x00002c8a:    210a        .!      MOVS     r1,#0xa
        0x00002c8c:    f003fcc8    ....    BL       __aeabi_uidiv ; 0x6620
        0x00002c90:    3030        00      ADDS     r0,r0,#0x30
        0x00002c92:    70a0        .p      STRB     r0,[r4,#2]
        0x00002c94:    3130        01      ADDS     r1,r1,#0x30
        0x00002c96:    70e1        .p      STRB     r1,[r4,#3]
        0x00002c98:    2000        .       MOVS     r0,#0
        0x00002c9a:    7120         q      STRB     r0,[r4,#4]
        0x00002c9c:    bd10        ..      POP      {r4,pc}
    enter_test_mode
        0x00002c9e:    b51c        ..      PUSH     {r2-r4,lr}
        0x00002ca0:    0003        ..      MOVS     r3,r0
        0x00002ca2:    f004fd98    ....    BL       __ARM_common_switch8 ; 0x77d6
    $d
        0x00002ca6:    5706        .W      DCW    22278
        0x00002ca8:    33273804    .8'3    DCD    858208260
        0x00002cac:    571e        .W      DCW    22302
    $t
        0x00002cae:    49b4        .I      LDR      r1,[pc,#720] ; [0x2f80] = 0x20000018
        0x00002cb0:    2000        .       MOVS     r0,#0
        0x00002cb2:    7008        .p      STRB     r0,[r1,#0]
        0x00002cb4:    49b3        .I      LDR      r1,[pc,#716] ; [0x2f84] = 0x2000002a
        0x00002cb6:    7008        .p      STRB     r0,[r1,#0]
        0x00002cb8:    49b3        .I      LDR      r1,[pc,#716] ; [0x2f88] = 0x2000001b
        0x00002cba:    7008        .p      STRB     r0,[r1,#0]
        0x00002cbc:    49b3        .I      LDR      r1,[pc,#716] ; [0x2f8c] = 0x2000001a
        0x00002cbe:    2001        .       MOVS     r0,#1
        0x00002cc0:    7008        .p      STRB     r0,[r1,#0]
        0x00002cc2:    2028        (       MOVS     r0,#0x28
        0x00002cc4:    f7fffae9    ....    BL       delay_50ms ; 0x229a
        0x00002cc8:    a0b1        ..      ADR      r0,{pc}+0x2c8 ; 0x2f90
        0x00002cca:    f7fffdca    ....    BL       PlayVoice ; 0x2862
        0x00002cce:    f7fffe2d    ..-.    BL       PhoneInit ; 0x292c
        0x00002cd2:    48b4        .H      LDR      r0,[pc,#720] ; [0x2fa4] = 0x2a50
        0x00002cd4:    f7ffff95    ....    BL       Str2Speech ; 0x2c02
        0x00002cd8:    f7fff838    ..8.    BL       GetKeyBatt ; 0x1d4c
        0x00002cdc:    f7fff828    ..(.    BL       GetKeyHelp ; 0x1d30
        0x00002ce0:    bd1c        ..      POP      {r2-r4,pc}
        0x00002ce2:    49b1        .I      LDR      r1,[pc,#708] ; [0x2fa8] = 0x20000039
        0x00002ce4:    2002        .       MOVS     r0,#2
        0x00002ce6:    7008        .p      STRB     r0,[r1,#0]
        0x00002ce8:    a0b0        ..      ADR      r0,{pc}+0x2c4 ; 0x2fac
        0x00002cea:    f7fffdba    ....    BL       PlayVoice ; 0x2862
        0x00002cee:    f002f94a    ..J.    BL       SockOpen ; 0x4f86
        0x00002cf2:    bd1c        ..      POP      {r2-r4,pc}
        0x00002cf4:    2004        .       MOVS     r0,#4
        0x00002cf6:    f7fffd7b    ..{.    BL       MeasurePower ; 0x27f0
        0x00002cfa:    48b1        .H      LDR      r0,[pc,#708] ; [0x2fc0] = 0x20000032
        0x00002cfc:    4669        iF      MOV      r1,sp
        0x00002cfe:    8800        ..      LDRH     r0,[r0,#0]
        0x00002d00:    f7ffffb3    ....    BL       BatteryVoltage ; 0x2c6a
        0x00002d04:    4668        hF      MOV      r0,sp
        0x00002d06:    f7ffff7c    ..|.    BL       Str2Speech ; 0x2c02
        0x00002d0a:    bd1c        ..      POP      {r2-r4,pc}
        0x00002d0c:    f7ffff43    ..C.    BL       GetGsmSigal ; 0x2b96
        0x00002d10:    f7fffe58    ..X.    BL       CsqPlay ; 0x29c4
        0x00002d14:    bd1c        ..      POP      {r2-r4,pc}
        0x00002d16:    a0ab        ..      ADR      r0,{pc}+0x2ae ; 0x2fc4
        0x00002d18:    f7fffda3    ....    BL       PlayVoice ; 0x2862
        0x00002d1c:    2028        (       MOVS     r0,#0x28
        0x00002d1e:    f7fffabc    ....    BL       delay_50ms ; 0x229a
        0x00002d22:    a3ad        ..      ADR      r3,{pc}+0x2b6 ; 0x2fd8
        0x00002d24:    2200        ."      MOVS     r2,#0
        0x00002d26:    2106        .!      MOVS     r1,#6
        0x00002d28:    2032        2       MOVS     r0,#0x32
        0x00002d2a:    f001fe9f    ....    BL       SendAtWaitRsq ; 0x4a6c
        0x00002d2e:    2028        (       MOVS     r0,#0x28
        0x00002d30:    f7fffab3    ....    BL       delay_50ms ; 0x229a
        0x00002d34:    a3b7        ..      ADR      r3,{pc}+0x2e0 ; 0x3014
        0x00002d36:    2200        ."      MOVS     r2,#0
        0x00002d38:    2106        .!      MOVS     r1,#6
        0x00002d3a:    2032        2       MOVS     r0,#0x32
        0x00002d3c:    f001fe96    ....    BL       SendAtWaitRsq ; 0x4a6c
        0x00002d40:    2028        (       MOVS     r0,#0x28
        0x00002d42:    f7fffaaa    ....    BL       delay_50ms ; 0x229a
        0x00002d46:    a3bb        ..      ADR      r3,{pc}+0x2ee ; 0x3034
        0x00002d48:    2200        ."      MOVS     r2,#0
        0x00002d4a:    2106        .!      MOVS     r1,#6
        0x00002d4c:    2050        P       MOVS     r0,#0x50
        0x00002d4e:    f001fe8d    ....    BL       SendAtWaitRsq ; 0x4a6c
        0x00002d52:    bd1c        ..      POP      {r2-r4,pc}
        0x00002d54:    a3bc        ..      ADR      r3,{pc}+0x2f4 ; 0x3048
        0x00002d56:    2200        ."      MOVS     r2,#0
        0x00002d58:    2106        .!      MOVS     r1,#6
        0x00002d5a:    2032        2       MOVS     r0,#0x32
        0x00002d5c:    f001fe86    ....    BL       SendAtWaitRsq ; 0x4a6c
        0x00002d60:    2028        (       MOVS     r0,#0x28
        0x00002d62:    f7fffa9a    ....    BL       delay_50ms ; 0x229a
        0x00002d66:    f001ff61    ..a.    BL       ModemAudioInit ; 0x4c2c
        0x00002d6a:    f7fffe10    ....    BL       EnterPowerDown ; 0x298e
        0x00002d6e:    bd1c        ..      POP      {r2-r4,pc}
    PowerOn
        0x00002d70:    b5f8        ..      PUSH     {r3-r7,lr}
        0x00002d72:    4893        .H      LDR      r0,[pc,#588] ; [0x2fc0] = 0x20000032
        0x00002d74:    8804        ..      LDRH     r4,[r0,#0]
        0x00002d76:    2200        ."      MOVS     r2,#0
        0x00002d78:    8002        ..      STRH     r2,[r0,#0]
        0x00002d7a:    4e84        .N      LDR      r6,[pc,#528] ; [0x2f8c] = 0x2000001a
        0x00002d7c:    2501        .%      MOVS     r5,#1
        0x00002d7e:    7830        0x      LDRB     r0,[r6,#0]
        0x00002d80:    2801        .(      CMP      r0,#1
        0x00002d82:    d00f        ..      BEQ      0x2da4 ; PowerOn + 52
        0x00002d84:    48b5        .H      LDR      r0,[pc,#724] ; [0x305c] = 0x20000017
        0x00002d86:    4fb6        .O      LDR      r7,[pc,#728] ; [0x3060] = 0x20000022
        0x00002d88:    7800        .x      LDRB     r0,[r0,#0]
        0x00002d8a:    2800        .(      CMP      r0,#0
        0x00002d8c:    d012        ..      BEQ      0x2db4 ; PowerOn + 68
        0x00002d8e:    2028        (       MOVS     r0,#0x28
        0x00002d90:    f7fffa83    ....    BL       delay_50ms ; 0x229a
        0x00002d94:    4620         F      MOV      r0,r4
        0x00002d96:    f7fffddb    ....    BL       BatteryIndicate ; 0x2950
        0x00002d9a:    20c8        .       MOVS     r0,#0xc8
        0x00002d9c:    8038        8.      STRH     r0,[r7,#0]
        0x00002d9e:    2002        .       MOVS     r0,#2
        0x00002da0:    7030        0p      STRB     r0,[r6,#0]
        0x00002da2:    bdf8        ..      POP      {r3-r7,pc}
        0x00002da4:    49af        .I      LDR      r1,[pc,#700] ; [0x3064] = 0x2000001d
        0x00002da6:    4628        (F      MOV      r0,r5
        0x00002da8:    700d        .p      STRB     r5,[r1,#0]
        0x00002daa:    497f        .I      LDR      r1,[pc,#508] ; [0x2fa8] = 0x20000039
        0x00002dac:    700a        .p      STRB     r2,[r1,#0]
        0x00002dae:    f7ffff76    ..v.    BL       enter_test_mode ; 0x2c9e
        0x00002db2:    bdf8        ..      POP      {r3-r7,pc}
        0x00002db4:    48ac        .H      LDR      r0,[pc,#688] ; [0x3068] = 0x20000220
        0x00002db6:    8800        ..      LDRH     r0,[r0,#0]
        0x00002db8:    42a0        .B      CMP      r0,r4
        0x00002dba:    d90f        ..      BLS      0x2ddc ; PowerOn + 108
        0x00002dbc:    4879        yH      LDR      r0,[pc,#484] ; [0x2fa4] = 0x2a50
        0x00002dbe:    30d0        .0      ADDS     r0,r0,#0xd0
        0x00002dc0:    f7fffd4f    ..O.    BL       PlayVoice ; 0x2862
        0x00002dc4:    2028        (       MOVS     r0,#0x28
        0x00002dc6:    f7fffa68    ..h.    BL       delay_50ms ; 0x229a
        0x00002dca:    4876        vH      LDR      r0,[pc,#472] ; [0x2fa4] = 0x2a50
        0x00002dcc:    30b8        .0      ADDS     r0,r0,#0xb8
        0x00002dce:    f7fffd48    ..H.    BL       PlayVoice ; 0x2862
        0x00002dd2:    486b        kH      LDR      r0,[pc,#428] ; [0x2f80] = 0x20000018
        0x00002dd4:    7005        .p      STRB     r5,[r0,#0]
        0x00002dd6:    2064        d       MOVS     r0,#0x64
        0x00002dd8:    8038        8.      STRH     r0,[r7,#0]
        0x00002dda:    bdf8        ..      POP      {r3-r7,pc}
        0x00002ddc:    48a2        .H      LDR      r0,[pc,#648] ; [0x3068] = 0x20000220
        0x00002dde:    3820         8      SUBS     r0,r0,#0x20
        0x00002de0:    8b81        ..      LDRH     r1,[r0,#0x1c]
        0x00002de2:    42a1        .B      CMP      r1,r4
        0x00002de4:    d909        ..      BLS      0x2dfa ; PowerOn + 138
        0x00002de6:    486f        oH      LDR      r0,[pc,#444] ; [0x2fa4] = 0x2a50
        0x00002de8:    30b8        .0      ADDS     r0,r0,#0xb8
        0x00002dea:    f7fffd3a    ..:.    BL       PlayVoice ; 0x2862
        0x00002dee:    2028        (       MOVS     r0,#0x28
        0x00002df0:    f7fffa53    ..S.    BL       delay_50ms ; 0x229a
        0x00002df4:    489d        .H      LDR      r0,[pc,#628] ; [0x306c] = 0x2000002f
        0x00002df6:    7005        .p      STRB     r5,[r0,#0]
        0x00002df8:    bdf8        ..      POP      {r3-r7,pc}
        0x00002dfa:    8b40        @.      LDRH     r0,[r0,#0x1a]
        0x00002dfc:    42a0        .B      CMP      r0,r4
        0x00002dfe:    d906        ..      BLS      0x2e0e ; PowerOn + 158
        0x00002e00:    4868        hH      LDR      r0,[pc,#416] ; [0x2fa4] = 0x2a50
        0x00002e02:    30d0        .0      ADDS     r0,r0,#0xd0
        0x00002e04:    f7fffd2d    ..-.    BL       PlayVoice ; 0x2862
        0x00002e08:    2028        (       MOVS     r0,#0x28
        0x00002e0a:    f7fffa46    ..F.    BL       delay_50ms ; 0x229a
        0x00002e0e:    a098        ..      ADR      r0,{pc}+0x262 ; 0x3070
        0x00002e10:    f7fffd27    ..'.    BL       PlayVoice ; 0x2862
        0x00002e14:    4899        .H      LDR      r0,[pc,#612] ; [0x307c] = 0x2000002c
        0x00002e16:    7005        .p      STRB     r5,[r0,#0]
        0x00002e18:    f7fffd88    ....    BL       PhoneInit ; 0x292c
        0x00002e1c:    4898        .H      LDR      r0,[pc,#608] ; [0x3080] = 0x20000019
        0x00002e1e:    7800        .x      LDRB     r0,[r0,#0]
        0x00002e20:    2800        .(      CMP      r0,#0
        0x00002e22:    d001        ..      BEQ      0x2e28 ; PowerOn + 184
        0x00002e24:    f002fddd    ....    BL       UdpPacketInit ; 0x59e2
        0x00002e28:    a396        ..      ADR      r3,{pc}+0x25c ; 0x3084
        0x00002e2a:    2200        ."      MOVS     r2,#0
        0x00002e2c:    2106        .!      MOVS     r1,#6
        0x00002e2e:    2064        d       MOVS     r0,#0x64
        0x00002e30:    f001fe1c    ....    BL       SendAtWaitRsq ; 0x4a6c
        0x00002e34:    bdf8        ..      POP      {r3-r7,pc}
    LowValtageWarnning
        0x00002e36:    b5f8        ..      PUSH     {r3-r7,lr}
        0x00002e38:    4b4e        NK      LDR      r3,[pc,#312] ; [0x2f74] = 0x2000007c
        0x00002e3a:    4d8b        .M      LDR      r5,[pc,#556] ; [0x3068] = 0x20000220
        0x00002e3c:    3b30        0;      SUBS     r3,r3,#0x30
        0x00002e3e:    7a59        Yz      LDRB     r1,[r3,#9]
        0x00002e40:    3d20         =      SUBS     r5,r5,#0x20
        0x00002e42:    1c49        I.      ADDS     r1,r1,#1
        0x00002e44:    b2ca        ..      UXTB     r2,r1
        0x00002e46:    4951        QI      LDR      r1,[pc,#324] ; [0x2f8c] = 0x2000001a
        0x00002e48:    8bae        ..      LDRH     r6,[r5,#0x1c]
        0x00002e4a:    2701        .'      MOVS     r7,#1
        0x00002e4c:    2400        .$      MOVS     r4,#0
        0x00002e4e:    7809        .x      LDRB     r1,[r1,#0]
        0x00002e50:    4286        .B      CMP      r6,r0
        0x00002e52:    d916        ..      BLS      0x2e82 ; LowValtageWarnning + 76
        0x00002e54:    725a        Zr      STRB     r2,[r3,#9]
        0x00002e56:    7a98        .z      LDRB     r0,[r3,#0xa]
        0x00002e58:    1c40        @.      ADDS     r0,r0,#1
        0x00002e5a:    b2c0        ..      UXTB     r0,r0
        0x00002e5c:    7298        .r      STRB     r0,[r3,#0xa]
        0x00002e5e:    2901        .)      CMP      r1,#1
        0x00002e60:    d00e        ..      BEQ      0x2e80 ; LowValtageWarnning + 74
        0x00002e62:    2803        .(      CMP      r0,#3
        0x00002e64:    d90c        ..      BLS      0x2e80 ; LowValtageWarnning + 74
        0x00002e66:    290d        .)      CMP      r1,#0xd
        0x00002e68:    d20a        ..      BCS      0x2e80 ; LowValtageWarnning + 74
        0x00002e6a:    484e        NH      LDR      r0,[pc,#312] ; [0x2fa4] = 0x2a50
        0x00002e6c:    30b8        .0      ADDS     r0,r0,#0xb8
        0x00002e6e:    f7fffcf8    ....    BL       PlayVoice ; 0x2862
        0x00002e72:    4886        .H      LDR      r0,[pc,#536] ; [0x308c] = 0x20000024
        0x00002e74:    8004        ..      STRH     r4,[r0,#0]
        0x00002e76:    4842        BH      LDR      r0,[pc,#264] ; [0x2f80] = 0x20000018
        0x00002e78:    7007        .p      STRB     r7,[r0,#0]
        0x00002e7a:    4985        .I      LDR      r1,[pc,#532] ; [0x3090] = 0x2000003a
        0x00002e7c:    2050        P       MOVS     r0,#0x50
        0x00002e7e:    7008        .p      STRB     r0,[r1,#0]
        0x00002e80:    bdf8        ..      POP      {r3-r7,pc}
        0x00002e82:    8b6d        m.      LDRH     r5,[r5,#0x1a]
        0x00002e84:    4285        .B      CMP      r5,r0
        0x00002e86:    d903        ..      BLS      0x2e90 ; LowValtageWarnning + 90
        0x00002e88:    4878        xH      LDR      r0,[pc,#480] ; [0x306c] = 0x2000002f
        0x00002e8a:    7805        .x      LDRB     r5,[r0,#0]
        0x00002e8c:    2d00        .-      CMP      r5,#0
        0x00002e8e:    d002        ..      BEQ      0x2e96 ; LowValtageWarnning + 96
        0x00002e90:    729c        .r      STRB     r4,[r3,#0xa]
        0x00002e92:    725c        \r      STRB     r4,[r3,#9]
        0x00002e94:    bdf8        ..      POP      {r3-r7,pc}
        0x00002e96:    725a        Zr      STRB     r2,[r3,#9]
        0x00002e98:    729c        .r      STRB     r4,[r3,#0xa]
        0x00002e9a:    7007        .p      STRB     r7,[r0,#0]
        0x00002e9c:    2901        .)      CMP      r1,#1
        0x00002e9e:    d0f9        ..      BEQ      0x2e94 ; LowValtageWarnning + 94
        0x00002ea0:    2a02        .*      CMP      r2,#2
        0x00002ea2:    d9f7        ..      BLS      0x2e94 ; LowValtageWarnning + 94
        0x00002ea4:    290d        .)      CMP      r1,#0xd
        0x00002ea6:    d2f5        ..      BCS      0x2e94 ; LowValtageWarnning + 94
        0x00002ea8:    725c        \r      STRB     r4,[r3,#9]
        0x00002eaa:    483e        >H      LDR      r0,[pc,#248] ; [0x2fa4] = 0x2a50
        0x00002eac:    30d0        .0      ADDS     r0,r0,#0xd0
        0x00002eae:    f7fffcd8    ....    BL       PlayVoice ; 0x2862
        0x00002eb2:    bdf8        ..      POP      {r3-r7,pc}
    BatterCheck
        0x00002eb4:    b570        p.      PUSH     {r4-r6,lr}
        0x00002eb6:    4c42        BL      LDR      r4,[pc,#264] ; [0x2fc0] = 0x20000032
        0x00002eb8:    8820         .      LDRH     r0,[r4,#0]
        0x00002eba:    2800        .(      CMP      r0,#0
        0x00002ebc:    d010        ..      BEQ      0x2ee0 ; BatterCheck + 44
        0x00002ebe:    4d2d        -M      LDR      r5,[pc,#180] ; [0x2f74] = 0x2000007c
        0x00002ec0:    3d30        0=      SUBS     r5,r5,#0x30
        0x00002ec2:    8a29        ).      LDRH     r1,[r5,#0x10]
        0x00002ec4:    2900        .)      CMP      r1,#0
        0x00002ec6:    d003        ..      BEQ      0x2ed0 ; BatterCheck + 28
        0x00002ec8:    1840        @.      ADDS     r0,r0,r1
        0x00002eca:    0840        @.      LSRS     r0,r0,#1
        0x00002ecc:    8228        (.      STRH     r0,[r5,#0x10]
        0x00002ece:    e000        ..      B        0x2ed2 ; BatterCheck + 30
        0x00002ed0:    8228        (.      STRH     r0,[r5,#0x10]
        0x00002ed2:    8a28        (.      LDRH     r0,[r5,#0x10]
        0x00002ed4:    f7ffffaf    ....    BL       LowValtageWarnning ; 0x2e36
        0x00002ed8:    8820         .      LDRH     r0,[r4,#0]
        0x00002eda:    8228        (.      STRH     r0,[r5,#0x10]
        0x00002edc:    2000        .       MOVS     r0,#0
        0x00002ede:    8020         .      STRH     r0,[r4,#0]
        0x00002ee0:    496c        lI      LDR      r1,[pc,#432] ; [0x3094] = 0x20000046
        0x00002ee2:    7808        .x      LDRB     r0,[r1,#0]
        0x00002ee4:    2800        .(      CMP      r0,#0
        0x00002ee6:    d111        ..      BNE      0x2f0c ; BatterCheck + 88
        0x00002ee8:    4828        (H      LDR      r0,[pc,#160] ; [0x2f8c] = 0x2000001a
        0x00002eea:    7800        .x      LDRB     r0,[r0,#0]
        0x00002eec:    2804        .(      CMP      r0,#4
        0x00002eee:    d00d        ..      BEQ      0x2f0c ; BatterCheck + 88
        0x00002ef0:    2805        .(      CMP      r0,#5
        0x00002ef2:    d00b        ..      BEQ      0x2f0c ; BatterCheck + 88
        0x00002ef4:    280e        .(      CMP      r0,#0xe
        0x00002ef6:    d009        ..      BEQ      0x2f0c ; BatterCheck + 88
        0x00002ef8:    4a58        XJ      LDR      r2,[pc,#352] ; [0x305c] = 0x20000017
        0x00002efa:    7812        .x      LDRB     r2,[r2,#0]
        0x00002efc:    2a01        .*      CMP      r2,#1
        0x00002efe:    d005        ..      BEQ      0x2f0c ; BatterCheck + 88
        0x00002f00:    2801        .(      CMP      r0,#1
        0x00002f02:    d003        ..      BEQ      0x2f0c ; BatterCheck + 88
        0x00002f04:    20b4        .       MOVS     r0,#0xb4
        0x00002f06:    7008        .p      STRB     r0,[r1,#0]
        0x00002f08:    f7fffc03    ....    BL       AdcStart ; 0x2712
        0x00002f0c:    bd70        p.      POP      {r4-r6,pc}
    GetCpsiInfo
        0x00002f0e:    b570        p.      PUSH     {r4-r6,lr}
        0x00002f10:    b088        ..      SUB      sp,sp,#0x20
        0x00002f12:    a161        a.      ADR      r1,{pc}+0x186 ; 0x3098
        0x00002f14:    a062        b.      ADR      r0,{pc}+0x18c ; 0x30a0
        0x00002f16:    f001fd2a    ..*.    BL       SendAtCmdRsq ; 0x496e
        0x00002f1a:    2800        .(      CMP      r0,#0
        0x00002f1c:    d010        ..      BEQ      0x2f40 ; GetCpsiInfo + 50
        0x00002f1e:    2403        .$      MOVS     r4,#3
        0x00002f20:    4e10        .N      LDR      r6,[pc,#64] ; [0x2f64] = 0x20000048
        0x00002f22:    9400        ..      STR      r4,[sp,#0]
        0x00002f24:    4d0e        .M      LDR      r5,[pc,#56] ; [0x2f60] = 0x2000025c
        0x00002f26:    8830        0.      LDRH     r0,[r6,#0]
        0x00002f28:    ab07        ..      ADD      r3,sp,#0x1c
        0x00002f2a:    1828        (.      ADDS     r0,r5,r0
        0x00002f2c:    a20f        ..      ADR      r2,{pc}+0x40 ; 0x2f6c
        0x00002f2e:    a15f        _.      ADR      r1,{pc}+0x17e ; 0x30ac
        0x00002f30:    f7fffd50    ..P.    BL       GetString ; 0x29d4
        0x00002f34:    2800        .(      CMP      r0,#0
        0x00002f36:    d104        ..      BNE      0x2f42 ; GetCpsiInfo + 52
        0x00002f38:    9400        ..      STR      r4,[sp,#0]
        0x00002f3a:    8830        0.      LDRH     r0,[r6,#0]
        0x00002f3c:    1828        (.      ADDS     r0,r5,r0
        0x00002f3e:    e0b7        ..      B        0x30b0 ; GetCpsiInfo + 418
        0x00002f40:    e0ea        ..      B        0x3118 ; GetCpsiInfo + 522
        0x00002f42:    e0bc        ..      B        0x30be ; GetCpsiInfo + 432
    $d
        0x00002f44:    534e432b    +CNS    DCD    1397637931
        0x00002f48:    3a444f4d    MOD:    DCD    977555277
        0x00002f4c:    00000000    ....    DCD    0
        0x00002f50:    432b5441    AT+C    DCD    1126913089
        0x00002f54:    4f4d534e    NSMO    DCD    1330467662
        0x00002f58:    0a0d3f44    D?..    DCD    168640324
        0x00002f5c:    00000000    ....    DCD    0
        0x00002f60:    2000025c    \..     DCD    536871516
        0x00002f64:    20000048    H..     DCD    536870984
        0x00002f68:    0000000d    ....    DCD    13
        0x00002f6c:    0000002c    ,...    DCD    44
        0x00002f70:    20000045    E..     DCD    536870981
        0x00002f74:    2000007c    |..     DCD    536871036
        0x00002f78:    706f7473    stop    DCD    1886352499
        0x00002f7c:    00000000    ....    DCD    0
        0x00002f80:    20000018    ...     DCD    536870936
        0x00002f84:    2000002a    *..     DCD    536870954
        0x00002f88:    2000001b    ...     DCD    536870939
        0x00002f8c:    2000001a    ...     DCD    536870938
        0x00002f90:    696e7522    "uni    DCD    1768846626
        0x00002f94:    546e4974    tInT    DCD    1416513908
        0x00002f98:    2e747365    est.    DCD    779383653
        0x00002f9c:    22766177    wav"    DCD    578183543
        0x00002fa0:    000d322c    ,2..    DCD    864812
        0x00002fa4:    00002a50    P*..    DCD    10832
        0x00002fa8:    20000039    9..     DCD    536870969
        0x00002fac:    69617722    "wai    DCD    1767995170
        0x00002fb0:    53504774    tGPS    DCD    1397770100
        0x00002fb4:    7661772e    .wav    DCD    1986098990
        0x00002fb8:    0d322c22    ",2.    DCD    221391906
        0x00002fbc:    00000000    ....    DCD    0
        0x00002fc0:    20000032    2..     DCD    536870962
        0x00002fc4:    6f6f6c22    "loo    DCD    1869573154
        0x00002fc8:    73655470    pTes    DCD    1936020592
        0x00002fcc:    61772e74    t.wa    DCD    1635200628
        0x00002fd0:    322c2276    v",2    DCD    841753206
        0x00002fd4:    00000a0d    ....    DCD    2573
        0x00002fd8:    432b5441    AT+C    DCD    1126913089
        0x00002fdc:    41475854    TXGA    DCD    1095194708
        0x00002fe0:    363d4e49    IN=6    DCD    909987401
        0x00002fe4:    30303035    5000    DCD    808464437
        0x00002fe8:    54432b3b    ;+CT    DCD    1413688123
        0x00002fec:    4c4f5658    XVOL    DCD    1280267864
        0x00002ff0:    3035363d    =650    DCD    808793661
        0x00002ff4:    2b3b3030    00;+    DCD    725299248
        0x00002ff8:    47585243    CRXG    DCD    1196970563
        0x00002ffc:    3d4e4941    AIN=    DCD    1028540737
        0x00003000:    30303536    6500    DCD    808465718
        0x00003004:    432b3b30    0;+C    DCD    1126906672
        0x00003008:    4f565852    RXVO    DCD    1331058770
        0x0000300c:    30313d4c    L=10    DCD    808533324
        0x00003010:    000a0d30    0...    DCD    658736
        0x00003014:    432b5441    AT+C    DCD    1126913089
        0x00003018:    4143494d    MICA    DCD    1094928717
        0x0000301c:    3d31504d    MP1=    DCD    1026641997
        0x00003020:    432b3b31    1;+C    DCD    1126906673
        0x00003024:    3d4c564c    LVL=    DCD    1028413004
        0x00003028:    432b3b37    7;+C    DCD    1126906679
        0x0000302c:    3d4d4345    ECM=    DCD    1028473669
        0x00003030:    000a0d30    0...    DCD    658736
        0x00003034:    432b5441    AT+C    DCD    1126913089
        0x00003038:    504f4f4c    LOOP    DCD    1347374924
        0x0000303c:    4b434142    BACK    DCD    1262698818
        0x00003040:    312c333d    =3,1    DCD    824980285
        0x00003044:    00000a0d    ....    DCD    2573
        0x00003048:    432b5441    AT+C    DCD    1126913089
        0x0000304c:    504f4f4c    LOOP    DCD    1347374924
        0x00003050:    4b434142    BACK    DCD    1262698818
        0x00003054:    302c333d    =3,0    DCD    808203069
        0x00003058:    00000a0d    ....    DCD    2573
        0x0000305c:    20000017    ...     DCD    536870935
        0x00003060:    20000022    "..     DCD    536870946
        0x00003064:    2000001d    ...     DCD    536870941
        0x00003068:    20000220     ..     DCD    536871456
        0x0000306c:    2000002f    /..     DCD    536870959
        0x00003070:    772e6822    "h.w    DCD    1999530018
        0x00003074:    2c227661    av",    DCD    740456033
        0x00003078:    00000d32    2...    DCD    3378
        0x0000307c:    2000002c    ,..     DCD    536870956
        0x00003080:    20000019    ...     DCD    536870937
        0x00003084:    57265441    AT&W    DCD    1462129729
        0x00003088:    00000a0d    ....    DCD    2573
        0x0000308c:    20000024    $..     DCD    536870948
        0x00003090:    2000003a    :..     DCD    536870970
        0x00003094:    20000046    F..     DCD    536870982
        0x00003098:    5350432b    +CPS    DCD    1397769003
        0x0000309c:    00003a49    I:..    DCD    14921
        0x000030a0:    432b5441    AT+C    DCD    1126913089
        0x000030a4:    3f495350    PSI?    DCD    1061770064
        0x000030a8:    00000a0d    ....    DCD    2573
        0x000030ac:    0000002d    -...    DCD    45
    $t
        0x000030b0:    ab07        ..      ADD      r3,sp,#0x1c
        0x000030b2:    a2fc        ..      ADR      r2,{pc}+0x3f2 ; 0x34a4
        0x000030b4:    a1fc        ..      ADR      r1,{pc}+0x3f4 ; 0x34a8
        0x000030b6:    f7fffc8d    ....    BL       GetString ; 0x29d4
        0x000030ba:    2800        .(      CMP      r0,#0
        0x000030bc:    d02c        ,.      BEQ      0x3118 ; GetCpsiInfo + 522
        0x000030be:    2104        .!      MOVS     r1,#4
        0x000030c0:    9100        ..      STR      r1,[sp,#0]
        0x000030c2:    ab05        ..      ADD      r3,sp,#0x14
        0x000030c4:    a2f9        ..      ADR      r2,{pc}+0x3e8 ; 0x34ac
        0x000030c6:    a1fa        ..      ADR      r1,{pc}+0x3ea ; 0x34b0
        0x000030c8:    f7fffc84    ....    BL       GetString ; 0x29d4
        0x000030cc:    2800        .(      CMP      r0,#0
        0x000030ce:    d023        #.      BEQ      0x3118 ; GetCpsiInfo + 522
        0x000030d0:    2109        .!      MOVS     r1,#9
        0x000030d2:    9100        ..      STR      r1,[sp,#0]
        0x000030d4:    ab02        ..      ADD      r3,sp,#8
        0x000030d6:    a2f5        ..      ADR      r2,{pc}+0x3d6 ; 0x34ac
        0x000030d8:    a1f4        ..      ADR      r1,{pc}+0x3d4 ; 0x34ac
        0x000030da:    f7fffc7b    ..{.    BL       GetString ; 0x29d4
        0x000030de:    2800        .(      CMP      r0,#0
        0x000030e0:    d01a        ..      BEQ      0x3118 ; GetCpsiInfo + 522
        0x000030e2:    49f4        .I      LDR      r1,[pc,#976] ; [0x34b4] = 0x2000004c
        0x000030e4:    2001        .       MOVS     r0,#1
        0x000030e6:    7108        .q      STRB     r0,[r1,#4]
        0x000030e8:    a907        ..      ADD      r1,sp,#0x1c
        0x000030ea:    48f3        .H      LDR      r0,[pc,#972] ; [0x34b8] = 0x2000067f
        0x000030ec:    f003f954    ..T.    BL       strcpy ; 0x6398
        0x000030f0:    a907        ..      ADD      r1,sp,#0x1c
        0x000030f2:    48f2        .H      LDR      r0,[pc,#968] ; [0x34bc] = 0x20000108
        0x000030f4:    f003f950    ..P.    BL       strcpy ; 0x6398
        0x000030f8:    a1f1        ..      ADR      r1,{pc}+0x3c8 ; 0x34c0
        0x000030fa:    48ef        .H      LDR      r0,[pc,#956] ; [0x34b8] = 0x2000067f
        0x000030fc:    f003f9e4    ....    BL       strcat ; 0x64c8
        0x00003100:    a905        ..      ADD      r1,sp,#0x14
        0x00003102:    48ed        .H      LDR      r0,[pc,#948] ; [0x34b8] = 0x2000067f
        0x00003104:    f003f9e0    ....    BL       strcat ; 0x64c8
        0x00003108:    a1ee        ..      ADR      r1,{pc}+0x3bc ; 0x34c4
        0x0000310a:    48eb        .H      LDR      r0,[pc,#940] ; [0x34b8] = 0x2000067f
        0x0000310c:    f003f9dc    ....    BL       strcat ; 0x64c8
        0x00003110:    a902        ..      ADD      r1,sp,#8
        0x00003112:    48e9        .H      LDR      r0,[pc,#932] ; [0x34b8] = 0x2000067f
        0x00003114:    f003f9d8    ....    BL       strcat ; 0x64c8
        0x00003118:    b008        ..      ADD      sp,sp,#0x20
        0x0000311a:    bd70        p.      POP      {r4-r6,pc}
    CallActive
        0x0000311c:    48ea        .H      LDR      r0,[pc,#936] ; [0x34c8] = 0x2000001b
        0x0000311e:    7800        .x      LDRB     r0,[r0,#0]
        0x00003120:    2800        .(      CMP      r0,#0
        0x00003122:    d101        ..      BNE      0x3128 ; CallActive + 12
        0x00003124:    49e9        .I      LDR      r1,[pc,#932] ; [0x34cc] = 0x20000028
        0x00003126:    8008        ..      STRH     r0,[r1,#0]
        0x00003128:    49e9        .I      LDR      r1,[pc,#932] ; [0x34d0] = 0x2000001a
        0x0000312a:    200a        .       MOVS     r0,#0xa
        0x0000312c:    7008        .p      STRB     r0,[r1,#0]
        0x0000312e:    4770        pG      BX       lr
    EnterCallFail
        0x00003130:    b510        ..      PUSH     {r4,lr}
        0x00003132:    49e7        .I      LDR      r1,[pc,#924] ; [0x34d0] = 0x2000001a
        0x00003134:    200b        .       MOVS     r0,#0xb
        0x00003136:    7008        .p      STRB     r0,[r1,#0]
        0x00003138:    f001fe47    ..G.    BL       HuangupCall ; 0x4dca
        0x0000313c:    48e5        .H      LDR      r0,[pc,#916] ; [0x34d4] = 0x20000035
        0x0000313e:    7800        .x      LDRB     r0,[r0,#0]
        0x00003140:    280a        .(      CMP      r0,#0xa
        0x00003142:    d211        ..      BCS      0x3168 ; EnterCallFail + 56
        0x00003144:    49e4        .I      LDR      r1,[pc,#912] ; [0x34d8] = 0x20000022
        0x00003146:    20c8        .       MOVS     r0,#0xc8
        0x00003148:    8008        ..      STRH     r0,[r1,#0]
        0x0000314a:    2003        .       MOVS     r0,#3
        0x0000314c:    f7fffc0e    ....    BL       PlayMusic ; 0x296c
        0x00003150:    48dd        .H      LDR      r0,[pc,#884] ; [0x34c8] = 0x2000001b
        0x00003152:    7800        .x      LDRB     r0,[r0,#0]
        0x00003154:    2802        .(      CMP      r0,#2
        0x00003156:    d106        ..      BNE      0x3166 ; EnterCallFail + 54
        0x00003158:    48e0        .H      LDR      r0,[pc,#896] ; [0x34dc] = 0x20000019
        0x0000315a:    7800        .x      LDRB     r0,[r0,#0]
        0x0000315c:    2800        .(      CMP      r0,#0
        0x0000315e:    d002        ..      BEQ      0x3166 ; EnterCallFail + 54
        0x00003160:    49da        .I      LDR      r1,[pc,#872] ; [0x34cc] = 0x20000028
        0x00003162:    2014        .       MOVS     r0,#0x14
        0x00003164:    8008        ..      STRH     r0,[r1,#0]
        0x00003166:    bd10        ..      POP      {r4,pc}
        0x00003168:    2002        .       MOVS     r0,#2
        0x0000316a:    f7fffbff    ....    BL       PlayMusic ; 0x296c
        0x0000316e:    49dc        .I      LDR      r1,[pc,#880] ; [0x34e0] = 0x20000024
        0x00003170:    2000        .       MOVS     r0,#0
        0x00003172:    8008        ..      STRH     r0,[r1,#0]
        0x00003174:    49db        .I      LDR      r1,[pc,#876] ; [0x34e4] = 0x20000018
        0x00003176:    2001        .       MOVS     r0,#1
        0x00003178:    7008        .p      STRB     r0,[r1,#0]
        0x0000317a:    49db        .I      LDR      r1,[pc,#876] ; [0x34e8] = 0x2000003a
        0x0000317c:    2064        d       MOVS     r0,#0x64
        0x0000317e:    7008        .p      STRB     r0,[r1,#0]
        0x00003180:    bd10        ..      POP      {r4,pc}
    EndCall
        0x00003182:    b510        ..      PUSH     {r4,lr}
        0x00003184:    2401        .$      MOVS     r4,#1
        0x00003186:    49d2        .I      LDR      r1,[pc,#840] ; [0x34d0] = 0x2000001a
        0x00003188:    7809        .x      LDRB     r1,[r1,#0]
        0x0000318a:    290a        .)      CMP      r1,#0xa
        0x0000318c:    d002        ..      BEQ      0x3194 ; EndCall + 18
        0x0000318e:    2909        .)      CMP      r1,#9
        0x00003190:    d008        ..      BEQ      0x31a4 ; EndCall + 34
        0x00003192:    e009        ..      B        0x31a8 ; EndCall + 38
        0x00003194:    48d5        .H      LDR      r0,[pc,#852] ; [0x34ec] = 0x20000200
        0x00003196:    49d2        .I      LDR      r1,[pc,#840] ; [0x34e0] = 0x20000024
        0x00003198:    8b00        ..      LDRH     r0,[r0,#0x18]
        0x0000319a:    8008        ..      STRH     r0,[r1,#0]
        0x0000319c:    49d1        .I      LDR      r1,[pc,#836] ; [0x34e4] = 0x20000018
        0x0000319e:    2001        .       MOVS     r0,#1
        0x000031a0:    7008        .p      STRB     r0,[r1,#0]
        0x000031a2:    e001        ..      B        0x31a8 ; EndCall + 38
        0x000031a4:    f7ffffc4    ....    BL       EnterCallFail ; 0x3130
        0x000031a8:    4620         F      MOV      r0,r4
        0x000031aa:    bd10        ..      POP      {r4,pc}
    QueryModuleSate
        0x000031ac:    b57c        |.      PUSH     {r2-r6,lr}
        0x000031ae:    a1d0        ..      ADR      r1,{pc}+0x342 ; 0x34f0
        0x000031b0:    a0d1        ..      ADR      r0,{pc}+0x348 ; 0x34f8
        0x000031b2:    f001fbdc    ....    BL       SendAtCmdRsq ; 0x496e
        0x000031b6:    2801        .(      CMP      r0,#1
        0x000031b8:    d126        &.      BNE      0x3208 ; QueryModuleSate + 92
        0x000031ba:    4dd3        .M      LDR      r5,[pc,#844] ; [0x3508] = 0x20000048
        0x000031bc:    4cd1        .L      LDR      r4,[pc,#836] ; [0x3504] = 0x2000025c
        0x000031be:    8828        (.      LDRH     r0,[r5,#0]
        0x000031c0:    5c20         \      LDRB     r0,[r4,r0]
        0x000031c2:    2830        0(      CMP      r0,#0x30
        0x000031c4:    d001        ..      BEQ      0x31ca ; QueryModuleSate + 30
        0x000031c6:    284f        O(      CMP      r0,#0x4f
        0x000031c8:    d103        ..      BNE      0x31d2 ; QueryModuleSate + 38
        0x000031ca:    f7ffffda    ....    BL       EndCall ; 0x3182
        0x000031ce:    2801        .(      CMP      r0,#1
        0x000031d0:    d01a        ..      BEQ      0x3208 ; QueryModuleSate + 92
        0x000031d2:    8828        (.      LDRH     r0,[r5,#0]
        0x000031d4:    212c        ,!      MOVS     r1,#0x2c
        0x000031d6:    1820         .      ADDS     r0,r4,r0
        0x000031d8:    f003f8c0    ....    BL       strchr ; 0x635c
        0x000031dc:    2800        .(      CMP      r0,#0
        0x000031de:    d013        ..      BEQ      0x3208 ; QueryModuleSate + 92
        0x000031e0:    2101        .!      MOVS     r1,#1
        0x000031e2:    9100        ..      STR      r1,[sp,#0]
        0x000031e4:    ab01        ..      ADD      r3,sp,#4
        0x000031e6:    a2b1        ..      ADR      r2,{pc}+0x2c6 ; 0x34ac
        0x000031e8:    a1b0        ..      ADR      r1,{pc}+0x2c4 ; 0x34ac
        0x000031ea:    1c40        @.      ADDS     r0,r0,#1
        0x000031ec:    f7fffbf2    ....    BL       GetString ; 0x29d4
        0x000031f0:    2800        .(      CMP      r0,#0
        0x000031f2:    d009        ..      BEQ      0x3208 ; QueryModuleSate + 92
        0x000031f4:    48b6        .H      LDR      r0,[pc,#728] ; [0x34d0] = 0x2000001a
        0x000031f6:    7800        .x      LDRB     r0,[r0,#0]
        0x000031f8:    2809        .(      CMP      r0,#9
        0x000031fa:    d105        ..      BNE      0x3208 ; QueryModuleSate + 92
        0x000031fc:    4668        hF      MOV      r0,sp
        0x000031fe:    7900        .y      LDRB     r0,[r0,#4]
        0x00003200:    2830        0(      CMP      r0,#0x30
        0x00003202:    d101        ..      BNE      0x3208 ; QueryModuleSate + 92
        0x00003204:    f7ffff8a    ....    BL       CallActive ; 0x311c
        0x00003208:    bd7c        |.      POP      {r2-r6,pc}
    IsInCall
        0x0000320a:    48b1        .H      LDR      r0,[pc,#708] ; [0x34d0] = 0x2000001a
        0x0000320c:    7800        .x      LDRB     r0,[r0,#0]
        0x0000320e:    3808        .8      SUBS     r0,r0,#8
        0x00003210:    2802        .(      CMP      r0,#2
        0x00003212:    d801        ..      BHI      0x3218 ; IsInCall + 14
        0x00003214:    2001        .       MOVS     r0,#1
        0x00003216:    4770        pG      BX       lr
        0x00003218:    2000        .       MOVS     r0,#0
        0x0000321a:    4770        pG      BX       lr
    Txt2Dec
        0x0000321c:    b510        ..      PUSH     {r4,lr}
        0x0000321e:    4603        .F      MOV      r3,r0
        0x00003220:    2000        .       MOVS     r0,#0
        0x00003222:    2200        ."      MOVS     r2,#0
        0x00003224:    e007        ..      B        0x3236 ; Txt2Dec + 26
        0x00003226:    240a        .$      MOVS     r4,#0xa
        0x00003228:    4360        `C      MULS     r0,r4,r0
        0x0000322a:    5c9c        .\      LDRB     r4,[r3,r2]
        0x0000322c:    3830        08      SUBS     r0,r0,#0x30
        0x0000322e:    1820         .      ADDS     r0,r4,r0
        0x00003230:    b2c0        ..      UXTB     r0,r0
        0x00003232:    1c52        R.      ADDS     r2,r2,#1
        0x00003234:    b2d2        ..      UXTB     r2,r2
        0x00003236:    428a        .B      CMP      r2,r1
        0x00003238:    d3f5        ..      BCC      0x3226 ; Txt2Dec + 10
        0x0000323a:    bd10        ..      POP      {r4,pc}
    SmsInit
        0x0000323c:    b570        p.      PUSH     {r4-r6,lr}
        0x0000323e:    48a7        .H      LDR      r0,[pc,#668] ; [0x34dc] = 0x20000019
        0x00003240:    7800        .x      LDRB     r0,[r0,#0]
        0x00003242:    2800        .(      CMP      r0,#0
        0x00003244:    d045        E.      BEQ      0x32d2 ; SmsInit + 150
        0x00003246:    4c9b        .L      LDR      r4,[pc,#620] ; [0x34b4] = 0x2000004c
        0x00003248:    79a0        .y      LDRB     r0,[r4,#6]
        0x0000324a:    2801        .(      CMP      r0,#1
        0x0000324c:    d041        A.      BEQ      0x32d2 ; SmsInit + 150
        0x0000324e:    4620         F      MOV      r0,r4
        0x00003250:    22ff        ."      MOVS     r2,#0xff
        0x00003252:    2104        .!      MOVS     r1,#4
        0x00003254:    3012        .0      ADDS     r0,r0,#0x12
        0x00003256:    f003f984    ....    BL       __aeabi_memset ; 0x6562
        0x0000325a:    a3ac        ..      ADR      r3,{pc}+0x2b2 ; 0x350c
        0x0000325c:    2200        ."      MOVS     r2,#0
        0x0000325e:    2106        .!      MOVS     r1,#6
        0x00003260:    2032        2       MOVS     r0,#0x32
        0x00003262:    f001fc03    ....    BL       SendAtWaitRsq ; 0x4a6c
        0x00003266:    a3ae        ..      ADR      r3,{pc}+0x2ba ; 0x3520
        0x00003268:    2200        ."      MOVS     r2,#0
        0x0000326a:    2106        .!      MOVS     r1,#6
        0x0000326c:    2032        2       MOVS     r0,#0x32
        0x0000326e:    f001fbfd    ....    BL       SendAtWaitRsq ; 0x4a6c
        0x00003272:    a1ae        ..      ADR      r1,{pc}+0x2ba ; 0x352c
        0x00003274:    a0af        ..      ADR      r0,{pc}+0x2c0 ; 0x3534
        0x00003276:    f001fb7a    ..z.    BL       SendAtCmdRsq ; 0x496e
        0x0000327a:    2800        .(      CMP      r0,#0
        0x0000327c:    d017        ..      BEQ      0x32ae ; SmsInit + 114
        0x0000327e:    49a2        .I      LDR      r1,[pc,#648] ; [0x3508] = 0x20000048
        0x00003280:    48a0        .H      LDR      r0,[pc,#640] ; [0x3504] = 0x2000025c
        0x00003282:    8809        ..      LDRH     r1,[r1,#0]
        0x00003284:    1840        @.      ADDS     r0,r0,r1
        0x00003286:    212c        ,!      MOVS     r1,#0x2c
        0x00003288:    f003f868    ..h.    BL       strchr ; 0x635c
        0x0000328c:    2800        .(      CMP      r0,#0
        0x0000328e:    d00e        ..      BEQ      0x32ae ; SmsInit + 114
        0x00003290:    1c45        E.      ADDS     r5,r0,#1
        0x00003292:    212c        ,!      MOVS     r1,#0x2c
        0x00003294:    4628        (F      MOV      r0,r5
        0x00003296:    f003f861    ..a.    BL       strchr ; 0x635c
        0x0000329a:    2800        .(      CMP      r0,#0
        0x0000329c:    d007        ..      BEQ      0x32ae ; SmsInit + 114
        0x0000329e:    1b40        @.      SUBS     r0,r0,r5
        0x000032a0:    2803        .(      CMP      r0,#3
        0x000032a2:    dc04        ..      BGT      0x32ae ; SmsInit + 114
        0x000032a4:    b2c1        ..      UXTB     r1,r0
        0x000032a6:    4628        (F      MOV      r0,r5
        0x000032a8:    f7ffffb8    ....    BL       Txt2Dec ; 0x321c
        0x000032ac:    70e0        .p      STRB     r0,[r4,#3]
        0x000032ae:    200c        .       MOVS     r0,#0xc
        0x000032b0:    70a0        .p      STRB     r0,[r4,#2]
        0x000032b2:    78e0        .x      LDRB     r0,[r4,#3]
        0x000032b4:    2800        .(      CMP      r0,#0
        0x000032b6:    d007        ..      BEQ      0x32c8 ; SmsInit + 140
        0x000032b8:    2001        .       MOVS     r0,#1
        0x000032ba:    71a0        .q      STRB     r0,[r4,#6]
        0x000032bc:    a3a4        ..      ADR      r3,{pc}+0x294 ; 0x3550
        0x000032be:    2200        ."      MOVS     r2,#0
        0x000032c0:    2106        .!      MOVS     r1,#6
        0x000032c2:    2078        x       MOVS     r0,#0x78
        0x000032c4:    f001fbd2    ....    BL       SendAtWaitRsq ; 0x4a6c
        0x000032c8:    2201        ."      MOVS     r2,#1
        0x000032ca:    78e1        .x      LDRB     r1,[r4,#3]
        0x000032cc:    a0a4        ..      ADR      r0,{pc}+0x294 ; 0x3560
        0x000032ce:    f7fff827    ..'.    BL       debug_8 ; 0x2320
        0x000032d2:    bd70        p.      POP      {r4-r6,pc}
    LedLight
        0x000032d4:    b510        ..      PUSH     {r4,lr}
        0x000032d6:    49a4        .I      LDR      r1,[pc,#656] ; [0x3568] = 0xe000e000
        0x000032d8:    690b        .i      LDR      r3,[r1,#0x10]
        0x000032da:    2202        ."      MOVS     r2,#2
        0x000032dc:    4393        .C      BICS     r3,r3,r2
        0x000032de:    610b        .a      STR      r3,[r1,#0x10]
        0x000032e0:    4ca2        .L      LDR      r4,[pc,#648] ; [0x356c] = 0x2000003b
        0x000032e2:    2301        .#      MOVS     r3,#1
        0x000032e4:    7023        #p      STRB     r3,[r4,#0]
        0x000032e6:    4ca2        .L      LDR      r4,[pc,#648] ; [0x3570] = 0x50004200
        0x000032e8:    2300        .#      MOVS     r3,#0
        0x000032ea:    6323        #c      STR      r3,[r4,#0x30]
        0x000032ec:    4ba1        .K      LDR      r3,[pc,#644] ; [0x3574] = 0x20000034
        0x000032ee:    7018        .p      STRB     r0,[r3,#0]
        0x000032f0:    6908        .i      LDR      r0,[r1,#0x10]
        0x000032f2:    4310        .C      ORRS     r0,r0,r2
        0x000032f4:    6108        .a      STR      r0,[r1,#0x10]
        0x000032f6:    bd10        ..      POP      {r4,pc}
    StrToInt
        0x000032f8:    b530        0.      PUSH     {r4,r5,lr}
        0x000032fa:    4604        .F      MOV      r4,r0
        0x000032fc:    2000        .       MOVS     r0,#0
        0x000032fe:    2c00        .,      CMP      r4,#0
        0x00003300:    d001        ..      BEQ      0x3306 ; StrToInt + 14
        0x00003302:    2200        ."      MOVS     r2,#0
        0x00003304:    e009        ..      B        0x331a ; StrToInt + 34
        0x00003306:    2000        .       MOVS     r0,#0
        0x00003308:    bd30        0.      POP      {r4,r5,pc}
        0x0000330a:    5ca3        .\      LDRB     r3,[r4,r2]
        0x0000330c:    3b30        0;      SUBS     r3,r3,#0x30
        0x0000330e:    b2db        ..      UXTB     r3,r3
        0x00003310:    250a        .%      MOVS     r5,#0xa
        0x00003312:    4368        hC      MULS     r0,r5,r0
        0x00003314:    18c0        ..      ADDS     r0,r0,r3
        0x00003316:    1c52        R.      ADDS     r2,r2,#1
        0x00003318:    b2d2        ..      UXTB     r2,r2
        0x0000331a:    428a        .B      CMP      r2,r1
        0x0000331c:    d3f5        ..      BCC      0x330a ; StrToInt + 18
        0x0000331e:    bd30        0.      POP      {r4,r5,pc}
    GpsDataHandle
        0x00003320:    b5f0        ..      PUSH     {r4-r7,lr}
        0x00003322:    b089        ..      SUB      sp,sp,#0x24
        0x00003324:    4978        xI      LDR      r1,[pc,#480] ; [0x3508] = 0x20000048
        0x00003326:    4877        wH      LDR      r0,[pc,#476] ; [0x3504] = 0x2000025c
        0x00003328:    8809        ..      LDRH     r1,[r1,#0]
        0x0000332a:    1845        E.      ADDS     r5,r0,r1
        0x0000332c:    212c        ,!      MOVS     r1,#0x2c
        0x0000332e:    4628        (F      MOV      r0,r5
        0x00003330:    f003f814    ....    BL       strchr ; 0x635c
        0x00003334:    4602        .F      MOV      r2,r0
        0x00003336:    2a00        .*      CMP      r2,#0
        0x00003338:    d006        ..      BEQ      0x3348 ; GpsDataHandle + 40
        0x0000333a:    2000        .       MOVS     r0,#0
        0x0000333c:    350a        .5      ADDS     r5,r5,#0xa
        0x0000333e:    1b51        Q.      SUBS     r1,r2,r5
        0x00003340:    290f        .)      CMP      r1,#0xf
        0x00003342:    db03        ..      BLT      0x334c ; GpsDataHandle + 44
        0x00003344:    b009        ..      ADD      sp,sp,#0x24
        0x00003346:    bdf0        ..      POP      {r4-r7,pc}
        0x00003348:    2000        .       MOVS     r0,#0
        0x0000334a:    e7fb        ..      B        0x3344 ; GpsDataHandle + 36
        0x0000334c:    ac05        ..      ADD      r4,sp,#0x14
        0x0000334e:    e005        ..      B        0x335c ; GpsDataHandle + 60
        0x00003350:    782b        +x      LDRB     r3,[r5,#0]
        0x00003352:    4601        .F      MOV      r1,r0
        0x00003354:    1c6d        m.      ADDS     r5,r5,#1
        0x00003356:    1c40        @.      ADDS     r0,r0,#1
        0x00003358:    b2c0        ..      UXTB     r0,r0
        0x0000335a:    5463        cT      STRB     r3,[r4,r1]
        0x0000335c:    4295        .B      CMP      r5,r2
        0x0000335e:    d1f7        ..      BNE      0x3350 ; GpsDataHandle + 48
        0x00003360:    2600        .&      MOVS     r6,#0
        0x00003362:    5426        &T      STRB     r6,[r4,r0]
        0x00003364:    212c        ,!      MOVS     r1,#0x2c
        0x00003366:    1c50        P.      ADDS     r0,r2,#1
        0x00003368:    f002fff8    ....    BL       strchr ; 0x635c
        0x0000336c:    4605        .F      MOV      r5,r0
        0x0000336e:    2d00        .-      CMP      r5,#0
        0x00003370:    d00c        ..      BEQ      0x338c ; GpsDataHandle + 108
        0x00003372:    212c        ,!      MOVS     r1,#0x2c
        0x00003374:    1c68        h.      ADDS     r0,r5,#1
        0x00003376:    f002fff1    ....    BL       strchr ; 0x635c
        0x0000337a:    4601        .F      MOV      r1,r0
        0x0000337c:    2900        .)      CMP      r1,#0
        0x0000337e:    d007        ..      BEQ      0x3390 ; GpsDataHandle + 112
        0x00003380:    2000        .       MOVS     r0,#0
        0x00003382:    1c6d        m.      ADDS     r5,r5,#1
        0x00003384:    1b4a        J.      SUBS     r2,r1,r5
        0x00003386:    2a0f        .*      CMP      r2,#0xf
        0x00003388:    db04        ..      BLT      0x3394 ; GpsDataHandle + 116
        0x0000338a:    e7db        ..      B        0x3344 ; GpsDataHandle + 36
        0x0000338c:    2000        .       MOVS     r0,#0
        0x0000338e:    e7d9        ..      B        0x3344 ; GpsDataHandle + 36
        0x00003390:    2000        .       MOVS     r0,#0
        0x00003392:    e7d7        ..      B        0x3344 ; GpsDataHandle + 36
        0x00003394:    aa01        ..      ADD      r2,sp,#4
        0x00003396:    e005        ..      B        0x33a4 ; GpsDataHandle + 132
        0x00003398:    782b        +x      LDRB     r3,[r5,#0]
        0x0000339a:    4607        .F      MOV      r7,r0
        0x0000339c:    1c6d        m.      ADDS     r5,r5,#1
        0x0000339e:    1c40        @.      ADDS     r0,r0,#1
        0x000033a0:    b2c0        ..      UXTB     r0,r0
        0x000033a2:    55d3        .U      STRB     r3,[r2,r7]
        0x000033a4:    428d        .B      CMP      r5,r1
        0x000033a6:    d1f7        ..      BNE      0x3398 ; GpsDataHandle + 120
        0x000033a8:    a901        ..      ADD      r1,sp,#4
        0x000033aa:    540e        .T      STRB     r6,[r1,r0]
        0x000033ac:    2100        .!      MOVS     r1,#0
        0x000033ae:    e001        ..      B        0x33b4 ; GpsDataHandle + 148
        0x000033b0:    1c49        I.      ADDS     r1,r1,#1
        0x000033b2:    b2c9        ..      UXTB     r1,r1
        0x000033b4:    5c60        `\      LDRB     r0,[r4,r1]
        0x000033b6:    2800        .(      CMP      r0,#0
        0x000033b8:    d001        ..      BEQ      0x33be ; GpsDataHandle + 158
        0x000033ba:    282e        .(      CMP      r0,#0x2e
        0x000033bc:    d1f8        ..      BNE      0x33b0 ; GpsDataHandle + 144
        0x000033be:    2902        .)      CMP      r1,#2
        0x000033c0:    d302        ..      BCC      0x33c8 ; GpsDataHandle + 168
        0x000033c2:    5c60        `\      LDRB     r0,[r4,r1]
        0x000033c4:    282e        .(      CMP      r0,#0x2e
        0x000033c6:    d001        ..      BEQ      0x33cc ; GpsDataHandle + 172
        0x000033c8:    2000        .       MOVS     r0,#0
        0x000033ca:    e7bb        ..      B        0x3344 ; GpsDataHandle + 36
        0x000033cc:    2000        .       MOVS     r0,#0
        0x000033ce:    4d3a        :M      LDR      r5,[pc,#232] ; [0x34b8] = 0x2000067f
        0x000033d0:    1e8a        ..      SUBS     r2,r1,#2
        0x000033d2:    e003        ..      B        0x33dc ; GpsDataHandle + 188
        0x000033d4:    5c23        #\      LDRB     r3,[r4,r0]
        0x000033d6:    542b        +T      STRB     r3,[r5,r0]
        0x000033d8:    1c40        @.      ADDS     r0,r0,#1
        0x000033da:    b2c0        ..      UXTB     r0,r0
        0x000033dc:    4290        .B      CMP      r0,r2
        0x000033de:    dbf9        ..      BLT      0x33d4 ; GpsDataHandle + 180
        0x000033e0:    222e        ."      MOVS     r2,#0x2e
        0x000033e2:    1c43        C.      ADDS     r3,r0,#1
        0x000033e4:    b2de        ..      UXTB     r6,r3
        0x000033e6:    542a        *T      STRB     r2,[r5,r0]
        0x000033e8:    4608        .F      MOV      r0,r1
        0x000033ea:    e004        ..      B        0x33f6 ; GpsDataHandle + 214
        0x000033ec:    1822        ".      ADDS     r2,r4,r0
        0x000033ee:    7852        Rx      LDRB     r2,[r2,#1]
        0x000033f0:    5422        "T      STRB     r2,[r4,r0]
        0x000033f2:    1c40        @.      ADDS     r0,r0,#1
        0x000033f4:    b2c0        ..      UXTB     r0,r0
        0x000033f6:    5c22        "\      LDRB     r2,[r4,r0]
        0x000033f8:    2a00        .*      CMP      r2,#0
        0x000033fa:    d1f7        ..      BNE      0x33ec ; GpsDataHandle + 204
        0x000033fc:    1860        `.      ADDS     r0,r4,r1
        0x000033fe:    4607        .F      MOV      r7,r0
        0x00003400:    1e80        ..      SUBS     r0,r0,#2
        0x00003402:    f002ffef    ....    BL       strlen ; 0x63e4
        0x00003406:    b2c4        ..      UXTB     r4,r0
        0x00003408:    1eb8        ..      SUBS     r0,r7,#2
        0x0000340a:    4621        !F      MOV      r1,r4
        0x0000340c:    f7ffff74    ..t.    BL       StrToInt ; 0x32f8
        0x00003410:    e004        ..      B        0x341c ; GpsDataHandle + 252
        0x00003412:    210a        .!      MOVS     r1,#0xa
        0x00003414:    f003f904    ....    BL       __aeabi_uidiv ; 0x6620
        0x00003418:    1e64        d.      SUBS     r4,r4,#1
        0x0000341a:    b2e4        ..      UXTB     r4,r4
        0x0000341c:    2c07        .,      CMP      r4,#7
        0x0000341e:    d8f8        ..      BHI      0x3412 ; GpsDataHandle + 242
        0x00003420:    e003        ..      B        0x342a ; GpsDataHandle + 266
        0x00003422:    210a        .!      MOVS     r1,#0xa
        0x00003424:    4348        HC      MULS     r0,r1,r0
        0x00003426:    1c64        d.      ADDS     r4,r4,#1
        0x00003428:    b2e4        ..      UXTB     r4,r4
        0x0000342a:    2c07        .,      CMP      r4,#7
        0x0000342c:    d3f9        ..      BCC      0x3422 ; GpsDataHandle + 258
        0x0000342e:    2106        .!      MOVS     r1,#6
        0x00003430:    f003f8f6    ....    BL       __aeabi_uidiv ; 0x6620
        0x00003434:    4602        .F      MOV      r2,r0
        0x00003436:    a150        P.      ADR      r1,{pc}+0x142 ; 0x3578
        0x00003438:    a805        ..      ADD      r0,sp,#0x14
        0x0000343a:    f002fe57    ..W.    BL       __2sprintf ; 0x60ec
        0x0000343e:    19a8        ..      ADDS     r0,r5,r6
        0x00003440:    2206        ."      MOVS     r2,#6
        0x00003442:    a905        ..      ADD      r1,sp,#0x14
        0x00003444:    f003f8b6    ....    BL       strncpy ; 0x65b4
        0x00003448:    1db6        ..      ADDS     r6,r6,#6
        0x0000344a:    b2f2        ..      UXTB     r2,r6
        0x0000344c:    2000        .       MOVS     r0,#0
        0x0000344e:    ab01        ..      ADD      r3,sp,#4
        0x00003450:    e001        ..      B        0x3456 ; GpsDataHandle + 310
        0x00003452:    1c40        @.      ADDS     r0,r0,#1
        0x00003454:    b2c0        ..      UXTB     r0,r0
        0x00003456:    5c19        .\      LDRB     r1,[r3,r0]
        0x00003458:    2900        .)      CMP      r1,#0
        0x0000345a:    d001        ..      BEQ      0x3460 ; GpsDataHandle + 320
        0x0000345c:    292e        .)      CMP      r1,#0x2e
        0x0000345e:    d1f8        ..      BNE      0x3452 ; GpsDataHandle + 306
        0x00003460:    2802        .(      CMP      r0,#2
        0x00003462:    d302        ..      BCC      0x346a ; GpsDataHandle + 330
        0x00003464:    5c19        .\      LDRB     r1,[r3,r0]
        0x00003466:    292e        .)      CMP      r1,#0x2e
        0x00003468:    d001        ..      BEQ      0x346e ; GpsDataHandle + 334
        0x0000346a:    2000        .       MOVS     r0,#0
        0x0000346c:    e76a        j.      B        0x3344 ; GpsDataHandle + 36
        0x0000346e:    242c        ,$      MOVS     r4,#0x2c
        0x00003470:    1c51        Q.      ADDS     r1,r2,#1
        0x00003472:    b2c9        ..      UXTB     r1,r1
        0x00003474:    54ac        .T      STRB     r4,[r5,r2]
        0x00003476:    222d        -"      MOVS     r2,#0x2d
        0x00003478:    1c4c        L.      ADDS     r4,r1,#1
        0x0000347a:    b2e6        ..      UXTB     r6,r4
        0x0000347c:    546a        jT      STRB     r2,[r5,r1]
        0x0000347e:    2100        .!      MOVS     r1,#0
        0x00003480:    1e82        ..      SUBS     r2,r0,#2
        0x00003482:    e006        ..      B        0x3492 ; GpsDataHandle + 370
        0x00003484:    4637        7F      MOV      r7,r6
        0x00003486:    5c5c        \\      LDRB     r4,[r3,r1]
        0x00003488:    1c76        v.      ADDS     r6,r6,#1
        0x0000348a:    b2f6        ..      UXTB     r6,r6
        0x0000348c:    55ec        .U      STRB     r4,[r5,r7]
        0x0000348e:    1c49        I.      ADDS     r1,r1,#1
        0x00003490:    b2c9        ..      UXTB     r1,r1
        0x00003492:    4291        .B      CMP      r1,r2
        0x00003494:    dbf6        ..      BLT      0x3484 ; GpsDataHandle + 356
        0x00003496:    212e        .!      MOVS     r1,#0x2e
        0x00003498:    1c72        r.      ADDS     r2,r6,#1
        0x0000349a:    b2d4        ..      UXTB     r4,r2
        0x0000349c:    55a9        .U      STRB     r1,[r5,r6]
        0x0000349e:    4601        .F      MOV      r1,r0
        0x000034a0:    e073        s.      B        0x358a ; GpsDataHandle + 618
    $d
        0x000034a2:    0000        ..      DCW    0
        0x000034a4:    00000020     ...    DCD    32
        0x000034a8:    0000002d    -...    DCD    45
        0x000034ac:    0000002c    ,...    DCD    44
        0x000034b0:    00007830    0x..    DCD    30768
        0x000034b4:    2000004c    L..     DCD    536870988
        0x000034b8:    2000067f    ...     DCD    536872575
        0x000034bc:    20000108    ...     DCD    536871176
        0x000034c0:    0000002e    ....    DCD    46
        0x000034c4:    00002d2c    ,-..    DCD    11564
        0x000034c8:    2000001b    ...     DCD    536870939
        0x000034cc:    20000028    (..     DCD    536870952
        0x000034d0:    2000001a    ...     DCD    536870938
        0x000034d4:    20000035    5..     DCD    536870965
        0x000034d8:    20000022    "..     DCD    536870946
        0x000034dc:    20000019    ...     DCD    536870937
        0x000034e0:    20000024    $..     DCD    536870948
        0x000034e4:    20000018    ...     DCD    536870936
        0x000034e8:    2000003a    :..     DCD    536870970
        0x000034ec:    20000200    ...     DCD    536871424
        0x000034f0:    434c432b    +CLC    DCD    1129071403
        0x000034f4:    00003a43    C:..    DCD    14915
        0x000034f8:    432b5441    AT+C    DCD    1126913089
        0x000034fc:    0d43434c    LCC.    DCD    222511948
        0x00003500:    0000000a    ....    DCD    10
        0x00003504:    2000025c    \..     DCD    536871516
        0x00003508:    20000048    H..     DCD    536870984
        0x0000350c:    432b5441    AT+C    DCD    1126913089
        0x00003510:    3d494d4e    NMI=    DCD    1028214094
        0x00003514:    2c312c32    2,1,    DCD    741420082
        0x00003518:    2c302c30    0,0,    DCD    741354544
        0x0000351c:    000a0d30    0...    DCD    658736
        0x00003520:    432b5441    AT+C    DCD    1126913089
        0x00003524:    3d46474d    MGF=    DCD    1028015949
        0x00003528:    000a0d31    1...    DCD    658737
        0x0000352c:    4d50432b    +CPM    DCD    1297105707
        0x00003530:    00003a53    S:..    DCD    14931
        0x00003534:    432b5441    AT+C    DCD    1126913089
        0x00003538:    3d534d50    PMS=    DCD    1028869456
        0x0000353c:    224d5322    "SM"    DCD    575492898
        0x00003540:    4d53222c    ,"SM    DCD    1297293868
        0x00003544:    53222c22    ","S    DCD    1394748450
        0x00003548:    0a0d224d    M"..    DCD    168632909
        0x0000354c:    00000000    ....    DCD    0
        0x00003550:    432b5441    AT+C    DCD    1126913089
        0x00003554:    3d44474d    MGD=    DCD    1027884877
        0x00003558:    0a0d342c    ,4..    DCD    168637484
        0x0000355c:    00000000    ....    DCD    0
        0x00003560:    6d736d73    smsm    DCD    1836281203
        0x00003564:    00007861    ax..    DCD    30817
        0x00003568:    e000e000    ....    DCD    3758153728
        0x0000356c:    2000003b    ;..     DCD    536870971
        0x00003570:    50004200    .B.P    DCD    1342194176
        0x00003574:    20000034    4..     DCD    536870964
        0x00003578:    6c363025    %06l    DCD    1815490597
        0x0000357c:    00000064    d...    DCD    100
    $t
        0x00003580:    185a        Z.      ADDS     r2,r3,r1
        0x00003582:    7852        Rx      LDRB     r2,[r2,#1]
        0x00003584:    545a        ZT      STRB     r2,[r3,r1]
        0x00003586:    1c49        I.      ADDS     r1,r1,#1
        0x00003588:    b2c9        ..      UXTB     r1,r1
        0x0000358a:    5c5a        Z\      LDRB     r2,[r3,r1]
        0x0000358c:    2a00        .*      CMP      r2,#0
        0x0000358e:    d1f7        ..      BNE      0x3580 ; GpsDataHandle + 608
        0x00003590:    1818        ..      ADDS     r0,r3,r0
        0x00003592:    4607        .F      MOV      r7,r0
        0x00003594:    1e80        ..      SUBS     r0,r0,#2
        0x00003596:    f002ff25    ..%.    BL       strlen ; 0x63e4
        0x0000359a:    b2c6        ..      UXTB     r6,r0
        0x0000359c:    1eb8        ..      SUBS     r0,r7,#2
        0x0000359e:    4631        1F      MOV      r1,r6
        0x000035a0:    f7fffeaa    ....    BL       StrToInt ; 0x32f8
        0x000035a4:    e004        ..      B        0x35b0 ; GpsDataHandle + 656
        0x000035a6:    210a        .!      MOVS     r1,#0xa
        0x000035a8:    f003f83a    ..:.    BL       __aeabi_uidiv ; 0x6620
        0x000035ac:    1e76        v.      SUBS     r6,r6,#1
        0x000035ae:    b2f6        ..      UXTB     r6,r6
        0x000035b0:    2e07        ..      CMP      r6,#7
        0x000035b2:    d8f8        ..      BHI      0x35a6 ; GpsDataHandle + 646
        0x000035b4:    e003        ..      B        0x35be ; GpsDataHandle + 670
        0x000035b6:    210a        .!      MOVS     r1,#0xa
        0x000035b8:    4348        HC      MULS     r0,r1,r0
        0x000035ba:    1c76        v.      ADDS     r6,r6,#1
        0x000035bc:    b2f6        ..      UXTB     r6,r6
        0x000035be:    2e07        ..      CMP      r6,#7
        0x000035c0:    d3f9        ..      BCC      0x35b6 ; GpsDataHandle + 662
        0x000035c2:    2106        .!      MOVS     r1,#6
        0x000035c4:    f003f82c    ..,.    BL       __aeabi_uidiv ; 0x6620
        0x000035c8:    4602        .F      MOV      r2,r0
        0x000035ca:    49f8        .I      LDR      r1,[pc,#992] ; [0x39ac] = 0x3578
        0x000035cc:    a801        ..      ADD      r0,sp,#4
        0x000035ce:    f002fd8d    ....    BL       __2sprintf ; 0x60ec
        0x000035d2:    1928        (.      ADDS     r0,r5,r4
        0x000035d4:    2206        ."      MOVS     r2,#6
        0x000035d6:    a901        ..      ADD      r1,sp,#4
        0x000035d8:    f002ffec    ....    BL       strncpy ; 0x65b4
        0x000035dc:    48f4        .H      LDR      r0,[pc,#976] ; [0x39b0] = 0x2000001a
        0x000035de:    4cf5        .L      LDR      r4,[pc,#980] ; [0x39b4] = 0x20000030
        0x000035e0:    7800        .x      LDRB     r0,[r0,#0]
        0x000035e2:    2801        .(      CMP      r0,#1
        0x000035e4:    d109        ..      BNE      0x35fa ; GpsDataHandle + 730
        0x000035e6:    48f4        .H      LDR      r0,[pc,#976] ; [0x39b8] = 0x2000001d
        0x000035e8:    7800        .x      LDRB     r0,[r0,#0]
        0x000035ea:    2805        .(      CMP      r0,#5
        0x000035ec:    d305        ..      BCC      0x35fa ; GpsDataHandle + 730
        0x000035ee:    7820         x      LDRB     r0,[r4,#0]
        0x000035f0:    2800        .(      CMP      r0,#0
        0x000035f2:    d102        ..      BNE      0x35fa ; GpsDataHandle + 730
        0x000035f4:    a0f1        ..      ADR      r0,{pc}+0x3c8 ; 0x39bc
        0x000035f6:    f7fff934    ..4.    BL       PlayVoice ; 0x2862
        0x000035fa:    2028        (       MOVS     r0,#0x28
        0x000035fc:    f7fffe6a    ..j.    BL       LedLight ; 0x32d4
        0x00003600:    2001        .       MOVS     r0,#1
        0x00003602:    7020         p      STRB     r0,[r4,#0]
        0x00003604:    e69e        ..      B        0x3344 ; GpsDataHandle + 36
    GetNum
        0x00003606:    b5ff        ..      PUSH     {r0-r7,lr}
        0x00003608:    b081        ..      SUB      sp,sp,#4
        0x0000360a:    9e0a        ..      LDR      r6,[sp,#0x28]
        0x0000360c:    460f        .F      MOV      r7,r1
        0x0000360e:    461d        .F      MOV      r5,r3
        0x00003610:    4639        9F      MOV      r1,r7
        0x00003612:    f002fead    ....    BL       strstr ; 0x6370
        0x00003616:    4604        .F      MOV      r4,r0
        0x00003618:    2c00        .,      CMP      r4,#0
        0x0000361a:    d015        ..      BEQ      0x3648 ; GetNum + 66
        0x0000361c:    4638        8F      MOV      r0,r7
        0x0000361e:    f002fee1    ....    BL       strlen ; 0x63e4
        0x00003622:    1907        ..      ADDS     r7,r0,r4
        0x00003624:    4638        8F      MOV      r0,r7
        0x00003626:    9903        ..      LDR      r1,[sp,#0xc]
        0x00003628:    f002fea2    ....    BL       strstr ; 0x6370
        0x0000362c:    4604        .F      MOV      r4,r0
        0x0000362e:    2c00        .,      CMP      r4,#0
        0x00003630:    d00a        ..      BEQ      0x3648 ; GetNum + 66
        0x00003632:    1be0        ..      SUBS     r0,r4,r7
        0x00003634:    42b0        .B      CMP      r0,r6
        0x00003636:    dc07        ..      BGT      0x3648 ; GetNum + 66
        0x00003638:    b2c1        ..      UXTB     r1,r0
        0x0000363a:    4638        8F      MOV      r0,r7
        0x0000363c:    f7fffdee    ....    BL       Txt2Dec ; 0x321c
        0x00003640:    7028        (p      STRB     r0,[r5,#0]
        0x00003642:    4620         F      MOV      r0,r4
        0x00003644:    b005        ..      ADD      sp,sp,#0x14
        0x00003646:    bdf0        ..      POP      {r4-r7,pc}
        0x00003648:    2000        .       MOVS     r0,#0
        0x0000364a:    e7fb        ..      B        0x3644 ; GetNum + 62
    SmsHave
        0x0000364c:    b57c        |.      PUSH     {r2-r6,lr}
        0x0000364e:    2400        .$      MOVS     r4,#0
        0x00003650:    9401        ..      STR      r4,[sp,#4]
        0x00003652:    4ee0        .N      LDR      r6,[pc,#896] ; [0x39d4] = 0x2000004c
        0x00003654:    79b0        .y      LDRB     r0,[r6,#6]
        0x00003656:    2800        .(      CMP      r0,#0
        0x00003658:    d101        ..      BNE      0x365e ; SmsHave + 18
        0x0000365a:    f7fffdef    ....    BL       SmsInit ; 0x323c
        0x0000365e:    49d3        .I      LDR      r1,[pc,#844] ; [0x39ac] = 0x3578
        0x00003660:    a0dd        ..      ADR      r0,{pc}+0x378 ; 0x39d8
        0x00003662:    394c        L9      SUBS     r1,r1,#0x4c
        0x00003664:    f001f983    ....    BL       SendAtCmdRsq ; 0x496e
        0x00003668:    2800        .(      CMP      r0,#0
        0x0000366a:    d019        ..      BEQ      0x36a0 ; SmsHave + 84
        0x0000366c:    2503        .%      MOVS     r5,#3
        0x0000366e:    49de        .I      LDR      r1,[pc,#888] ; [0x39e8] = 0x20000048
        0x00003670:    9500        ..      STR      r5,[sp,#0]
        0x00003672:    48dc        .H      LDR      r0,[pc,#880] ; [0x39e4] = 0x2000025c
        0x00003674:    8809        ..      LDRH     r1,[r1,#0]
        0x00003676:    ab01        ..      ADD      r3,sp,#4
        0x00003678:    1840        @.      ADDS     r0,r0,r1
        0x0000367a:    a2dc        ..      ADR      r2,{pc}+0x372 ; 0x39ec
        0x0000367c:    a1dc        ..      ADR      r1,{pc}+0x374 ; 0x39f0
        0x0000367e:    f7ffffc2    ....    BL       GetNum ; 0x3606
        0x00003682:    2800        .(      CMP      r0,#0
        0x00003684:    d00c        ..      BEQ      0x36a0 ; SmsHave + 84
        0x00003686:    78f1        .x      LDRB     r1,[r6,#3]
        0x00003688:    2900        .)      CMP      r1,#0
        0x0000368a:    d109        ..      BNE      0x36a0 ; SmsHave + 84
        0x0000368c:    1c40        @.      ADDS     r0,r0,#1
        0x0000368e:    4bd1        .K      LDR      r3,[pc,#836] ; [0x39d4] = 0x2000004c
        0x00003690:    a2d6        ..      ADR      r2,{pc}+0x35c ; 0x39ec
        0x00003692:    1cdb        ..      ADDS     r3,r3,#3
        0x00003694:    9500        ..      STR      r5,[sp,#0]
        0x00003696:    f7ffffb6    ....    BL       GetNum ; 0x3606
        0x0000369a:    2800        .(      CMP      r0,#0
        0x0000369c:    d100        ..      BNE      0x36a0 ; SmsHave + 84
        0x0000369e:    9401        ..      STR      r4,[sp,#4]
        0x000036a0:    4668        hF      MOV      r0,sp
        0x000036a2:    7901        .y      LDRB     r1,[r0,#4]
        0x000036a4:    2201        ."      MOVS     r2,#1
        0x000036a6:    a0d4        ..      ADR      r0,{pc}+0x352 ; 0x39f8
        0x000036a8:    f7fefe3a    ..:.    BL       debug_8 ; 0x2320
        0x000036ac:    4668        hF      MOV      r0,sp
        0x000036ae:    7900        .y      LDRB     r0,[r0,#4]
        0x000036b0:    bd7c        |.      POP      {r2-r6,pc}
    StandbyTimerHandle
        0x000036b2:    b570        p.      PUSH     {r4-r6,lr}
        0x000036b4:    4604        .F      MOV      r4,r0
        0x000036b6:    48be        .H      LDR      r0,[pc,#760] ; [0x39b0] = 0x2000001a
        0x000036b8:    7800        .x      LDRB     r0,[r0,#0]
        0x000036ba:    280c        .(      CMP      r0,#0xc
        0x000036bc:    d001        ..      BEQ      0x36c2 ; StandbyTimerHandle + 16
        0x000036be:    2000        .       MOVS     r0,#0
        0x000036c0:    bd70        p.      POP      {r4-r6,pc}
        0x000036c2:    4dc4        .M      LDR      r5,[pc,#784] ; [0x39d4] = 0x2000004c
        0x000036c4:    79e8        .y      LDRB     r0,[r5,#7]
        0x000036c6:    42a0        .B      CMP      r0,r4
        0x000036c8:    d901        ..      BLS      0x36ce ; StandbyTimerHandle + 28
        0x000036ca:    1b00        ..      SUBS     r0,r0,r4
        0x000036cc:    e000        ..      B        0x36d0 ; StandbyTimerHandle + 30
        0x000036ce:    2000        .       MOVS     r0,#0
        0x000036d0:    b2c0        ..      UXTB     r0,r0
        0x000036d2:    71e8        .q      STRB     r0,[r5,#7]
        0x000036d4:    7be9        .{      LDRB     r1,[r5,#0xf]
        0x000036d6:    4308        .C      ORRS     r0,r0,r1
        0x000036d8:    d10b        ..      BNE      0x36f2 ; StandbyTimerHandle + 64
        0x000036da:    f7ffffb7    ....    BL       SmsHave ; 0x364c
        0x000036de:    49c8        .I      LDR      r1,[pc,#800] ; [0x3a00] = 0x2000000f
        0x000036e0:    7809        .x      LDRB     r1,[r1,#0]
        0x000036e2:    4308        .C      ORRS     r0,r0,r1
        0x000036e4:    d002        ..      BEQ      0x36ec ; StandbyTimerHandle + 58
        0x000036e6:    2028        (       MOVS     r0,#0x28
        0x000036e8:    71e8        .q      STRB     r0,[r5,#7]
        0x000036ea:    e002        ..      B        0x36f2 ; StandbyTimerHandle + 64
        0x000036ec:    2001        .       MOVS     r0,#1
        0x000036ee:    f7fefffd    ....    BL       ModemSleep ; 0x26ec
        0x000036f2:    49c4        .I      LDR      r1,[pc,#784] ; [0x3a04] = 0x20000024
        0x000036f4:    8808        ..      LDRH     r0,[r1,#0]
        0x000036f6:    42a0        .B      CMP      r0,r4
        0x000036f8:    d901        ..      BLS      0x36fe ; StandbyTimerHandle + 76
        0x000036fa:    1b00        ..      SUBS     r0,r0,r4
        0x000036fc:    e000        ..      B        0x3700 ; StandbyTimerHandle + 78
        0x000036fe:    2000        .       MOVS     r0,#0
        0x00003700:    b280        ..      UXTH     r0,r0
        0x00003702:    8008        ..      STRH     r0,[r1,#0]
        0x00003704:    79ea        .y      LDRB     r2,[r5,#7]
        0x00003706:    2a00        .*      CMP      r2,#0
        0x00003708:    d004        ..      BEQ      0x3714 ; StandbyTimerHandle + 98
        0x0000370a:    2828        ((      CMP      r0,#0x28
        0x0000370c:    d202        ..      BCS      0x3714 ; StandbyTimerHandle + 98
        0x0000370e:    3028        (0      ADDS     r0,r0,#0x28
        0x00003710:    8008        ..      STRH     r0,[r1,#0]
        0x00003712:    e001        ..      B        0x3718 ; StandbyTimerHandle + 102
        0x00003714:    2800        .(      CMP      r0,#0
        0x00003716:    d001        ..      BEQ      0x371c ; StandbyTimerHandle + 106
        0x00003718:    2000        .       MOVS     r0,#0
        0x0000371a:    bd70        p.      POP      {r4-r6,pc}
        0x0000371c:    f7fff937    ..7.    BL       EnterPowerDown ; 0x298e
        0x00003720:    2001        .       MOVS     r0,#1
        0x00003722:    bd70        p.      POP      {r4-r6,pc}
    SecondHandle
        0x00003724:    b5f8        ..      PUSH     {r3-r7,lr}
        0x00003726:    2400        .$      MOVS     r4,#0
        0x00003728:    2600        .&      MOVS     r6,#0
        0x0000372a:    49b7        .I      LDR      r1,[pc,#732] ; [0x3a08] = 0x20000047
        0x0000372c:    e003        ..      B        0x3736 ; SecondHandle + 18
        0x0000372e:    3814        .8      SUBS     r0,r0,#0x14
        0x00003730:    7008        .p      STRB     r0,[r1,#0]
        0x00003732:    1c64        d.      ADDS     r4,r4,#1
        0x00003734:    b2e4        ..      UXTB     r4,r4
        0x00003736:    7808        .x      LDRB     r0,[r1,#0]
        0x00003738:    2814        .(      CMP      r0,#0x14
        0x0000373a:    d2f8        ..      BCS      0x372e ; SecondHandle + 10
        0x0000373c:    2c00        .,      CMP      r4,#0
        0x0000373e:    d07d        }.      BEQ      0x383c ; SecondHandle + 280
        0x00003740:    4620         F      MOV      r0,r4
        0x00003742:    f7ffffb6    ....    BL       StandbyTimerHandle ; 0x36b2
        0x00003746:    2800        .(      CMP      r0,#0
        0x00003748:    d178        x.      BNE      0x383c ; SecondHandle + 280
        0x0000374a:    4db0        .M      LDR      r5,[pc,#704] ; [0x3a0c] = 0x20000039
        0x0000374c:    4f98        .O      LDR      r7,[pc,#608] ; [0x39b0] = 0x2000001a
        0x0000374e:    7828        (x      LDRB     r0,[r5,#0]
        0x00003750:    2800        .(      CMP      r0,#0
        0x00003752:    d02d        -.      BEQ      0x37b0 ; SecondHandle + 140
        0x00003754:    49ae        .I      LDR      r1,[pc,#696] ; [0x3a10] = 0x2000003c
        0x00003756:    7809        .x      LDRB     r1,[r1,#0]
        0x00003758:    2900        .)      CMP      r1,#0
        0x0000375a:    d029        ).      BEQ      0x37b0 ; SecondHandle + 140
        0x0000375c:    42a0        .B      CMP      r0,r4
        0x0000375e:    d901        ..      BLS      0x3764 ; SecondHandle + 64
        0x00003760:    1b00        ..      SUBS     r0,r0,r4
        0x00003762:    e000        ..      B        0x3766 ; SecondHandle + 66
        0x00003764:    2000        .       MOVS     r0,#0
        0x00003766:    b2c0        ..      UXTB     r0,r0
        0x00003768:    7028        (p      STRB     r0,[r5,#0]
        0x0000376a:    2800        .(      CMP      r0,#0
        0x0000376c:    d120         .      BNE      0x37b0 ; SecondHandle + 140
        0x0000376e:    48a9        .H      LDR      r0,[pc,#676] ; [0x3a14] = 0x20000019
        0x00003770:    7800        .x      LDRB     r0,[r0,#0]
        0x00003772:    2800        .(      CMP      r0,#0
        0x00003774:    d01c        ..      BEQ      0x37b0 ; SecondHandle + 140
        0x00003776:    7838        8x      LDRB     r0,[r7,#0]
        0x00003778:    2801        .(      CMP      r0,#1
        0x0000377a:    d003        ..      BEQ      0x3784 ; SecondHandle + 96
        0x0000377c:    2806        .(      CMP      r0,#6
        0x0000377e:    d315        ..      BCC      0x37ac ; SecondHandle + 136
        0x00003780:    280c        .(      CMP      r0,#0xc
        0x00003782:    d013        ..      BEQ      0x37ac ; SecondHandle + 136
        0x00003784:    a0a4        ..      ADR      r0,{pc}+0x294 ; 0x3a18
        0x00003786:    f001f8a7    ....    BL       SendAtCommand ; 0x48d8
        0x0000378a:    2064        d       MOVS     r0,#0x64
        0x0000378c:    f001f956    ..V.    BL       module_WaitResponse ; 0x4a3c
        0x00003790:    4995        .I      LDR      r1,[pc,#596] ; [0x39e8] = 0x20000048
        0x00003792:    4894        .H      LDR      r0,[pc,#592] ; [0x39e4] = 0x2000025c
        0x00003794:    8809        ..      LDRH     r1,[r1,#0]
        0x00003796:    1840        @.      ADDS     r0,r0,r1
        0x00003798:    a1a3        ..      ADR      r1,{pc}+0x290 ; 0x3a28
        0x0000379a:    f002fde9    ....    BL       strstr ; 0x6370
        0x0000379e:    2800        .(      CMP      r0,#0
        0x000037a0:    d004        ..      BEQ      0x37ac ; SecondHandle + 136
        0x000037a2:    7a80        .z      LDRB     r0,[r0,#0xa]
        0x000037a4:    282c        ,(      CMP      r0,#0x2c
        0x000037a6:    d001        ..      BEQ      0x37ac ; SecondHandle + 136
        0x000037a8:    f7fffdba    ....    BL       GpsDataHandle ; 0x3320
        0x000037ac:    2014        .       MOVS     r0,#0x14
        0x000037ae:    7028        (p      STRB     r0,[r5,#0]
        0x000037b0:    4988        .I      LDR      r1,[pc,#544] ; [0x39d4] = 0x2000004c
        0x000037b2:    7888        .x      LDRB     r0,[r1,#2]
        0x000037b4:    42a0        .B      CMP      r0,r4
        0x000037b6:    d901        ..      BLS      0x37bc ; SecondHandle + 152
        0x000037b8:    1b00        ..      SUBS     r0,r0,r4
        0x000037ba:    e000        ..      B        0x37be ; SecondHandle + 154
        0x000037bc:    2000        .       MOVS     r0,#0
        0x000037be:    4985        .I      LDR      r1,[pc,#532] ; [0x39d4] = 0x2000004c
        0x000037c0:    7088        .p      STRB     r0,[r1,#2]
        0x000037c2:    4625        %F      MOV      r5,r4
        0x000037c4:    e00f        ..      B        0x37e6 ; SecondHandle + 194
        0x000037c6:    499b        .I      LDR      r1,[pc,#620] ; [0x3a34] = 0x2000004a
        0x000037c8:    7808        .x      LDRB     r0,[r1,#0]
        0x000037ca:    28ff        .(      CMP      r0,#0xff
        0x000037cc:    d064        d.      BEQ      0x3898 ; SecondHandle + 372
        0x000037ce:    1c40        @.      ADDS     r0,r0,#1
        0x000037d0:    b2c0        ..      UXTB     r0,r0
        0x000037d2:    7008        .p      STRB     r0,[r1,#0]
        0x000037d4:    280c        .(      CMP      r0,#0xc
        0x000037d6:    d004        ..      BEQ      0x37e2 ; SecondHandle + 190
        0x000037d8:    280e        .(      CMP      r0,#0xe
        0x000037da:    d104        ..      BNE      0x37e6 ; SecondHandle + 194
        0x000037dc:    f001fba1    ....    BL       GpsStart_2 ; 0x4f22
        0x000037e0:    e001        ..      B        0x37e6 ; SecondHandle + 194
        0x000037e2:    f7fffd2b    ..+.    BL       SmsInit ; 0x323c
        0x000037e6:    4620         F      MOV      r0,r4
        0x000037e8:    1e64        d.      SUBS     r4,r4,#1
        0x000037ea:    b2e4        ..      UXTB     r4,r4
        0x000037ec:    2800        .(      CMP      r0,#0
        0x000037ee:    d1ea        ..      BNE      0x37c6 ; SecondHandle + 162
        0x000037f0:    e052        R.      B        0x3898 ; SecondHandle + 372
        0x000037f2:    4c78        xL      LDR      r4,[pc,#480] ; [0x39d4] = 0x2000004c
        0x000037f4:    7a20         z      LDRB     r0,[r4,#8]
        0x000037f6:    1c40        @.      ADDS     r0,r0,#1
        0x000037f8:    b2c0        ..      UXTB     r0,r0
        0x000037fa:    7220         r      STRB     r0,[r4,#8]
        0x000037fc:    496e        nI      LDR      r1,[pc,#440] ; [0x39b8] = 0x2000001d
        0x000037fe:    7809        .x      LDRB     r1,[r1,#0]
        0x00003800:    2905        .)      CMP      r1,#5
        0x00003802:    d109        ..      BNE      0x3818 ; SecondHandle + 244
        0x00003804:    496b        kI      LDR      r1,[pc,#428] ; [0x39b4] = 0x20000030
        0x00003806:    7809        .x      LDRB     r1,[r1,#0]
        0x00003808:    2900        .)      CMP      r1,#0
        0x0000380a:    d105        ..      BNE      0x3818 ; SecondHandle + 244
        0x0000380c:    43c0        .C      MVNS     r0,r0
        0x0000380e:    06c0        ..      LSLS     r0,r0,#27
        0x00003810:    d102        ..      BNE      0x3818 ; SecondHandle + 244
        0x00003812:    4889        .H      LDR      r0,[pc,#548] ; [0x3a38] = 0x2fac
        0x00003814:    f7fff825    ..%.    BL       PlayVoice ; 0x2862
        0x00003818:    7838        8x      LDRB     r0,[r7,#0]
        0x0000381a:    1f00        ..      SUBS     r0,r0,#4
        0x0000381c:    2803        .(      CMP      r0,#3
        0x0000381e:    d206        ..      BCS      0x382e ; SecondHandle + 266
        0x00003820:    7a20         z      LDRB     r0,[r4,#8]
        0x00003822:    43c0        .C      MVNS     r0,r0
        0x00003824:    0700        ..      LSLS     r0,r0,#28
        0x00003826:    d102        ..      BNE      0x382e ; SecondHandle + 266
        0x00003828:    a084        ..      ADR      r0,{pc}+0x214 ; 0x3a3c
        0x0000382a:    f7fff81a    ....    BL       PlayVoice ; 0x2862
        0x0000382e:    f7fffcec    ....    BL       IsInCall ; 0x320a
        0x00003832:    2800        .(      CMP      r0,#0
        0x00003834:    d00c        ..      BEQ      0x3850 ; SecondHandle + 300
        0x00003836:    2106        .!      MOVS     r1,#6
        0x00003838:    7a20         z      LDRB     r0,[r4,#8]
        0x0000383a:    e000        ..      B        0x383e ; SecondHandle + 282
        0x0000383c:    e031        1.      B        0x38a2 ; SecondHandle + 382
        0x0000383e:    f002feef    ....    BL       __aeabi_uidiv ; 0x6620
        0x00003842:    2905        .)      CMP      r1,#5
        0x00003844:    d104        ..      BNE      0x3850 ; SecondHandle + 300
        0x00003846:    2e00        ..      CMP      r6,#0
        0x00003848:    d102        ..      BNE      0x3850 ; SecondHandle + 300
        0x0000384a:    f7fffcaf    ....    BL       QueryModuleSate ; 0x31ac
        0x0000384e:    2601        .&      MOVS     r6,#1
        0x00003850:    487f        .H      LDR      r0,[pc,#508] ; [0x3a50] = 0x2000001e
        0x00003852:    7800        .x      LDRB     r0,[r0,#0]
        0x00003854:    2800        .(      CMP      r0,#0
        0x00003856:    d10d        ..      BNE      0x3874 ; SecondHandle + 336
        0x00003858:    7a20         z      LDRB     r0,[r4,#8]
        0x0000385a:    0700        ..      LSLS     r0,r0,#28
        0x0000385c:    0f00        ..      LSRS     r0,r0,#28
        0x0000385e:    280e        .(      CMP      r0,#0xe
        0x00003860:    d108        ..      BNE      0x3874 ; SecondHandle + 336
        0x00003862:    7838        8x      LDRB     r0,[r7,#0]
        0x00003864:    280c        .(      CMP      r0,#0xc
        0x00003866:    d205        ..      BCS      0x3874 ; SecondHandle + 336
        0x00003868:    486a        jH      LDR      r0,[pc,#424] ; [0x3a14] = 0x20000019
        0x0000386a:    7800        .x      LDRB     r0,[r0,#0]
        0x0000386c:    2801        .(      CMP      r0,#1
        0x0000386e:    d101        ..      BNE      0x3874 ; SecondHandle + 336
        0x00003870:    f001fed1    ....    BL       AccountGet ; 0x5616
        0x00003874:    4850        PH      LDR      r0,[pc,#320] ; [0x39b8] = 0x2000001d
        0x00003876:    7800        .x      LDRB     r0,[r0,#0]
        0x00003878:    2805        .(      CMP      r0,#5
        0x0000387a:    d30d        ..      BCC      0x3898 ; SecondHandle + 372
        0x0000387c:    7920         y      LDRB     r0,[r4,#4]
        0x0000387e:    2800        .(      CMP      r0,#0
        0x00003880:    d10a        ..      BNE      0x3898 ; SecondHandle + 372
        0x00003882:    484c        LH      LDR      r0,[pc,#304] ; [0x39b4] = 0x20000030
        0x00003884:    7800        .x      LDRB     r0,[r0,#0]
        0x00003886:    2800        .(      CMP      r0,#0
        0x00003888:    d106        ..      BNE      0x3898 ; SecondHandle + 372
        0x0000388a:    486a        jH      LDR      r0,[pc,#424] ; [0x3a34] = 0x2000004a
        0x0000388c:    7800        .x      LDRB     r0,[r0,#0]
        0x0000388e:    43c0        .C      MVNS     r0,r0
        0x00003890:    0780        ..      LSLS     r0,r0,#30
        0x00003892:    d101        ..      BNE      0x3898 ; SecondHandle + 372
        0x00003894:    f7fffb3b    ..;.    BL       GetCpsiInfo ; 0x2f0e
        0x00003898:    4628        (F      MOV      r0,r5
        0x0000389a:    1e6d        m.      SUBS     r5,r5,#1
        0x0000389c:    b2ed        ..      UXTB     r5,r5
        0x0000389e:    2800        .(      CMP      r0,#0
        0x000038a0:    d1a7        ..      BNE      0x37f2 ; SecondHandle + 206
        0x000038a2:    bdf8        ..      POP      {r3-r7,pc}
    EnterStandby
        0x000038a4:    b510        ..      PUSH     {r4,lr}
        0x000038a6:    4842        BH      LDR      r0,[pc,#264] ; [0x39b0] = 0x2000001a
        0x000038a8:    7801        .x      LDRB     r1,[r0,#0]
        0x000038aa:    290c        .)      CMP      r1,#0xc
        0x000038ac:    d00f        ..      BEQ      0x38ce ; EnterStandby + 42
        0x000038ae:    210c        .!      MOVS     r1,#0xc
        0x000038b0:    7001        .p      STRB     r1,[r0,#0]
        0x000038b2:    f001fb2a    ..*.    BL       GpsStop ; 0x4f0a
        0x000038b6:    4853        SH      LDR      r0,[pc,#332] ; [0x3a04] = 0x20000024
        0x000038b8:    8800        ..      LDRH     r0,[r0,#0]
        0x000038ba:    2800        .(      CMP      r0,#0
        0x000038bc:    d007        ..      BEQ      0x38ce ; EnterStandby + 42
        0x000038be:    4845        EH      LDR      r0,[pc,#276] ; [0x39d4] = 0x2000004c
        0x000038c0:    3012        .0      ADDS     r0,r0,#0x12
        0x000038c2:    7800        .x      LDRB     r0,[r0,#0]
        0x000038c4:    28ff        .(      CMP      r0,#0xff
        0x000038c6:    d002        ..      BEQ      0x38ce ; EnterStandby + 42
        0x000038c8:    4942        BI      LDR      r1,[pc,#264] ; [0x39d4] = 0x2000004c
        0x000038ca:    2028        (       MOVS     r0,#0x28
        0x000038cc:    71c8        .q      STRB     r0,[r1,#7]
        0x000038ce:    bd10        ..      POP      {r4,pc}
    EnterAnswer
        0x000038d0:    b5f8        ..      PUSH     {r3-r7,lr}
        0x000038d2:    2400        .$      MOVS     r4,#0
        0x000038d4:    2502        .%      MOVS     r5,#2
        0x000038d6:    4e43        CN      LDR      r6,[pc,#268] ; [0x39e4] = 0x2000025c
        0x000038d8:    4f43        CO      LDR      r7,[pc,#268] ; [0x39e8] = 0x20000048
        0x000038da:    e022        ".      B        0x3922 ; EnterAnswer + 82
        0x000038dc:    a05d        ].      ADR      r0,{pc}+0x178 ; 0x3a54
        0x000038de:    f000fffb    ....    BL       SendAtCommand ; 0x48d8
        0x000038e2:    485e        ^H      LDR      r0,[pc,#376] ; [0x3a5c] = 0x20000045
        0x000038e4:    21c8        .!      MOVS     r1,#0xc8
        0x000038e6:    7001        .p      STRB     r1,[r0,#0]
        0x000038e8:    e013        ..      B        0x3912 ; EnterAnswer + 66
        0x000038ea:    8838        8.      LDRH     r0,[r7,#0]
        0x000038ec:    a15c        \.      ADR      r1,{pc}+0x174 ; 0x3a60
        0x000038ee:    1830        0.      ADDS     r0,r6,r0
        0x000038f0:    f002fd3e    ..>.    BL       strstr ; 0x6370
        0x000038f4:    2800        .(      CMP      r0,#0
        0x000038f6:    d001        ..      BEQ      0x38fc ; EnterAnswer + 44
        0x000038f8:    2401        .$      MOVS     r4,#1
        0x000038fa:    e012        ..      B        0x3922 ; EnterAnswer + 82
        0x000038fc:    8838        8.      LDRH     r0,[r7,#0]
        0x000038fe:    a15d        ].      ADR      r1,{pc}+0x176 ; 0x3a74
        0x00003900:    1830        0.      ADDS     r0,r6,r0
        0x00003902:    f002fd35    ..5.    BL       strstr ; 0x6370
        0x00003906:    2800        .(      CMP      r0,#0
        0x00003908:    d001        ..      BEQ      0x390e ; EnterAnswer + 62
        0x0000390a:    2402        .$      MOVS     r4,#2
        0x0000390c:    e009        ..      B        0x3922 ; EnterAnswer + 82
        0x0000390e:    f7fefc73    ..s.    BL       FeedWatchdog ; 0x21f8
        0x00003912:    4852        RH      LDR      r0,[pc,#328] ; [0x3a5c] = 0x20000045
        0x00003914:    7800        .x      LDRB     r0,[r0,#0]
        0x00003916:    2800        .(      CMP      r0,#0
        0x00003918:    d003        ..      BEQ      0x3922 ; EnterAnswer + 82
        0x0000391a:    4859        YH      LDR      r0,[pc,#356] ; [0x3a80] = 0x20000018
        0x0000391c:    7800        .x      LDRB     r0,[r0,#0]
        0x0000391e:    2800        .(      CMP      r0,#0
        0x00003920:    d0e3        ..      BEQ      0x38ea ; EnterAnswer + 26
        0x00003922:    2c00        .,      CMP      r4,#0
        0x00003924:    d104        ..      BNE      0x3930 ; EnterAnswer + 96
        0x00003926:    4628        (F      MOV      r0,r5
        0x00003928:    1e6d        m.      SUBS     r5,r5,#1
        0x0000392a:    b2ed        ..      UXTB     r5,r5
        0x0000392c:    2800        .(      CMP      r0,#0
        0x0000392e:    d1d5        ..      BNE      0x38dc ; EnterAnswer + 12
        0x00003930:    2c01        .,      CMP      r4,#1
        0x00003932:    d011        ..      BEQ      0x3958 ; EnterAnswer + 136
        0x00003934:    4853        SH      LDR      r0,[pc,#332] ; [0x3a84] = 0x20000200
        0x00003936:    4933        3I      LDR      r1,[pc,#204] ; [0x3a04] = 0x20000024
        0x00003938:    2c02        .,      CMP      r4,#2
        0x0000393a:    d010        ..      BEQ      0x395e ; EnterAnswer + 142
        0x0000393c:    8b00        ..      LDRH     r0,[r0,#0x18]
        0x0000393e:    8008        ..      STRH     r0,[r1,#0]
        0x00003940:    f001fa43    ..C.    BL       HuangupCall ; 0x4dca
        0x00003944:    2003        .       MOVS     r0,#3
        0x00003946:    f7fff811    ....    BL       PlayMusic ; 0x296c
        0x0000394a:    484d        MH      LDR      r0,[pc,#308] ; [0x3a80] = 0x20000018
        0x0000394c:    2101        .!      MOVS     r1,#1
        0x0000394e:    7001        .p      STRB     r1,[r0,#0]
        0x00003950:    494d        MI      LDR      r1,[pc,#308] ; [0x3a88] = 0x2000003a
        0x00003952:    203c        <       MOVS     r0,#0x3c
        0x00003954:    7008        .p      STRB     r0,[r1,#0]
        0x00003956:    bdf8        ..      POP      {r3-r7,pc}
        0x00003958:    f7fffbe0    ....    BL       CallActive ; 0x311c
        0x0000395c:    bdf8        ..      POP      {r3-r7,pc}
        0x0000395e:    8b00        ..      LDRH     r0,[r0,#0x18]
        0x00003960:    8008        ..      STRH     r0,[r1,#0]
        0x00003962:    f7ffff9f    ....    BL       EnterStandby ; 0x38a4
        0x00003966:    bdf8        ..      POP      {r3-r7,pc}
    EnterCall
        0x00003968:    b570        p.      PUSH     {r4-r6,lr}
        0x0000396a:    4c48        HL      LDR      r4,[pc,#288] ; [0x3a8c] = 0x20000035
        0x0000396c:    7820         x      LDRB     r0,[r4,#0]
        0x0000396e:    1c40        @.      ADDS     r0,r0,#1
        0x00003970:    b2c1        ..      UXTB     r1,r0
        0x00003972:    7021        !p      STRB     r1,[r4,#0]
        0x00003974:    2201        ."      MOVS     r2,#1
        0x00003976:    a046        F.      ADR      r0,{pc}+0x11a ; 0x3a90
        0x00003978:    f7fefcd2    ....    BL       debug_8 ; 0x2320
        0x0000397c:    4e0c        .N      LDR      r6,[pc,#48] ; [0x39b0] = 0x2000001a
        0x0000397e:    4d49        IM      LDR      r5,[pc,#292] ; [0x3aa4] = 0x20000022
        0x00003980:    7830        0x      LDRB     r0,[r6,#0]
        0x00003982:    2807        .(      CMP      r0,#7
        0x00003984:    d310        ..      BCC      0x39a8 ; EnterCall + 64
        0x00003986:    4823        #H      LDR      r0,[pc,#140] ; [0x3a14] = 0x20000019
        0x00003988:    7800        .x      LDRB     r0,[r0,#0]
        0x0000398a:    2800        .(      CMP      r0,#0
        0x0000398c:    d006        ..      BEQ      0x399c ; EnterCall + 52
        0x0000398e:    7820         x      LDRB     r0,[r4,#0]
        0x00003990:    2809        .(      CMP      r0,#9
        0x00003992:    d803        ..      BHI      0x399c ; EnterCall + 52
        0x00003994:    2000        .       MOVS     r0,#0
        0x00003996:    f7feffe9    ....    BL       PlayMusic ; 0x296c
        0x0000399a:    e002        ..      B        0x39a2 ; EnterCall + 58
        0x0000399c:    2004        .       MOVS     r0,#4
        0x0000399e:    f7feffe5    ....    BL       PlayMusic ; 0x296c
        0x000039a2:    203c        <       MOVS     r0,#0x3c
        0x000039a4:    8028        (.      STRH     r0,[r5,#0]
        0x000039a6:    e081        ..      B        0x3aac ; EnterCall + 324
        0x000039a8:    e07e        ~.      B        0x3aa8 ; EnterCall + 320
    $d
        0x000039aa:    0000        ..      DCW    0
        0x000039ac:    00003578    x5..    DCD    13688
        0x000039b0:    2000001a    ...     DCD    536870938
        0x000039b4:    20000030    0..     DCD    536870960
        0x000039b8:    2000001d    ...     DCD    536870941
        0x000039bc:    53504722    "GPS    DCD    1397770018
        0x000039c0:    65636572    rece    DCD    1701012850
        0x000039c4:    64657669    ived    DCD    1684371049
        0x000039c8:    7661772e    .wav    DCD    1986098990
        0x000039cc:    0d322c22    ",2.    DCD    221391906
        0x000039d0:    00000000    ....    DCD    0
        0x000039d4:    2000004c    L..     DCD    536870988
        0x000039d8:    432b5441    AT+C    DCD    1126913089
        0x000039dc:    3f534d50    PMS?    DCD    1062423888
        0x000039e0:    00000a0d    ....    DCD    2573
        0x000039e4:    2000025c    \..     DCD    536871516
        0x000039e8:    20000048    H..     DCD    536870984
        0x000039ec:    0000002c    ,...    DCD    44
        0x000039f0:    224d5322    "SM"    DCD    575492898
        0x000039f4:    0000002c    ,...    DCD    44
        0x000039f8:    20736d73    sms     DCD    544435571
        0x000039fc:    00746e63    cnt.    DCD    7630435
        0x00003a00:    2000000f    ...     DCD    536870927
        0x00003a04:    20000024    $..     DCD    536870948
        0x00003a08:    20000047    G..     DCD    536870983
        0x00003a0c:    20000039    9..     DCD    536870969
        0x00003a10:    2000003c    <..     DCD    536870972
        0x00003a14:    20000019    ...     DCD    536870937
        0x00003a18:    432b5441    AT+C    DCD    1126913089
        0x00003a1c:    49535047    GPSI    DCD    1230196807
        0x00003a20:    0d4f464e    NFO.    DCD    223299150
        0x00003a24:    0000000a    ....    DCD    10
        0x00003a28:    5047432b    +CGP    DCD    1346847531
        0x00003a2c:    464e4953    SINF    DCD    1179535699
        0x00003a30:    00003a4f    O:..    DCD    14927
        0x00003a34:    2000004a    J..     DCD    536870986
        0x00003a38:    00002fac    ./..    DCD    12204
        0x00003a3c:    656c5022    "Ple    DCD    1701597218
        0x00003a40:    77657361    asew    DCD    2003137377
        0x00003a44:    2e746961    ait.    DCD    779381089
        0x00003a48:    22766177    wav"    DCD    578183543
        0x00003a4c:    000d322c    ,2..    DCD    864812
        0x00003a50:    2000001e    ...     DCD    536870942
        0x00003a54:    0d415441    ATA.    DCD    222385217
        0x00003a58:    0000000a    ....    DCD    10
        0x00003a5c:    20000045    E..     DCD    536870981
        0x00003a60:    43494f56    VOIC    DCD    1128877910
        0x00003a64:    41432045    E CA    DCD    1094918213
        0x00003a68:    203a4c4c    LL:     DCD    540691532
        0x00003a6c:    49474542    BEGI    DCD    1229407554
        0x00003a70:    0000004e    N...    DCD    78
        0x00003a74:    5353494d    MISS    DCD    1397967181
        0x00003a78:    435f4445    ED_C    DCD    1130316869
        0x00003a7c:    004c4c41    ALL.    DCD    5000257
        0x00003a80:    20000018    ...     DCD    536870936
        0x00003a84:    20000200    ...     DCD    536871424
        0x00003a88:    2000003a    :..     DCD    536870970
        0x00003a8c:    20000035    5..     DCD    536870965
        0x00003a90:    43746e45    EntC    DCD    1131703877
        0x00003a94:    206c6c61    all     DCD    543976545
        0x00003a98:    6c6c6163    call    DCD    1819042147
        0x00003a9c:    3a736d54    Tms:    DCD    980643156
        0x00003aa0:    00000020     ...    DCD    32
        0x00003aa4:    20000022    "..     DCD    536870946
    $t
        0x00003aa8:    2001        .       MOVS     r0,#1
        0x00003aaa:    8028        (.      STRH     r0,[r5,#0]
        0x00003aac:    7820         x      LDRB     r0,[r4,#0]
        0x00003aae:    2801        .(      CMP      r0,#1
        0x00003ab0:    d102        ..      BNE      0x3ab8 ; EnterCall + 336
        0x00003ab2:    2000        .       MOVS     r0,#0
        0x00003ab4:    f7fcffe0    ....    BL       LogOnOff ; 0xa78
        0x00003ab8:    2007        .       MOVS     r0,#7
        0x00003aba:    7030        0p      STRB     r0,[r6,#0]
        0x00003abc:    bd70        p.      POP      {r4-r6,pc}
    KeyHandle
        0x00003abe:    b5f8        ..      PUSH     {r3-r7,lr}
        0x00003ac0:    48fb        .H      LDR      r0,[pc,#1004] ; [0x3eb0] = 0x2000002e
        0x00003ac2:    4dfc        .M      LDR      r5,[pc,#1008] ; [0x3eb4] = 0x20000035
        0x00003ac4:    7801        .x      LDRB     r1,[r0,#0]
        0x00003ac6:    2400        .$      MOVS     r4,#0
        0x00003ac8:    4efb        .N      LDR      r6,[pc,#1004] ; [0x3eb8] = 0x2000001a
        0x00003aca:    2900        .)      CMP      r1,#0
        0x00003acc:    d01f        ..      BEQ      0x3b0e ; KeyHandle + 80
        0x00003ace:    7004        .p      STRB     r4,[r0,#0]
        0x00003ad0:    7830        0x      LDRB     r0,[r6,#0]
        0x00003ad2:    280c        .(      CMP      r0,#0xc
        0x00003ad4:    d11b        ..      BNE      0x3b0e ; KeyHandle + 80
        0x00003ad6:    48f9        .H      LDR      r0,[pc,#996] ; [0x3ebc] = 0x2000002b
        0x00003ad8:    7800        .x      LDRB     r0,[r0,#0]
        0x00003ada:    2800        .(      CMP      r0,#0
        0x00003adc:    d117        ..      BNE      0x3b0e ; KeyHandle + 80
        0x00003ade:    f7fefde3    ....    BL       PressBatter ; 0x26a8
        0x00003ae2:    2800        .(      CMP      r0,#0
        0x00003ae4:    d113        ..      BNE      0x3b0e ; KeyHandle + 80
        0x00003ae6:    f7fefe01    ....    BL       ModemSleep ; 0x26ec
        0x00003aea:    48f5        .H      LDR      r0,[pc,#980] ; [0x3ec0] = 0x20000024
        0x00003aec:    8004        ..      STRH     r4,[r0,#0]
        0x00003aee:    702c        ,p      STRB     r4,[r5,#0]
        0x00003af0:    48f4        .H      LDR      r0,[pc,#976] ; [0x3ec4] = 0x20000106
        0x00003af2:    8004        ..      STRH     r4,[r0,#0]
        0x00003af4:    2028        (       MOVS     r0,#0x28
        0x00003af6:    f7fefbd0    ....    BL       delay_50ms ; 0x229a
        0x00003afa:    f002faa2    ....    BL       udpParamInit ; 0x6042
        0x00003afe:    f7ffff33    ..3.    BL       EnterCall ; 0x3968
        0x00003b02:    48f1        .H      LDR      r0,[pc,#964] ; [0x3ec8] = 0x2000001b
        0x00003b04:    7801        .x      LDRB     r1,[r0,#0]
        0x00003b06:    2904        .)      CMP      r1,#4
        0x00003b08:    d301        ..      BCC      0x3b0e ; KeyHandle + 80
        0x00003b0a:    2104        .!      MOVS     r1,#4
        0x00003b0c:    7001        .p      STRB     r1,[r0,#0]
        0x00003b0e:    48ef        .H      LDR      r0,[pc,#956] ; [0x3ecc] = 0x2000002d
        0x00003b10:    7801        .x      LDRB     r1,[r0,#0]
        0x00003b12:    2900        .)      CMP      r1,#0
        0x00003b14:    d01e        ..      BEQ      0x3b54 ; KeyHandle + 150
        0x00003b16:    7004        .p      STRB     r4,[r0,#0]
        0x00003b18:    7830        0x      LDRB     r0,[r6,#0]
        0x00003b1a:    280c        .(      CMP      r0,#0xc
        0x00003b1c:    d11a        ..      BNE      0x3b54 ; KeyHandle + 150
        0x00003b1e:    48ec        .H      LDR      r0,[pc,#944] ; [0x3ed0] = 0x2000002c
        0x00003b20:    7800        .x      LDRB     r0,[r0,#0]
        0x00003b22:    2800        .(      CMP      r0,#0
        0x00003b24:    d116        ..      BNE      0x3b54 ; KeyHandle + 150
        0x00003b26:    f7fefdd0    ....    BL       PressHelp ; 0x26ca
        0x00003b2a:    2800        .(      CMP      r0,#0
        0x00003b2c:    d112        ..      BNE      0x3b54 ; KeyHandle + 150
        0x00003b2e:    f7fefddd    ....    BL       ModemSleep ; 0x26ec
        0x00003b32:    2028        (       MOVS     r0,#0x28
        0x00003b34:    f7fefbb1    ....    BL       delay_50ms ; 0x229a
        0x00003b38:    2004        .       MOVS     r0,#4
        0x00003b3a:    f7fefe59    ..Y.    BL       MeasurePower ; 0x27f0
        0x00003b3e:    4fe5        .O      LDR      r7,[pc,#916] ; [0x3ed4] = 0x20000032
        0x00003b40:    8838        8.      LDRH     r0,[r7,#0]
        0x00003b42:    f7feff05    ....    BL       BatteryIndicate ; 0x2950
        0x00003b46:    803c        <.      STRH     r4,[r7,#0]
        0x00003b48:    2028        (       MOVS     r0,#0x28
        0x00003b4a:    f7fefba6    ....    BL       delay_50ms ; 0x229a
        0x00003b4e:    2001        .       MOVS     r0,#1
        0x00003b50:    f7fefdcc    ....    BL       ModemSleep ; 0x26ec
        0x00003b54:    f7fef8fa    ....    BL       GetKeyBatt ; 0x1d4c
        0x00003b58:    2800        .(      CMP      r0,#0
        0x00003b5a:    d019        ..      BEQ      0x3b90 ; KeyHandle + 210
        0x00003b5c:    7830        0x      LDRB     r0,[r6,#0]
        0x00003b5e:    280a        .(      CMP      r0,#0xa
        0x00003b60:    d004        ..      BEQ      0x3b6c ; KeyHandle + 174
        0x00003b62:    2809        .(      CMP      r0,#9
        0x00003b64:    d002        ..      BEQ      0x3b6c ; KeyHandle + 174
        0x00003b66:    2801        .(      CMP      r0,#1
        0x00003b68:    d00b        ..      BEQ      0x3b82 ; KeyHandle + 196
        0x00003b6a:    e011        ..      B        0x3b90 ; KeyHandle + 210
        0x00003b6c:    4fda        .O      LDR      r7,[pc,#872] ; [0x3ed8] = 0x20000038
        0x00003b6e:    2107        .!      MOVS     r1,#7
        0x00003b70:    7838        8x      LDRB     r0,[r7,#0]
        0x00003b72:    1c40        @.      ADDS     r0,r0,#1
        0x00003b74:    f002fd54    ..T.    BL       __aeabi_uidiv ; 0x6620
        0x00003b78:    7039        9p      STRB     r1,[r7,#0]
        0x00003b7a:    4608        .F      MOV      r0,r1
        0x00003b7c:    f001f819    ....    BL       AdjustVolume ; 0x4bb2
        0x00003b80:    e006        ..      B        0x3b90 ; KeyHandle + 210
        0x00003b82:    49d6        .I      LDR      r1,[pc,#856] ; [0x3edc] = 0x2000001d
        0x00003b84:    7808        .x      LDRB     r0,[r1,#0]
        0x00003b86:    1c40        @.      ADDS     r0,r0,#1
        0x00003b88:    b2c0        ..      UXTB     r0,r0
        0x00003b8a:    7008        .p      STRB     r0,[r1,#0]
        0x00003b8c:    f7fff887    ....    BL       enter_test_mode ; 0x2c9e
        0x00003b90:    f7fef8ce    ....    BL       GetKeyHelp ; 0x1d30
        0x00003b94:    2800        .(      CMP      r0,#0
        0x00003b96:    d017        ..      BEQ      0x3bc8 ; KeyHandle + 266
        0x00003b98:    48d1        .H      LDR      r0,[pc,#836] ; [0x3ee0] = 0x20000017
        0x00003b9a:    7800        .x      LDRB     r0,[r0,#0]
        0x00003b9c:    2800        .(      CMP      r0,#0
        0x00003b9e:    d113        ..      BNE      0x3bc8 ; KeyHandle + 266
        0x00003ba0:    7830        0x      LDRB     r0,[r6,#0]
        0x00003ba2:    2808        .(      CMP      r0,#8
        0x00003ba4:    d014        ..      BEQ      0x3bd0 ; KeyHandle + 274
        0x00003ba6:    2809        .(      CMP      r0,#9
        0x00003ba8:    d001        ..      BEQ      0x3bae ; KeyHandle + 240
        0x00003baa:    280a        .(      CMP      r0,#0xa
        0x00003bac:    d10c        ..      BNE      0x3bc8 ; KeyHandle + 266
        0x00003bae:    48cd        .H      LDR      r0,[pc,#820] ; [0x3ee4] = 0x20000019
        0x00003bb0:    7800        .x      LDRB     r0,[r0,#0]
        0x00003bb2:    2800        .(      CMP      r0,#0
        0x00003bb4:    d002        ..      BEQ      0x3bbc ; KeyHandle + 254
        0x00003bb6:    7828        (x      LDRB     r0,[r5,#0]
        0x00003bb8:    280a        .(      CMP      r0,#0xa
        0x00003bba:    d306        ..      BCC      0x3bca ; KeyHandle + 268
        0x00003bbc:    a0ca        ..      ADR      r0,{pc}+0x32c ; 0x3ee8
        0x00003bbe:    f000fe8b    ....    BL       SendAtCommand ; 0x48d8
        0x00003bc2:    2014        .       MOVS     r0,#0x14
        0x00003bc4:    f000ff3a    ..:.    BL       module_WaitResponse ; 0x4a3c
        0x00003bc8:    bdf8        ..      POP      {r3-r7,pc}
        0x00003bca:    f002fa6b    ..k.    BL       ResendGpsSig ; 0x60a4
        0x00003bce:    bdf8        ..      POP      {r3-r7,pc}
        0x00003bd0:    702c        ,p      STRB     r4,[r5,#0]
        0x00003bd2:    48bc        .H      LDR      r0,[pc,#752] ; [0x3ec4] = 0x20000106
        0x00003bd4:    8004        ..      STRH     r4,[r0,#0]
        0x00003bd6:    f7fffe7b    ..{.    BL       EnterAnswer ; 0x38d0
        0x00003bda:    bdf8        ..      POP      {r3-r7,pc}
    DisplaySignalLevel
        0x00003bdc:    49c6        .I      LDR      r1,[pc,#792] ; [0x3ef8] = 0x2000004c
        0x00003bde:    2806        .(      CMP      r0,#6
        0x00003be0:    d304        ..      BCC      0x3bec ; DisplaySignalLevel + 16
        0x00003be2:    2863        c(      CMP      r0,#0x63
        0x00003be4:    d002        ..      BEQ      0x3bec ; DisplaySignalLevel + 16
        0x00003be6:    2000        .       MOVS     r0,#0
        0x00003be8:    72c8        .r      STRB     r0,[r1,#0xb]
        0x00003bea:    4770        pG      BX       lr
        0x00003bec:    7ac8        .z      LDRB     r0,[r1,#0xb]
        0x00003bee:    1c40        @.      ADDS     r0,r0,#1
        0x00003bf0:    72c8        .r      STRB     r0,[r1,#0xb]
        0x00003bf2:    4770        pG      BX       lr
    Redial
        0x00003bf4:    e6b8        ..      B        EnterCall ; 0x3968
    Call
        0x00003bf6:    b5f8        ..      PUSH     {r3-r7,lr}
        0x00003bf8:    2414        .$      MOVS     r4,#0x14
        0x00003bfa:    4dae        .M      LDR      r5,[pc,#696] ; [0x3eb4] = 0x20000035
        0x00003bfc:    2201        ."      MOVS     r2,#1
        0x00003bfe:    7829        )x      LDRB     r1,[r5,#0]
        0x00003c00:    a0be        ..      ADR      r0,{pc}+0x2fc ; 0x3efc
        0x00003c02:    f7fefb8d    ....    BL       debug_8 ; 0x2320
        0x00003c06:    a0c1        ..      ADR      r0,{pc}+0x306 ; 0x3f0c
        0x00003c08:    f000fe66    ..f.    BL       SendAtCommand ; 0x48d8
        0x00003c0c:    48b5        .H      LDR      r0,[pc,#724] ; [0x3ee4] = 0x20000019
        0x00003c0e:    7800        .x      LDRB     r0,[r0,#0]
        0x00003c10:    2800        .(      CMP      r0,#0
        0x00003c12:    d002        ..      BEQ      0x3c1a ; Call + 36
        0x00003c14:    7829        )x      LDRB     r1,[r5,#0]
        0x00003c16:    2909        .)      CMP      r1,#9
        0x00003c18:    d903        ..      BLS      0x3c22 ; Call + 44
        0x00003c1a:    a0bd        ..      ADR      r0,{pc}+0x2f6 ; 0x3f10
        0x00003c1c:    f000fe5c    ..\.    BL       SendAtCommand ; 0x48d8
        0x00003c20:    e00e        ..      B        0x3c40 ; Call + 74
        0x00003c22:    48bc        .H      LDR      r0,[pc,#752] ; [0x3f14] = 0x200001c0
        0x00003c24:    2903        .)      CMP      r1,#3
        0x00003c26:    d802        ..      BHI      0x3c2e ; Call + 56
        0x00003c28:    f000fe56    ..V.    BL       SendAtCommand ; 0x48d8
        0x00003c2c:    e008        ..      B        0x3c40 ; Call + 74
        0x00003c2e:    2906        .)      CMP      r1,#6
        0x00003c30:    d804        ..      BHI      0x3c3c ; Call + 70
        0x00003c32:    48b8        .H      LDR      r0,[pc,#736] ; [0x3f14] = 0x200001c0
        0x00003c34:    3010        .0      ADDS     r0,r0,#0x10
        0x00003c36:    f000fe4f    ..O.    BL       SendAtCommand ; 0x48d8
        0x00003c3a:    e001        ..      B        0x3c40 ; Call + 74
        0x00003c3c:    f000fe4c    ..L.    BL       SendAtCommand ; 0x48d8
        0x00003c40:    a0b5        ..      ADR      r0,{pc}+0x2d8 ; 0x3f18
        0x00003c42:    f000fe49    ..I.    BL       SendAtCommand ; 0x48d8
        0x00003c46:    49b5        .I      LDR      r1,[pc,#724] ; [0x3f1c] = 0x20000047
        0x00003c48:    2000        .       MOVS     r0,#0
        0x00003c4a:    7008        .p      STRB     r0,[r1,#0]
        0x00003c4c:    4db4        .M      LDR      r5,[pc,#720] ; [0x3f20] = 0x2000025c
        0x00003c4e:    4eb5        .N      LDR      r6,[pc,#724] ; [0x3f24] = 0x20000048
        0x00003c50:    4fb5        .O      LDR      r7,[pc,#724] ; [0x3f28] = 0x2000003d
        0x00003c52:    e01d        ..      B        0x3c90 ; Call + 154
        0x00003c54:    49b1        .I      LDR      r1,[pc,#708] ; [0x3f1c] = 0x20000047
        0x00003c56:    7808        .x      LDRB     r0,[r1,#0]
        0x00003c58:    2814        .(      CMP      r0,#0x14
        0x00003c5a:    d305        ..      BCC      0x3c68 ; Call + 114
        0x00003c5c:    3814        .8      SUBS     r0,r0,#0x14
        0x00003c5e:    7008        .p      STRB     r0,[r1,#0]
        0x00003c60:    1e64        d.      SUBS     r4,r4,#1
        0x00003c62:    0624        $.      LSLS     r4,r4,#24
        0x00003c64:    0e24        $.      LSRS     r4,r4,#24
        0x00003c66:    d017        ..      BEQ      0x3c98 ; Call + 162
        0x00003c68:    7838        8x      LDRB     r0,[r7,#0]
        0x00003c6a:    2801        .(      CMP      r0,#1
        0x00003c6c:    d10e        ..      BNE      0x3c8c ; Call + 150
        0x00003c6e:    8830        0.      LDRH     r0,[r6,#0]
        0x00003c70:    2130        0!      MOVS     r1,#0x30
        0x00003c72:    1828        (.      ADDS     r0,r5,r0
        0x00003c74:    f002fb72    ..r.    BL       strchr ; 0x635c
        0x00003c78:    2800        .(      CMP      r0,#0
        0x00003c7a:    d10d        ..      BNE      0x3c98 ; Call + 162
        0x00003c7c:    8830        0.      LDRH     r0,[r6,#0]
        0x00003c7e:    2133        3!      MOVS     r1,#0x33
        0x00003c80:    1828        (.      ADDS     r0,r5,r0
        0x00003c82:    f002fb6b    ..k.    BL       strchr ; 0x635c
        0x00003c86:    2800        .(      CMP      r0,#0
        0x00003c88:    d106        ..      BNE      0x3c98 ; Call + 162
        0x00003c8a:    7038        8p      STRB     r0,[r7,#0]
        0x00003c8c:    f7fefab4    ....    BL       FeedWatchdog ; 0x21f8
        0x00003c90:    48a6        .H      LDR      r0,[pc,#664] ; [0x3f2c] = 0x20000018
        0x00003c92:    7800        .x      LDRB     r0,[r0,#0]
        0x00003c94:    2800        .(      CMP      r0,#0
        0x00003c96:    d0dd        ..      BEQ      0x3c54 ; Call + 94
        0x00003c98:    2c00        .,      CMP      r4,#0
        0x00003c9a:    d00e        ..      BEQ      0x3cba ; Call + 196
        0x00003c9c:    8830        0.      LDRH     r0,[r6,#0]
        0x00003c9e:    a1a4        ..      ADR      r1,{pc}+0x292 ; 0x3f30
        0x00003ca0:    1828        (.      ADDS     r0,r5,r0
        0x00003ca2:    f002fb65    ..e.    BL       strstr ; 0x6370
        0x00003ca6:    2800        .(      CMP      r0,#0
        0x00003ca8:    d007        ..      BEQ      0x3cba ; Call + 196
        0x00003caa:    4983        .I      LDR      r1,[pc,#524] ; [0x3eb8] = 0x2000001a
        0x00003cac:    2009        .       MOVS     r0,#9
        0x00003cae:    7008        .p      STRB     r0,[r1,#0]
        0x00003cb0:    20e1        .       MOVS     r0,#0xe1
        0x00003cb2:    49a0        .I      LDR      r1,[pc,#640] ; [0x3f34] = 0x20000022
        0x00003cb4:    00c0        ..      LSLS     r0,r0,#3
        0x00003cb6:    8008        ..      STRH     r0,[r1,#0]
        0x00003cb8:    bdf8        ..      POP      {r3-r7,pc}
        0x00003cba:    489c        .H      LDR      r0,[pc,#624] ; [0x3f2c] = 0x20000018
        0x00003cbc:    7800        .x      LDRB     r0,[r0,#0]
        0x00003cbe:    2800        .(      CMP      r0,#0
        0x00003cc0:    d1fa        ..      BNE      0x3cb8 ; Call + 194
        0x00003cc2:    f7fffa35    ..5.    BL       EnterCallFail ; 0x3130
        0x00003cc6:    bdf8        ..      POP      {r3-r7,pc}
    PowerDown
        0x00003cc8:    4885        .H      LDR      r0,[pc,#532] ; [0x3ee0] = 0x20000017
        0x00003cca:    7800        .x      LDRB     r0,[r0,#0]
        0x00003ccc:    2800        .(      CMP      r0,#0
        0x00003cce:    d108        ..      BNE      0x3ce2 ; PowerDown + 26
        0x00003cd0:    a399        ..      ADR      r3,{pc}+0x268 ; 0x3f38
        0x00003cd2:    2200        ."      MOVS     r2,#0
        0x00003cd4:    2103        .!      MOVS     r1,#3
        0x00003cd6:    2032        2       MOVS     r0,#0x32
        0x00003cd8:    f000fec8    ....    BL       SendAtWaitRsq ; 0x4a6c
        0x00003cdc:    2041        A       MOVS     r0,#0x41
        0x00003cde:    f7fefadc    ....    BL       delay_50ms ; 0x229a
        0x00003ce2:    f7fefd35    ..5.    BL       LedDark ; 0x2750
        0x00003ce6:    2000        .       MOVS     r0,#0
        0x00003ce8:    f7fefcdb    ....    BL       LockPower ; 0x26a2
        0x00003cec:    2001        .       MOVS     r0,#1
        0x00003cee:    f7fefcbb    ....    BL       ModulePowerOn ; 0x2668
        0x00003cf2:    2010        .       MOVS     r0,#0x10
        0x00003cf4:    f7fefad1    ....    BL       delay_50ms ; 0x229a
        0x00003cf8:    2000        .       MOVS     r0,#0
        0x00003cfa:    f7fefcb5    ....    BL       ModulePowerOn ; 0x2668
        0x00003cfe:    e7fe        ..      B        0x3cfe ; PowerDown + 54
    EnterEndCall
        0x00003d00:    b510        ..      PUSH     {r4,lr}
        0x00003d02:    4b90        .K      LDR      r3,[pc,#576] ; [0x3f44] = 0x2000003a
        0x00003d04:    e001        ..      B        0x3d0a ; EnterEndCall + 10
        0x00003d06:    f7fefa77    ..w.    BL       FeedWatchdog ; 0x21f8
        0x00003d0a:    7818        .x      LDRB     r0,[r3,#0]
        0x00003d0c:    2800        .(      CMP      r0,#0
        0x00003d0e:    d1fa        ..      BNE      0x3d06 ; EnterEndCall + 6
        0x00003d10:    488d        .H      LDR      r0,[pc,#564] ; [0x3f48] = 0x20000100
        0x00003d12:    7800        .x      LDRB     r0,[r0,#0]
        0x00003d14:    2800        .(      CMP      r0,#0
        0x00003d16:    d00c        ..      BEQ      0x3d32 ; EnterEndCall + 50
        0x00003d18:    4967        gI      LDR      r1,[pc,#412] ; [0x3eb8] = 0x2000001a
        0x00003d1a:    200d        .       MOVS     r0,#0xd
        0x00003d1c:    7008        .p      STRB     r0,[r1,#0]
        0x00003d1e:    488b        .H      LDR      r0,[pc,#556] ; [0x3f4c] = 0x2000002f
        0x00003d20:    2201        ."      MOVS     r2,#1
        0x00003d22:    7801        .x      LDRB     r1,[r0,#0]
        0x00003d24:    488a        .H      LDR      r0,[pc,#552] ; [0x3f50] = 0x20000030
        0x00003d26:    7800        .x      LDRB     r0,[r0,#0]
        0x00003d28:    f001fef1    ....    BL       SIAEventPacketCreate ; 0x5b0e
        0x00003d2c:    f001fe66    ..f.    BL       UdpSend ; 0x59fc
        0x00003d30:    bd10        ..      POP      {r4,pc}
        0x00003d32:    f7fffdb7    ....    BL       EnterStandby ; 0x38a4
        0x00003d36:    bd10        ..      POP      {r4,pc}
    AtProxy
        0x00003d38:    b510        ..      PUSH     {r4,lr}
        0x00003d3a:    210d        .!      MOVS     r1,#0xd
        0x00003d3c:    1c80        ..      ADDS     r0,r0,#2
        0x00003d3e:    f002fb0d    ....    BL       strchr ; 0x635c
        0x00003d42:    2800        .(      CMP      r0,#0
        0x00003d44:    d015        ..      BEQ      0x3d72 ; AtProxy + 58
        0x00003d46:    2100        .!      MOVS     r1,#0
        0x00003d48:    7041        Ap      STRB     r1,[r0,#1]
        0x00003d4a:    4882        .H      LDR      r0,[pc,#520] ; [0x3f54] = 0x20000539
        0x00003d4c:    f000fdc4    ....    BL       SendAtCommand ; 0x48d8
        0x00003d50:    2064        d       MOVS     r0,#0x64
        0x00003d52:    f000fe73    ..s.    BL       module_WaitResponse ; 0x4a3c
        0x00003d56:    2005        .       MOVS     r0,#5
        0x00003d58:    f7fefa9f    ....    BL       delay_50ms ; 0x229a
        0x00003d5c:    487e        ~H      LDR      r0,[pc,#504] ; [0x3f58] = 0x20000031
        0x00003d5e:    7800        .x      LDRB     r0,[r0,#0]
        0x00003d60:    2800        .(      CMP      r0,#0
        0x00003d62:    d105        ..      BNE      0x3d70 ; AtProxy + 56
        0x00003d64:    496f        oI      LDR      r1,[pc,#444] ; [0x3f24] = 0x20000048
        0x00003d66:    486e        nH      LDR      r0,[pc,#440] ; [0x3f20] = 0x2000025c
        0x00003d68:    8809        ..      LDRH     r1,[r1,#0]
        0x00003d6a:    1840        @.      ADDS     r0,r0,r1
        0x00003d6c:    f7fefa4a    ..J.    BL       SendDebugString ; 0x2204
        0x00003d70:    bd10        ..      POP      {r4,pc}
        0x00003d72:    a07a        z.      ADR      r0,{pc}+0x1ea ; 0x3f5c
        0x00003d74:    f7fefa46    ..F.    BL       SendDebugString ; 0x2204
        0x00003d78:    bd10        ..      POP      {r4,pc}
    findUdp
        0x00003d7a:    b5f0        ..      PUSH     {r4-r7,lr}
        0x00003d7c:    b093        ..      SUB      sp,sp,#0x4c
        0x00003d7e:    a079        y.      ADR      r0,{pc}+0x1e6 ; 0x3f64
        0x00003d80:    6842        Bh      LDR      r2,[r0,#4]
        0x00003d82:    6801        .h      LDR      r1,[r0,#0]
        0x00003d84:    6880        .h      LDR      r0,[r0,#8]
        0x00003d86:    9211        ..      STR      r2,[sp,#0x44]
        0x00003d88:    9110        ..      STR      r1,[sp,#0x40]
        0x00003d8a:    9012        ..      STR      r0,[sp,#0x48]
        0x00003d8c:    a810        ..      ADD      r0,sp,#0x40
        0x00003d8e:    f002fb29    ..).    BL       strlen ; 0x63e4
        0x00003d92:    b2c4        ..      UXTB     r4,r0
        0x00003d94:    2078        x       MOVS     r0,#0x78
        0x00003d96:    f7fefa55    ..U.    BL       delay_ms ; 0x2244
        0x00003d9a:    4d75        uM      LDR      r5,[pc,#468] ; [0x3f70] = 0x20000110
        0x00003d9c:    4975        uI      LDR      r1,[pc,#468] ; [0x3f74] = 0x20000696
        0x00003d9e:    7828        (x      LDRB     r0,[r5,#0]
        0x00003da0:    2640        @&      MOVS     r6,#0x40
        0x00003da2:    1a32        2.      SUBS     r2,r6,r0
        0x00003da4:    1809        ..      ADDS     r1,r1,r0
        0x00003da6:    4668        hF      MOV      r0,sp
        0x00003da8:    f002fb9a    ....    BL       __aeabi_memcpy ; 0x64e0
        0x00003dac:    782a        *x      LDRB     r2,[r5,#0]
        0x00003dae:    466d        mF      MOV      r5,sp
        0x00003db0:    1ab0        ..      SUBS     r0,r6,r2
        0x00003db2:    1940        @.      ADDS     r0,r0,r5
        0x00003db4:    496f        oI      LDR      r1,[pc,#444] ; [0x3f74] = 0x20000696
        0x00003db6:    f002fb93    ....    BL       __aeabi_memcpy ; 0x64e0
        0x00003dba:    2000        .       MOVS     r0,#0
        0x00003dbc:    a908        ..      ADD      r1,sp,#0x20
        0x00003dbe:    77c8        .w      STRB     r0,[r1,#0x1f]
        0x00003dc0:    2200        ."      MOVS     r2,#0
        0x00003dc2:    2040        @       MOVS     r0,#0x40
        0x00003dc4:    1a80        ..      SUBS     r0,r0,r2
        0x00003dc6:    42a0        .B      CMP      r0,r4
        0x00003dc8:    db4d        M.      BLT      0x3e66 ; findUdp + 236
        0x00003dca:    a910        ..      ADD      r1,sp,#0x40
        0x00003dcc:    5ca8        .\      LDRB     r0,[r5,r2]
        0x00003dce:    7809        .x      LDRB     r1,[r1,#0]
        0x00003dd0:    4288        .B      CMP      r0,r1
        0x00003dd2:    d14a        J.      BNE      0x3e6a ; findUdp + 240
        0x00003dd4:    1c50        P.      ADDS     r0,r2,#1
        0x00003dd6:    b2c0        ..      UXTB     r0,r0
        0x00003dd8:    2101        .!      MOVS     r1,#1
        0x00003dda:    ab10        ..      ADD      r3,sp,#0x40
        0x00003ddc:    e007        ..      B        0x3dee ; findUdp + 116
        0x00003dde:    5c2e        .\      LDRB     r6,[r5,r0]
        0x00003de0:    5c5f        _\      LDRB     r7,[r3,r1]
        0x00003de2:    42be        .B      CMP      r6,r7
        0x00003de4:    d105        ..      BNE      0x3df2 ; findUdp + 120
        0x00003de6:    1c49        I.      ADDS     r1,r1,#1
        0x00003de8:    b2c9        ..      UXTB     r1,r1
        0x00003dea:    1c40        @.      ADDS     r0,r0,#1
        0x00003dec:    b2c0        ..      UXTB     r0,r0
        0x00003dee:    42a1        .B      CMP      r1,r4
        0x00003df0:    d3f5        ..      BCC      0x3dde ; findUdp + 100
        0x00003df2:    42a1        .B      CMP      r1,r4
        0x00003df4:    d005        ..      BEQ      0x3e02 ; findUdp + 136
        0x00003df6:    e038        8.      B        0x3e6a ; findUdp + 240
        0x00003df8:    5c29        )\      LDRB     r1,[r5,r0]
        0x00003dfa:    292c        ,)      CMP      r1,#0x2c
        0x00003dfc:    d003        ..      BEQ      0x3e06 ; findUdp + 140
        0x00003dfe:    1c40        @.      ADDS     r0,r0,#1
        0x00003e00:    b2c0        ..      UXTB     r0,r0
        0x00003e02:    2840        @(      CMP      r0,#0x40
        0x00003e04:    d3f8        ..      BCC      0x3df8 ; findUdp + 126
        0x00003e06:    4601        .F      MOV      r1,r0
        0x00003e08:    e004        ..      B        0x3e14 ; findUdp + 154
        0x00003e0a:    5c6a        j\      LDRB     r2,[r5,r1]
        0x00003e0c:    2a3a        :*      CMP      r2,#0x3a
        0x00003e0e:    d003        ..      BEQ      0x3e18 ; findUdp + 158
        0x00003e10:    1c49        I.      ADDS     r1,r1,#1
        0x00003e12:    b2c9        ..      UXTB     r1,r1
        0x00003e14:    2840        @(      CMP      r0,#0x40
        0x00003e16:    d3f8        ..      BCC      0x3e0a ; findUdp + 144
        0x00003e18:    2940        @)      CMP      r1,#0x40
        0x00003e1a:    d224        $.      BCS      0x3e66 ; findUdp + 236
        0x00003e1c:    1a42        B.      SUBS     r2,r0,r1
        0x00003e1e:    2a03        .*      CMP      r2,#3
        0x00003e20:    dc21        !.      BGT      0x3e66 ; findUdp + 236
        0x00003e22:    1c40        @.      ADDS     r0,r0,#1
        0x00003e24:    b2c0        ..      UXTB     r0,r0
        0x00003e26:    e005        ..      B        0x3e34 ; findUdp + 186
        0x00003e28:    5c2a        *\      LDRB     r2,[r5,r0]
        0x00003e2a:    3a30        0:      SUBS     r2,r2,#0x30
        0x00003e2c:    2a09        .*      CMP      r2,#9
        0x00003e2e:    d81a        ..      BHI      0x3e66 ; findUdp + 236
        0x00003e30:    1c40        @.      ADDS     r0,r0,#1
        0x00003e32:    b2c0        ..      UXTB     r0,r0
        0x00003e34:    4288        .B      CMP      r0,r1
        0x00003e36:    d3f7        ..      BCC      0x3e28 ; findUdp + 174
        0x00003e38:    1cc0        ..      ADDS     r0,r0,#3
        0x00003e3a:    b2c0        ..      UXTB     r0,r0
        0x00003e3c:    2840        @(      CMP      r0,#0x40
        0x00003e3e:    d212        ..      BCS      0x3e66 ; findUdp + 236
        0x00003e40:    491d        .I      LDR      r1,[pc,#116] ; [0x3eb8] = 0x2000001a
        0x00003e42:    7809        .x      LDRB     r1,[r1,#0]
        0x00003e44:    290c        .)      CMP      r1,#0xc
        0x00003e46:    d00e        ..      BEQ      0x3e66 ; findUdp + 236
        0x00003e48:    2140        @!      MOVS     r1,#0x40
        0x00003e4a:    1a09        ..      SUBS     r1,r1,r0
        0x00003e4c:    2912        .)      CMP      r1,#0x12
        0x00003e4e:    dd00        ..      BLE      0x3e52 ; findUdp + 216
        0x00003e50:    2112        .!      MOVS     r1,#0x12
        0x00003e52:    b2ca        ..      UXTB     r2,r1
        0x00003e54:    4948        HI      LDR      r1,[pc,#288] ; [0x3f78] = 0x20000102
        0x00003e56:    700a        .p      STRB     r2,[r1,#0]
        0x00003e58:    1829        ).      ADDS     r1,r5,r0
        0x00003e5a:    4848        HH      LDR      r0,[pc,#288] ; [0x3f7c] = 0x2000064d
        0x00003e5c:    f002fb40    ..@.    BL       __aeabi_memcpy ; 0x64e0
        0x00003e60:    4947        GI      LDR      r1,[pc,#284] ; [0x3f80] = 0x200000fc
        0x00003e62:    2001        .       MOVS     r0,#1
        0x00003e64:    7008        .p      STRB     r0,[r1,#0]
        0x00003e66:    b013        ..      ADD      sp,sp,#0x4c
        0x00003e68:    bdf0        ..      POP      {r4-r7,pc}
        0x00003e6a:    1c52        R.      ADDS     r2,r2,#1
        0x00003e6c:    b2d2        ..      UXTB     r2,r2
        0x00003e6e:    2a40        @*      CMP      r2,#0x40
        0x00003e70:    d3a7        ..      BCC      0x3dc2 ; findUdp + 72
        0x00003e72:    e7f8        ..      B        0x3e66 ; findUdp + 236
    saveSmsIndex
        0x00003e74:    b578        x.      PUSH     {r3-r6,lr}
        0x00003e76:    2400        .$      MOVS     r4,#0
        0x00003e78:    4d1f        .M      LDR      r5,[pc,#124] ; [0x3ef8] = 0x2000004c
        0x00003e7a:    3512        .5      ADDS     r5,r5,#0x12
        0x00003e7c:    5d29        )]      LDRB     r1,[r5,r4]
        0x00003e7e:    29ff        .)      CMP      r1,#0xff
        0x00003e80:    d003        ..      BEQ      0x3e8a ; saveSmsIndex + 22
        0x00003e82:    1c64        d.      ADDS     r4,r4,#1
        0x00003e84:    b2e4        ..      UXTB     r4,r4
        0x00003e86:    2c04        .,      CMP      r4,#4
        0x00003e88:    d3f8        ..      BCC      0x3e7c ; saveSmsIndex + 8
        0x00003e8a:    2c04        .,      CMP      r4,#4
        0x00003e8c:    d20f        ..      BCS      0x3eae ; saveSmsIndex + 58
        0x00003e8e:    2100        .!      MOVS     r1,#0
        0x00003e90:    466b        kF      MOV      r3,sp
        0x00003e92:    5c42        B\      LDRB     r2,[r0,r1]
        0x00003e94:    4616        .F      MOV      r6,r2
        0x00003e96:    3e30        0>      SUBS     r6,r6,#0x30
        0x00003e98:    2e0a        ..      CMP      r6,#0xa
        0x00003e9a:    d204        ..      BCS      0x3ea6 ; saveSmsIndex + 50
        0x00003e9c:    545a        ZT      STRB     r2,[r3,r1]
        0x00003e9e:    1c49        I.      ADDS     r1,r1,#1
        0x00003ea0:    b2c9        ..      UXTB     r1,r1
        0x00003ea2:    2903        .)      CMP      r1,#3
        0x00003ea4:    d3f5        ..      BCC      0x3e92 ; saveSmsIndex + 30
        0x00003ea6:    4668        hF      MOV      r0,sp
        0x00003ea8:    f7fff9b8    ....    BL       Txt2Dec ; 0x321c
        0x00003eac:    5528        (U      STRB     r0,[r5,r4]
        0x00003eae:    bd78        x.      POP      {r3-r6,pc}
    $d
        0x00003eb0:    2000002e    ...     DCD    536870958
        0x00003eb4:    20000035    5..     DCD    536870965
        0x00003eb8:    2000001a    ...     DCD    536870938
        0x00003ebc:    2000002b    +..     DCD    536870955
        0x00003ec0:    20000024    $..     DCD    536870948
        0x00003ec4:    20000106    ...     DCD    536871174
        0x00003ec8:    2000001b    ...     DCD    536870939
        0x00003ecc:    2000002d    -..     DCD    536870957
        0x00003ed0:    2000002c    ,..     DCD    536870956
        0x00003ed4:    20000032    2..     DCD    536870962
        0x00003ed8:    20000038    8..     DCD    536870968
        0x00003edc:    2000001d    ...     DCD    536870941
        0x00003ee0:    20000017    ...     DCD    536870935
        0x00003ee4:    20000019    ...     DCD    536870937
        0x00003ee8:    562b5441    AT+V    DCD    1445680193
        0x00003eec:    313d5354    TS=1    DCD    826102612
        0x00003ef0:    0a0d302c    ,0..    DCD    168636460
        0x00003ef4:    00000000    ....    DCD    0
        0x00003ef8:    2000004c    L..     DCD    536870988
        0x00003efc:    6c6c6143    Call    DCD    1819042115
        0x00003f00:    6c616320     cal    DCD    1818321696
        0x00003f04:    736d546c    lTms    DCD    1936544876
        0x00003f08:    0000203a    : ..    DCD    8250
        0x00003f0c:    00445441    ATD.    DCD    4478017
        0x00003f10:    00313139    911.    DCD    3223865
        0x00003f14:    200001c0    ...     DCD    536871360
        0x00003f18:    000a0d3b    ;...    DCD    658747
        0x00003f1c:    20000047    G..     DCD    536870983
        0x00003f20:    2000025c    \..     DCD    536871516
        0x00003f24:    20000048    H..     DCD    536870984
        0x00003f28:    2000003d    =..     DCD    536870973
        0x00003f2c:    20000018    ...     DCD    536870936
        0x00003f30:    00000d30    0...    DCD    3376
        0x00003f34:    20000022    "..     DCD    536870946
        0x00003f38:    432b5441    AT+C    DCD    1126913089
        0x00003f3c:    0d464f50    POF.    DCD    222711632
        0x00003f40:    0000000a    ....    DCD    10
        0x00003f44:    2000003a    :..     DCD    536870970
        0x00003f48:    20000100    ...     DCD    536871168
        0x00003f4c:    2000002f    /..     DCD    536870959
        0x00003f50:    20000030    0..     DCD    536870960
        0x00003f54:    20000539    9..     DCD    536872249
        0x00003f58:    20000031    1..     DCD    536870961
        0x00003f5c:    0d525245    ERR.    DCD    223498821
        0x00003f60:    0000000a    ....    DCD    10
        0x00003f64:    4345522b    +REC    DCD    1128616491
        0x00003f68:    45564945    EIVE    DCD    1163282757
        0x00003f6c:    0000002c    ,...    DCD    44
        0x00003f70:    20000110    ...     DCD    536871184
        0x00003f74:    20000696    ...     DCD    536872598
        0x00003f78:    20000102    ...     DCD    536871170
        0x00003f7c:    2000064d    M..     DCD    536872525
        0x00003f80:    200000fc    ...     DCD    536871164
    $t
    MsgHandle
        0x00003f84:    b5f8        ..      PUSH     {r3-r7,lr}
        0x00003f86:    4ef7        .N      LDR      r6,[pc,#988] ; [0x4364] = 0x2000003d
        0x00003f88:    4df7        .M      LDR      r5,[pc,#988] ; [0x4368] = 0x2000001b
        0x00003f8a:    7830        0x      LDRB     r0,[r6,#0]
        0x00003f8c:    2801        .(      CMP      r0,#1
        0x00003f8e:    d17d        }.      BNE      0x408c ; MsgHandle + 264
        0x00003f90:    4cf6        .L      LDR      r4,[pc,#984] ; [0x436c] = 0x2000001a
        0x00003f92:    7820         x      LDRB     r0,[r4,#0]
        0x00003f94:    2809        .(      CMP      r0,#9
        0x00003f96:    d108        ..      BNE      0x3faa ; MsgHandle + 38
        0x00003f98:    49f5        .I      LDR      r1,[pc,#980] ; [0x4370] = 0x3a60
        0x00003f9a:    48f6        .H      LDR      r0,[pc,#984] ; [0x4374] = 0x2000025c
        0x00003f9c:    f002f9e8    ....    BL       strstr ; 0x6370
        0x00003fa0:    2800        .(      CMP      r0,#0
        0x00003fa2:    d002        ..      BEQ      0x3faa ; MsgHandle + 38
        0x00003fa4:    f7fff8ba    ....    BL       CallActive ; 0x311c
        0x00003fa8:    e023        #.      B        0x3ff2 ; MsgHandle + 110
        0x00003faa:    7820         x      LDRB     r0,[r4,#0]
        0x00003fac:    280a        .(      CMP      r0,#0xa
        0x00003fae:    d001        ..      BEQ      0x3fb4 ; MsgHandle + 48
        0x00003fb0:    2809        .(      CMP      r0,#9
        0x00003fb2:    d10f        ..      BNE      0x3fd4 ; MsgHandle + 80
        0x00003fb4:    a1f0        ..      ADR      r1,{pc}+0x3c4 ; 0x4378
        0x00003fb6:    48ef        .H      LDR      r0,[pc,#956] ; [0x4374] = 0x2000025c
        0x00003fb8:    f002f9da    ....    BL       strstr ; 0x6370
        0x00003fbc:    2800        .(      CMP      r0,#0
        0x00003fbe:    d009        ..      BEQ      0x3fd4 ; MsgHandle + 80
        0x00003fc0:    f7fff8df    ....    BL       EndCall ; 0x3182
        0x00003fc4:    2014        .       MOVS     r0,#0x14
        0x00003fc6:    f7fef968    ..h.    BL       delay_50ms ; 0x229a
        0x00003fca:    48ef        .H      LDR      r0,[pc,#956] ; [0x4388] = 0x20000028
        0x00003fcc:    8801        ..      LDRH     r1,[r0,#0]
        0x00003fce:    3123        #1      ADDS     r1,r1,#0x23
        0x00003fd0:    8001        ..      STRH     r1,[r0,#0]
        0x00003fd2:    e00e        ..      B        0x3ff2 ; MsgHandle + 110
        0x00003fd4:    7820         x      LDRB     r0,[r4,#0]
        0x00003fd6:    2808        .(      CMP      r0,#8
        0x00003fd8:    d10b        ..      BNE      0x3ff2 ; MsgHandle + 110
        0x00003fda:    a1ec        ..      ADR      r1,{pc}+0x3b2 ; 0x438c
        0x00003fdc:    48e5        .H      LDR      r0,[pc,#916] ; [0x4374] = 0x2000025c
        0x00003fde:    f002f9c7    ....    BL       strstr ; 0x6370
        0x00003fe2:    2800        .(      CMP      r0,#0
        0x00003fe4:    d005        ..      BEQ      0x3ff2 ; MsgHandle + 110
        0x00003fe6:    48ed        .H      LDR      r0,[pc,#948] ; [0x439c] = 0x20000200
        0x00003fe8:    49ed        .I      LDR      r1,[pc,#948] ; [0x43a0] = 0x20000024
        0x00003fea:    8b00        ..      LDRH     r0,[r0,#0x18]
        0x00003fec:    8008        ..      STRH     r0,[r1,#0]
        0x00003fee:    f7fffc59    ..Y.    BL       EnterStandby ; 0x38a4
        0x00003ff2:    7828        (x      LDRB     r0,[r5,#0]
        0x00003ff4:    4feb        .O      LDR      r7,[pc,#940] ; [0x43a4] = 0x20000022
        0x00003ff6:    2802        .(      CMP      r0,#2
        0x00003ff8:    d115        ..      BNE      0x4026 ; MsgHandle + 162
        0x00003ffa:    a1eb        ..      ADR      r1,{pc}+0x3ae ; 0x43a8
        0x00003ffc:    48dd        .H      LDR      r0,[pc,#884] ; [0x4374] = 0x2000025c
        0x00003ffe:    f002f9b7    ....    BL       strstr ; 0x6370
        0x00004002:    2800        .(      CMP      r0,#0
        0x00004004:    d105        ..      BNE      0x4012 ; MsgHandle + 142
        0x00004006:    a1ec        ..      ADR      r1,{pc}+0x3b2 ; 0x43b8
        0x00004008:    48da        .H      LDR      r0,[pc,#872] ; [0x4374] = 0x2000025c
        0x0000400a:    f002f9b1    ....    BL       strstr ; 0x6370
        0x0000400e:    2800        .(      CMP      r0,#0
        0x00004010:    d009        ..      BEQ      0x4026 ; MsgHandle + 162
        0x00004012:    2003        .       MOVS     r0,#3
        0x00004014:    7028        (p      STRB     r0,[r5,#0]
        0x00004016:    f001f86c    ..l.    BL       SockConnect ; 0x50f2
        0x0000401a:    7820         x      LDRB     r0,[r4,#0]
        0x0000401c:    2806        .(      CMP      r0,#6
        0x0000401e:    d10f        ..      BNE      0x4040 ; MsgHandle + 188
        0x00004020:    2064        d       MOVS     r0,#0x64
        0x00004022:    8038        8.      STRH     r0,[r7,#0]
        0x00004024:    e00c        ..      B        0x4040 ; MsgHandle + 188
        0x00004026:    7828        (x      LDRB     r0,[r5,#0]
        0x00004028:    2803        .(      CMP      r0,#3
        0x0000402a:    d109        ..      BNE      0x4040 ; MsgHandle + 188
        0x0000402c:    a1e9        ..      ADR      r1,{pc}+0x3a8 ; 0x43d4
        0x0000402e:    48d1        .H      LDR      r0,[pc,#836] ; [0x4374] = 0x2000025c
        0x00004030:    f002f99e    ....    BL       strstr ; 0x6370
        0x00004034:    2800        .(      CMP      r0,#0
        0x00004036:    d003        ..      BEQ      0x4040 ; MsgHandle + 188
        0x00004038:    2004        .       MOVS     r0,#4
        0x0000403a:    7028        (p      STRB     r0,[r5,#0]
        0x0000403c:    2014        .       MOVS     r0,#0x14
        0x0000403e:    8038        8.      STRH     r0,[r7,#0]
        0x00004040:    7820         x      LDRB     r0,[r4,#0]
        0x00004042:    2805        .(      CMP      r0,#5
        0x00004044:    d303        ..      BCC      0x404e ; MsgHandle + 202
        0x00004046:    a1eb        ..      ADR      r1,{pc}+0x3ae ; 0x43f4
        0x00004048:    48ca        .H      LDR      r0,[pc,#808] ; [0x4374] = 0x2000025c
        0x0000404a:    f002f991    ....    BL       strstr ; 0x6370
        0x0000404e:    a1eb        ..      ADR      r1,{pc}+0x3ae ; 0x43fc
        0x00004050:    48c8        .H      LDR      r0,[pc,#800] ; [0x4374] = 0x2000025c
        0x00004052:    f002f98d    ....    BL       strstr ; 0x6370
        0x00004056:    2800        .(      CMP      r0,#0
        0x00004058:    d017        ..      BEQ      0x408a ; MsgHandle + 262
        0x0000405a:    4fea        .O      LDR      r7,[pc,#936] ; [0x4404] = 0x2000004c
        0x0000405c:    2101        .!      MOVS     r1,#1
        0x0000405e:    70b9        .p      STRB     r1,[r7,#2]
        0x00004060:    212c        ,!      MOVS     r1,#0x2c
        0x00004062:    3008        .0      ADDS     r0,r0,#8
        0x00004064:    f002f97a    ..z.    BL       strchr ; 0x635c
        0x00004068:    2800        .(      CMP      r0,#0
        0x0000406a:    d002        ..      BEQ      0x4072 ; MsgHandle + 238
        0x0000406c:    1c40        @.      ADDS     r0,r0,#1
        0x0000406e:    f7ffff01    ....    BL       saveSmsIndex ; 0x3e74
        0x00004072:    7820         x      LDRB     r0,[r4,#0]
        0x00004074:    280c        .(      CMP      r0,#0xc
        0x00004076:    d108        ..      BNE      0x408a ; MsgHandle + 262
        0x00004078:    79f8        .y      LDRB     r0,[r7,#7]
        0x0000407a:    3028        (0      ADDS     r0,r0,#0x28
        0x0000407c:    71f8        .q      STRB     r0,[r7,#7]
        0x0000407e:    7bf8        .{      LDRB     r0,[r7,#0xf]
        0x00004080:    2801        .(      CMP      r0,#1
        0x00004082:    d102        ..      BNE      0x408a ; MsgHandle + 262
        0x00004084:    2000        .       MOVS     r0,#0
        0x00004086:    f7fefb31    ..1.    BL       ModemSleep ; 0x26ec
        0x0000408a:    e000        ..      B        0x408e ; MsgHandle + 266
        0x0000408c:    e019        ..      B        0x40c2 ; MsgHandle + 318
        0x0000408e:    7820         x      LDRB     r0,[r4,#0]
        0x00004090:    280a        .(      CMP      r0,#0xa
        0x00004092:    d127        '.      BNE      0x40e4 ; MsgHandle + 352
        0x00004094:    a1dc        ..      ADR      r1,{pc}+0x374 ; 0x4408
        0x00004096:    48b7        .H      LDR      r0,[pc,#732] ; [0x4374] = 0x2000025c
        0x00004098:    f002f96a    ..j.    BL       strstr ; 0x6370
        0x0000409c:    2800        .(      CMP      r0,#0
        0x0000409e:    d021        !.      BEQ      0x40e4 ; MsgHandle + 352
        0x000040a0:    7a40        @z      LDRB     r0,[r0,#9]
        0x000040a2:    49dc        .I      LDR      r1,[pc,#880] ; [0x4414] = 0x20000038
        0x000040a4:    2834        4(      CMP      r0,#0x34
        0x000040a6:    d004        ..      BEQ      0x40b2 ; MsgHandle + 302
        0x000040a8:    2837        7(      CMP      r0,#0x37
        0x000040aa:    d00b        ..      BEQ      0x40c4 ; MsgHandle + 320
        0x000040ac:    2839        9(      CMP      r0,#0x39
        0x000040ae:    d119        ..      BNE      0x40e4 ; MsgHandle + 352
        0x000040b0:    e011        ..      B        0x40d6 ; MsgHandle + 338
        0x000040b2:    7808        .x      LDRB     r0,[r1,#0]
        0x000040b4:    2806        .(      CMP      r0,#6
        0x000040b6:    d215        ..      BCS      0x40e4 ; MsgHandle + 352
        0x000040b8:    1c40        @.      ADDS     r0,r0,#1
        0x000040ba:    b2c0        ..      UXTB     r0,r0
        0x000040bc:    7008        .p      STRB     r0,[r1,#0]
        0x000040be:    f000fd78    ..x.    BL       AdjustVolume ; 0x4bb2
        0x000040c2:    e00f        ..      B        0x40e4 ; MsgHandle + 352
        0x000040c4:    7808        .x      LDRB     r0,[r1,#0]
        0x000040c6:    2800        .(      CMP      r0,#0
        0x000040c8:    d00c        ..      BEQ      0x40e4 ; MsgHandle + 352
        0x000040ca:    1e40        @.      SUBS     r0,r0,#1
        0x000040cc:    b2c0        ..      UXTB     r0,r0
        0x000040ce:    7008        .p      STRB     r0,[r1,#0]
        0x000040d0:    f000fd6f    ..o.    BL       AdjustVolume ; 0x4bb2
        0x000040d4:    e006        ..      B        0x40e4 ; MsgHandle + 352
        0x000040d6:    2001        .       MOVS     r0,#1
        0x000040d8:    f7fefc48    ..H.    BL       PlayMusic ; 0x296c
        0x000040dc:    f7fffe10    ....    BL       EnterEndCall ; 0x3d00
        0x000040e0:    f000fe73    ..s.    BL       HuangupCall ; 0x4dca
        0x000040e4:    49cc        .I      LDR      r1,[pc,#816] ; [0x4418] = 0x2000003e
        0x000040e6:    7830        0x      LDRB     r0,[r6,#0]
        0x000040e8:    7809        .x      LDRB     r1,[r1,#0]
        0x000040ea:    4308        .C      ORRS     r0,r0,r1
        0x000040ec:    d00f        ..      BEQ      0x410e ; MsgHandle + 394
        0x000040ee:    7828        (x      LDRB     r0,[r5,#0]
        0x000040f0:    2806        .(      CMP      r0,#6
        0x000040f2:    d10a        ..      BNE      0x410a ; MsgHandle + 390
        0x000040f4:    a1c9        ..      ADR      r1,{pc}+0x328 ; 0x441c
        0x000040f6:    489f        .H      LDR      r0,[pc,#636] ; [0x4374] = 0x2000025c
        0x000040f8:    f002f93a    ..:.    BL       strstr ; 0x6370
        0x000040fc:    2800        .(      CMP      r0,#0
        0x000040fe:    d004        ..      BEQ      0x410a ; MsgHandle + 390
        0x00004100:    20c8        .       MOVS     r0,#0xc8
        0x00004102:    f7fef89f    ....    BL       delay_ms ; 0x2244
        0x00004106:    f7fffe38    ..8.    BL       findUdp ; 0x3d7a
        0x0000410a:    f000fba5    ....    BL       ResetUartFlag ; 0x4858
        0x0000410e:    4dbd        .M      LDR      r5,[pc,#756] ; [0x4404] = 0x2000004c
        0x00004110:    7b68        h{      LDRB     r0,[r5,#0xd]
        0x00004112:    2800        .(      CMP      r0,#0
        0x00004114:    d01a        ..      BEQ      0x414c ; MsgHandle + 456
        0x00004116:    a1c4        ..      ADR      r1,{pc}+0x312 ; 0x4428
        0x00004118:    48c4        .H      LDR      r0,[pc,#784] ; [0x442c] = 0x20000539
        0x0000411a:    f002f929    ..).    BL       strstr ; 0x6370
        0x0000411e:    4ec3        .N      LDR      r6,[pc,#780] ; [0x442c] = 0x20000539
        0x00004120:    2800        .(      CMP      r0,#0
        0x00004122:    d00f        ..      BEQ      0x4144 ; MsgHandle + 448
        0x00004124:    2400        .$      MOVS     r4,#0
        0x00004126:    78b1        .x      LDRB     r1,[r6,#2]
        0x00004128:    4630        0F      MOV      r0,r6
        0x0000412a:    292b        +)      CMP      r1,#0x2b
        0x0000412c:    d105        ..      BNE      0x413a ; MsgHandle + 438
        0x0000412e:    1cc0        ..      ADDS     r0,r0,#3
        0x00004130:    f7fdfbe9    ....    BL       CustermHandle ; 0x1906
        0x00004134:    2800        .(      CMP      r0,#0
        0x00004136:    d000        ..      BEQ      0x413a ; MsgHandle + 438
        0x00004138:    2401        .$      MOVS     r4,#1
        0x0000413a:    2c00        .,      CMP      r4,#0
        0x0000413c:    d102        ..      BNE      0x4144 ; MsgHandle + 448
        0x0000413e:    48bb        .H      LDR      r0,[pc,#748] ; [0x442c] = 0x20000539
        0x00004140:    f7fffdfa    ....    BL       AtProxy ; 0x3d38
        0x00004144:    2100        .!      MOVS     r1,#0
        0x00004146:    7369        is      STRB     r1,[r5,#0xd]
        0x00004148:    7031        1p      STRB     r1,[r6,#0]
        0x0000414a:    73a9        .s      STRB     r1,[r5,#0xe]
        0x0000414c:    f7fef854    ..T.    BL       FeedWatchdog ; 0x21f8
        0x00004150:    bdf8        ..      POP      {r3-r7,pc}
    InitMsgDebug
        0x00004152:    4892        .H      LDR      r0,[pc,#584] ; [0x439c] = 0x20000200
        0x00004154:    3020         0      ADDS     r0,r0,#0x20
        0x00004156:    78c0        .x      LDRB     r0,[r0,#3]
        0x00004158:    2830        0(      CMP      r0,#0x30
        0x0000415a:    d001        ..      BEQ      0x4160 ; InitMsgDebug + 14
        0x0000415c:    2001        .       MOVS     r0,#1
        0x0000415e:    e000        ..      B        0x4162 ; InitMsgDebug + 16
        0x00004160:    2000        .       MOVS     r0,#0
        0x00004162:    49b3        .I      LDR      r1,[pc,#716] ; [0x4430] = 0x20000031
        0x00004164:    7008        .p      STRB     r0,[r1,#0]
        0x00004166:    4770        pG      BX       lr
    InitVariables
        0x00004168:    b510        ..      PUSH     {r4,lr}
        0x0000416a:    2140        @!      MOVS     r1,#0x40
        0x0000416c:    48b1        .H      LDR      r0,[pc,#708] ; [0x4434] = 0x20000696
        0x0000416e:    f002fa1d    ....    BL       __aeabi_memclr ; 0x65ac
        0x00004172:    48b1        .H      LDR      r0,[pc,#708] ; [0x4438] = 0x20000110
        0x00004174:    2400        .$      MOVS     r4,#0
        0x00004176:    7004        .p      STRB     r4,[r0,#0]
        0x00004178:    48b0        .H      LDR      r0,[pc,#704] ; [0x443c] = 0x20000042
        0x0000417a:    7004        .p      STRB     r4,[r0,#0]
        0x0000417c:    f000fb6c    ..l.    BL       ResetUartFlag ; 0x4858
        0x00004180:    48af        .H      LDR      r0,[pc,#700] ; [0x4440] = 0x2000010c
        0x00004182:    6801        .h      LDR      r1,[r0,#0]
        0x00004184:    48af        .H      LDR      r0,[pc,#700] ; [0x4444] = 0x2000067f
        0x00004186:    f002f907    ....    BL       strcpy ; 0x6398
        0x0000418a:    a1af        ..      ADR      r1,{pc}+0x2be ; 0x4448
        0x0000418c:    48af        .H      LDR      r0,[pc,#700] ; [0x444c] = 0x20000108
        0x0000418e:    f002f903    ....    BL       strcpy ; 0x6398
        0x00004192:    48af        .H      LDR      r0,[pc,#700] ; [0x4450] = 0x20000047
        0x00004194:    7004        .p      STRB     r4,[r0,#0]
        0x00004196:    48af        .H      LDR      r0,[pc,#700] ; [0x4454] = 0x2000004a
        0x00004198:    7004        .p      STRB     r4,[r0,#0]
        0x0000419a:    bd10        ..      POP      {r4,pc}
    Switch2Apn2
        0x0000419c:    b510        ..      PUSH     {r4,lr}
        0x0000419e:    4cae        .L      LDR      r4,[pc,#696] ; [0x4458] = 0x2000001c
        0x000041a0:    7820         x      LDRB     r0,[r4,#0]
        0x000041a2:    2800        .(      CMP      r0,#0
        0x000041a4:    d108        ..      BNE      0x41b8 ; Switch2Apn2 + 28
        0x000041a6:    f000ff99    ....    BL       SockClose ; 0x50dc
        0x000041aa:    2001        .       MOVS     r0,#1
        0x000041ac:    7020         p      STRB     r0,[r4,#0]
        0x000041ae:    496e        nI      LDR      r1,[pc,#440] ; [0x4368] = 0x2000001b
        0x000041b0:    2000        .       MOVS     r0,#0
        0x000041b2:    7008        .p      STRB     r0,[r1,#0]
        0x000041b4:    f000fee7    ....    BL       SockOpen ; 0x4f86
        0x000041b8:    bd10        ..      POP      {r4,pc}
    Txt2Hex
        0x000041ba:    7801        .x      LDRB     r1,[r0,#0]
        0x000041bc:    2941        A)      CMP      r1,#0x41
        0x000041be:    d302        ..      BCC      0x41c6 ; Txt2Hex + 12
        0x000041c0:    3937        79      SUBS     r1,r1,#0x37
        0x000041c2:    b2c9        ..      UXTB     r1,r1
        0x000041c4:    e001        ..      B        0x41ca ; Txt2Hex + 16
        0x000041c6:    3930        09      SUBS     r1,r1,#0x30
        0x000041c8:    b2c9        ..      UXTB     r1,r1
        0x000041ca:    0709        ..      LSLS     r1,r1,#28
        0x000041cc:    0e09        ..      LSRS     r1,r1,#24
        0x000041ce:    7840        @x      LDRB     r0,[r0,#1]
        0x000041d0:    2841        A(      CMP      r0,#0x41
        0x000041d2:    d303        ..      BCC      0x41dc ; Txt2Hex + 34
        0x000041d4:    1808        ..      ADDS     r0,r1,r0
        0x000041d6:    3837        78      SUBS     r0,r0,#0x37
        0x000041d8:    b2c0        ..      UXTB     r0,r0
        0x000041da:    4770        pG      BX       lr
        0x000041dc:    1808        ..      ADDS     r0,r1,r0
        0x000041de:    3830        08      SUBS     r0,r0,#0x30
        0x000041e0:    b2c0        ..      UXTB     r0,r0
        0x000041e2:    4770        pG      BX       lr
    GetSmsContent
        0x000041e4:    b5f8        ..      PUSH     {r3-r7,lr}
        0x000041e6:    4604        .F      MOV      r4,r0
        0x000041e8:    460e        .F      MOV      r6,r1
        0x000041ea:    f000fb35    ..5.    BL       ResetUartFlag ; 0x4858
        0x000041ee:    4621        !F      MOV      r1,r4
        0x000041f0:    a09a        ..      ADR      r0,{pc}+0x26c ; 0x445c
        0x000041f2:    f000fb98    ....    BL       SendAtCommand2 ; 0x4926
        0x000041f6:    4f9c        .O      LDR      r7,[pc,#624] ; [0x4468] = 0x20000044
        0x000041f8:    2032        2       MOVS     r0,#0x32
        0x000041fa:    7038        8p      STRB     r0,[r7,#0]
        0x000041fc:    4c59        YL      LDR      r4,[pc,#356] ; [0x4364] = 0x2000003d
        0x000041fe:    2500        .%      MOVS     r5,#0
        0x00004200:    4b9a        .K      LDR      r3,[pc,#616] ; [0x446c] = 0x20000018
        0x00004202:    e007        ..      B        0x4214 ; GetSmsContent + 48
        0x00004204:    7820         x      LDRB     r0,[r4,#0]
        0x00004206:    2801        .(      CMP      r0,#1
        0x00004208:    d00a        ..      BEQ      0x4220 ; GetSmsContent + 60
        0x0000420a:    7838        8x      LDRB     r0,[r7,#0]
        0x0000420c:    2800        .(      CMP      r0,#0
        0x0000420e:    d007        ..      BEQ      0x4220 ; GetSmsContent + 60
        0x00004210:    f7fdfff2    ....    BL       FeedWatchdog ; 0x21f8
        0x00004214:    7818        .x      LDRB     r0,[r3,#0]
        0x00004216:    2800        .(      CMP      r0,#0
        0x00004218:    d0f4        ..      BEQ      0x4204 ; GetSmsContent + 32
        0x0000421a:    2050        P       MOVS     r0,#0x50
        0x0000421c:    7038        8p      STRB     r0,[r7,#0]
        0x0000421e:    e009        ..      B        0x4234 ; GetSmsContent + 80
        0x00004220:    7025        %p      STRB     r5,[r4,#0]
        0x00004222:    e7fa        ..      B        0x421a ; GetSmsContent + 54
        0x00004224:    7820         x      LDRB     r0,[r4,#0]
        0x00004226:    2801        .(      CMP      r0,#1
        0x00004228:    d01f        ..      BEQ      0x426a ; GetSmsContent + 134
        0x0000422a:    7838        8x      LDRB     r0,[r7,#0]
        0x0000422c:    2800        .(      CMP      r0,#0
        0x0000422e:    d01c        ..      BEQ      0x426a ; GetSmsContent + 134
        0x00004230:    f7fdffe2    ....    BL       FeedWatchdog ; 0x21f8
        0x00004234:    7818        .x      LDRB     r0,[r3,#0]
        0x00004236:    2800        .(      CMP      r0,#0
        0x00004238:    d0f4        ..      BEQ      0x4224 ; GetSmsContent + 64
        0x0000423a:    4c8d        .L      LDR      r4,[pc,#564] ; [0x4470] = 0x20000040
        0x0000423c:    8820         .      LDRH     r0,[r4,#0]
        0x0000423e:    28dc        .(      CMP      r0,#0xdc
        0x00004240:    d900        ..      BLS      0x4244 ; GetSmsContent + 96
        0x00004242:    20dc        .       MOVS     r0,#0xdc
        0x00004244:    b2c7        ..      UXTB     r7,r0
        0x00004246:    463a        :F      MOV      r2,r7
        0x00004248:    494a        JI      LDR      r1,[pc,#296] ; [0x4374] = 0x2000025c
        0x0000424a:    4630        0F      MOV      r0,r6
        0x0000424c:    f002f948    ..H.    BL       __aeabi_memcpy ; 0x64e0
        0x00004250:    55f5        .U      STRB     r5,[r6,r7]
        0x00004252:    7821        !x      LDRB     r1,[r4,#0]
        0x00004254:    2201        ."      MOVS     r2,#1
        0x00004256:    a087        ..      ADR      r0,{pc}+0x21e ; 0x4474
        0x00004258:    f7fef862    ..b.    BL       debug_8 ; 0x2320
        0x0000425c:    4630        0F      MOV      r0,r6
        0x0000425e:    f7fdffdc    ....    BL       debug ; 0x221a
        0x00004262:    a086        ..      ADR      r0,{pc}+0x21a ; 0x447c
        0x00004264:    f7fdffd9    ....    BL       debug ; 0x221a
        0x00004268:    bdf8        ..      POP      {r3-r7,pc}
        0x0000426a:    7025        %p      STRB     r5,[r4,#0]
        0x0000426c:    e7e5        ..      B        0x423a ; GetSmsContent + 86
    GetSmsMainBody
        0x0000426e:    b570        p.      PUSH     {r4-r6,lr}
        0x00004270:    4604        .F      MOV      r4,r0
        0x00004272:    212c        ,!      MOVS     r1,#0x2c
        0x00004274:    4620         F      MOV      r0,r4
        0x00004276:    f002f871    ..q.    BL       strchr ; 0x635c
        0x0000427a:    2800        .(      CMP      r0,#0
        0x0000427c:    d005        ..      BEQ      0x428a ; GetSmsMainBody + 28
        0x0000427e:    7841        Ax      LDRB     r1,[r0,#1]
        0x00004280:    1c82        ..      ADDS     r2,r0,#2
        0x00004282:    2922        ")      CMP      r1,#0x22
        0x00004284:    d003        ..      BEQ      0x428e ; GetSmsMainBody + 32
        0x00004286:    2000        .       MOVS     r0,#0
        0x00004288:    bd70        p.      POP      {r4-r6,pc}
        0x0000428a:    2000        .       MOVS     r0,#0
        0x0000428c:    bd70        p.      POP      {r4-r6,pc}
        0x0000428e:    2100        .!      MOVS     r1,#0
        0x00004290:    4b66        fK      LDR      r3,[pc,#408] ; [0x442c] = 0x20000539
        0x00004292:    3b14        .;      SUBS     r3,r3,#0x14
        0x00004294:    e002        ..      B        0x429c ; GetSmsMainBody + 46
        0x00004296:    5458        XT      STRB     r0,[r3,r1]
        0x00004298:    1c49        I.      ADDS     r1,r1,#1
        0x0000429a:    b289        ..      UXTH     r1,r1
        0x0000429c:    5c50        P\      LDRB     r0,[r2,r1]
        0x0000429e:    2822        "(      CMP      r0,#0x22
        0x000042a0:    d001        ..      BEQ      0x42a6 ; GetSmsMainBody + 56
        0x000042a2:    2914        .)      CMP      r1,#0x14
        0x000042a4:    d3f7        ..      BCC      0x4296 ; GetSmsMainBody + 40
        0x000042a6:    2500        .%      MOVS     r5,#0
        0x000042a8:    545d        ]T      STRB     r5,[r3,r1]
        0x000042aa:    210d        .!      MOVS     r1,#0xd
        0x000042ac:    4610        .F      MOV      r0,r2
        0x000042ae:    f002f855    ..U.    BL       strchr ; 0x635c
        0x000042b2:    4606        .F      MOV      r6,r0
        0x000042b4:    2e00        ..      CMP      r6,#0
        0x000042b6:    d008        ..      BEQ      0x42ca ; GetSmsMainBody + 92
        0x000042b8:    4620         F      MOV      r0,r4
        0x000042ba:    f002f893    ....    BL       strlen ; 0x63e4
        0x000042be:    b283        ..      UXTH     r3,r0
        0x000042c0:    1b31        1.      SUBS     r1,r6,r4
        0x000042c2:    2000        .       MOVS     r0,#0
        0x000042c4:    1c49        I.      ADDS     r1,r1,#1
        0x000042c6:    b289        ..      UXTH     r1,r1
        0x000042c8:    e009        ..      B        0x42de ; GetSmsMainBody + 112
        0x000042ca:    2000        .       MOVS     r0,#0
        0x000042cc:    bd70        p.      POP      {r4-r6,pc}
        0x000042ce:    460a        .F      MOV      r2,r1
        0x000042d0:    5ca6        .\      LDRB     r6,[r4,r2]
        0x000042d2:    1c49        I.      ADDS     r1,r1,#1
        0x000042d4:    4602        .F      MOV      r2,r0
        0x000042d6:    1c40        @.      ADDS     r0,r0,#1
        0x000042d8:    b289        ..      UXTH     r1,r1
        0x000042da:    b280        ..      UXTH     r0,r0
        0x000042dc:    54a6        .T      STRB     r6,[r4,r2]
        0x000042de:    4299        .B      CMP      r1,r3
        0x000042e0:    d3f5        ..      BCC      0x42ce ; GetSmsMainBody + 96
        0x000042e2:    5425        %T      STRB     r5,[r4,r0]
        0x000042e4:    2001        .       MOVS     r0,#1
        0x000042e6:    bd70        p.      POP      {r4-r6,pc}
    SmsExist
        0x000042e8:    b510        ..      PUSH     {r4,lr}
        0x000042ea:    220f        ."      MOVS     r2,#0xf
        0x000042ec:    a165        e.      ADR      r1,{pc}+0x198 ; 0x4484
        0x000042ee:    f002f89b    ....    BL       strncmp ; 0x6428
        0x000042f2:    2800        .(      CMP      r0,#0
        0x000042f4:    d001        ..      BEQ      0x42fa ; SmsExist + 18
        0x000042f6:    2001        .       MOVS     r0,#1
        0x000042f8:    bd10        ..      POP      {r4,pc}
        0x000042fa:    2000        .       MOVS     r0,#0
        0x000042fc:    bd10        ..      POP      {r4,pc}
    SmsDel
        0x000042fe:    b510        ..      PUSH     {r4,lr}
        0x00004300:    4601        .F      MOV      r1,r0
        0x00004302:    a064        d.      ADR      r0,{pc}+0x192 ; 0x4494
        0x00004304:    f000fb0f    ....    BL       SendAtCommand2 ; 0x4926
        0x00004308:    2032        2       MOVS     r0,#0x32
        0x0000430a:    f000fb97    ....    BL       module_WaitResponse ; 0x4a3c
        0x0000430e:    bd10        ..      POP      {r4,pc}
    SmsAck
        0x00004310:    b538        8.      PUSH     {r3-r5,lr}
        0x00004312:    4604        .F      MOV      r4,r0
        0x00004314:    a062        b.      ADR      r0,{pc}+0x18c ; 0x44a0
        0x00004316:    6800        .h      LDR      r0,[r0,#0]
        0x00004318:    9000        ..      STR      r0,[sp,#0]
        0x0000431a:    a062        b.      ADR      r0,{pc}+0x18a ; 0x44a4
        0x0000431c:    f000fadc    ....    BL       SendAtCommand ; 0x48d8
        0x00004320:    4842        BH      LDR      r0,[pc,#264] ; [0x442c] = 0x20000539
        0x00004322:    3814        .8      SUBS     r0,r0,#0x14
        0x00004324:    f000fad8    ....    BL       SendAtCommand ; 0x48d8
        0x00004328:    a061        a.      ADR      r0,{pc}+0x188 ; 0x44b0
        0x0000432a:    f000fad5    ....    BL       SendAtCommand ; 0x48d8
        0x0000432e:    a161        a.      ADR      r1,{pc}+0x186 ; 0x44b4
        0x00004330:    20fa        .       MOVS     r0,#0xfa
        0x00004332:    f000fb68    ..h.    BL       WaitRsp ; 0x4a06
        0x00004336:    2800        .(      CMP      r0,#0
        0x00004338:    d010        ..      BEQ      0x435c ; SmsAck + 76
        0x0000433a:    2002        .       MOVS     r0,#2
        0x0000433c:    f7fdff82    ....    BL       delay_ms ; 0x2244
        0x00004340:    4620         F      MOV      r0,r4
        0x00004342:    f000fac9    ....    BL       SendAtCommand ; 0x48d8
        0x00004346:    4668        hF      MOV      r0,sp
        0x00004348:    f000fac6    ....    BL       SendAtCommand ; 0x48d8
        0x0000434c:    a15a        Z.      ADR      r1,{pc}+0x16c ; 0x44b8
        0x0000434e:    20fa        .       MOVS     r0,#0xfa
        0x00004350:    f000fb59    ..Y.    BL       WaitRsp ; 0x4a06
        0x00004354:    2800        .(      CMP      r0,#0
        0x00004356:    d003        ..      BEQ      0x4360 ; SmsAck + 80
        0x00004358:    2001        .       MOVS     r0,#1
        0x0000435a:    bd38        8.      POP      {r3-r5,pc}
        0x0000435c:    2000        .       MOVS     r0,#0
        0x0000435e:    bd38        8.      POP      {r3-r5,pc}
        0x00004360:    e0ae        ..      B        0x44c0 ; SmsAck + 432
    $d
        0x00004362:    0000        ..      DCW    0
        0x00004364:    2000003d    =..     DCD    536870973
        0x00004368:    2000001b    ...     DCD    536870939
        0x0000436c:    2000001a    ...     DCD    536870938
        0x00004370:    00003a60    `:..    DCD    14944
        0x00004374:    2000025c    \..     DCD    536871516
        0x00004378:    43494f56    VOIC    DCD    1128877910
        0x0000437c:    41432045    E CA    DCD    1094918213
        0x00004380:    203a4c4c    LL:     DCD    540691532
        0x00004384:    00444e45    END.    DCD    4476485
        0x00004388:    20000028    (..     DCD    536870952
        0x0000438c:    5353494d    MISS    DCD    1397967181
        0x00004390:    435f4445    ED_C    DCD    1130316869
        0x00004394:    3a4c4c41    ALL:    DCD    978078785
        0x00004398:    00000000    ....    DCD    0
        0x0000439c:    20000200    ...     DCD    536871424
        0x000043a0:    20000024    $..     DCD    536870948
        0x000043a4:    20000022    "..     DCD    536870946
        0x000043a8:    7774654e    Netw    DCD    2004116814
        0x000043ac:    206b726f    ork     DCD    543912559
        0x000043b0:    6e65706f    open    DCD    1852141679
        0x000043b4:    00006465    ed..    DCD    25701
        0x000043b8:    7774654e    Netw    DCD    2004116814
        0x000043bc:    206b726f    ork     DCD    543912559
        0x000043c0:    61207369    is a    DCD    1629516649
        0x000043c4:    6165726c    lrea    DCD    1634038380
        0x000043c8:    6f207964    dy o    DCD    1864399204
        0x000043cc:    656e6570    pene    DCD    1701733744
        0x000043d0:    00000064    d...    DCD    100
        0x000043d4:    6e6e6f43    Conn    DCD    1852731203
        0x000043d8:    69746365    ecti    DCD    1769235301
        0x000043dc:    69206e6f    on i    DCD    1763733103
        0x000043e0:    6c612073    s al    DCD    1818304627
        0x000043e4:    64616572    read    DCD    1684104562
        0x000043e8:    72632079    y cr    DCD    1919099001
        0x000043ec:    65746165    eate    DCD    1702125925
        0x000043f0:    00000064    d...    DCD    100
        0x000043f4:    52415453    STAR    DCD    1380013139
        0x000043f8:    00000054    T...    DCD    84
        0x000043fc:    544d432b    +CMT    DCD    1414349611
        0x00004400:    00203a49    I: .    DCD    2112073
        0x00004404:    2000004c    L..     DCD    536870988
        0x00004408:    4458522b    +RXD    DCD    1146638891
        0x0000440c:    3a464d54    TMF:    DCD    977685844
        0x00004410:    00000020     ...    DCD    32
        0x00004414:    20000038    8..     DCD    536870968
        0x00004418:    2000003e    >..     DCD    536870974
        0x0000441c:    56434552    RECV    DCD    1447249234
        0x00004420:    4f524620     FRO    DCD    1330791968
        0x00004424:    00003a4d    M:..    DCD    14925
        0x00004428:    00005441    AT..    DCD    21569
        0x0000442c:    20000539    9..     DCD    536872249
        0x00004430:    20000031    1..     DCD    536870961
        0x00004434:    20000696    ...     DCD    536872598
        0x00004438:    20000110    ...     DCD    536871184
        0x0000443c:    20000042    B..     DCD    536870978
        0x00004440:    2000010c    ...     DCD    536871180
        0x00004444:    2000067f    ...     DCD    536872575
        0x00004448:    00303030    000.    DCD    3158064
        0x0000444c:    20000108    ...     DCD    536871176
        0x00004450:    20000047    G..     DCD    536870983
        0x00004454:    2000004a    J..     DCD    536870986
        0x00004458:    2000001c    ...     DCD    536870940
        0x0000445c:    432b5441    AT+C    DCD    1126913089
        0x00004460:    4452474d    MGRD    DCD    1146242893
        0x00004464:    0000003d    =...    DCD    61
        0x00004468:    20000044    D..     DCD    536870980
        0x0000446c:    20000018    ...     DCD    536870936
        0x00004470:    20000040    @..     DCD    536870976
        0x00004474:    31736d73    sms1    DCD    829648243
        0x00004478:    00000000    ....    DCD    0
        0x0000447c:    32736d73    sms2    DCD    846425459
        0x00004480:    00000000    ....    DCD    0
        0x00004484:    534d432b    +CMS    DCD    1397572395
        0x00004488:    52524520     ERR    DCD    1381123360
        0x0000448c:    203a524f    OR:     DCD    540693071
        0x00004490:    00313233    321.    DCD    3224115
        0x00004494:    432b5441    AT+C    DCD    1126913089
        0x00004498:    3d44474d    MGD=    DCD    1027884877
        0x0000449c:    00000000    ....    DCD    0
        0x000044a0:    00000d1a    ....    DCD    3354
        0x000044a4:    432b5441    AT+C    DCD    1126913089
        0x000044a8:    3d53474d    MGS=    DCD    1028867917
        0x000044ac:    00000022    "...    DCD    34
        0x000044b0:    00000d22    "...    DCD    3362
        0x000044b4:    0000003e    >...    DCD    62
        0x000044b8:    474d432b    +CMG    DCD    1196245803
        0x000044bc:    00000053    S...    DCD    83
    $t
        0x000044c0:    2000        .       MOVS     r0,#0
        0x000044c2:    bd38        8.      POP      {r3-r5,pc}
    SmsHeadVerify
        0x000044c4:    b5f8        ..      PUSH     {r3-r7,lr}
        0x000044c6:    4604        .F      MOV      r4,r0
        0x000044c8:    460e        .F      MOV      r6,r1
        0x000044ca:    2203        ."      MOVS     r2,#3
        0x000044cc:    a1c1        ..      ADR      r1,{pc}+0x308 ; 0x47d4
        0x000044ce:    4620         F      MOV      r0,r4
        0x000044d0:    f001ffaa    ....    BL       strncmp ; 0x6428
        0x000044d4:    2800        .(      CMP      r0,#0
        0x000044d6:    d008        ..      BEQ      0x44ea ; SmsHeadVerify + 38
        0x000044d8:    2203        ."      MOVS     r2,#3
        0x000044da:    a1bf        ..      ADR      r1,{pc}+0x2fe ; 0x47d8
        0x000044dc:    4620         F      MOV      r0,r4
        0x000044de:    f001ffa3    ....    BL       strncmp ; 0x6428
        0x000044e2:    2800        .(      CMP      r0,#0
        0x000044e4:    d003        ..      BEQ      0x44ee ; SmsHeadVerify + 42
        0x000044e6:    2002        .       MOVS     r0,#2
        0x000044e8:    bdf8        ..      POP      {r3-r7,pc}
        0x000044ea:    2501        .%      MOVS     r5,#1
        0x000044ec:    e000        ..      B        0x44f0 ; SmsHeadVerify + 44
        0x000044ee:    2500        .%      MOVS     r5,#0
        0x000044f0:    1ce4        ..      ADDS     r4,r4,#3
        0x000044f2:    48ba        .H      LDR      r0,[pc,#744] ; [0x47dc] = 0x20000251
        0x000044f4:    4607        .F      MOV      r7,r0
        0x000044f6:    f001ff75    ..u.    BL       strlen ; 0x63e4
        0x000044fa:    4602        .F      MOV      r2,r0
        0x000044fc:    4639        9F      MOV      r1,r7
        0x000044fe:    4620         F      MOV      r0,r4
        0x00004500:    f001ff92    ....    BL       strncmp ; 0x6428
        0x00004504:    2800        .(      CMP      r0,#0
        0x00004506:    d001        ..      BEQ      0x450c ; SmsHeadVerify + 72
        0x00004508:    2002        .       MOVS     r0,#2
        0x0000450a:    bdf8        ..      POP      {r3-r7,pc}
        0x0000450c:    1d20         .      ADDS     r0,r4,#4
        0x0000450e:    2123        #!      MOVS     r1,#0x23
        0x00004510:    f001ff24    ..$.    BL       strchr ; 0x635c
        0x00004514:    2800        .(      CMP      r0,#0
        0x00004516:    d003        ..      BEQ      0x4520 ; SmsHeadVerify + 92
        0x00004518:    2008        .       MOVS     r0,#8
        0x0000451a:    7030        0p      STRB     r0,[r6,#0]
        0x0000451c:    4628        (F      MOV      r0,r5
        0x0000451e:    bdf8        ..      POP      {r3-r7,pc}
        0x00004520:    2002        .       MOVS     r0,#2
        0x00004522:    bdf8        ..      POP      {r3-r7,pc}
    ConfigureBySms
        0x00004524:    b5f8        ..      PUSH     {r3-r7,lr}
        0x00004526:    4604        .F      MOV      r4,r0
        0x00004528:    4669        iF      MOV      r1,sp
        0x0000452a:    4620         F      MOV      r0,r4
        0x0000452c:    f7ffffca    ....    BL       SmsHeadVerify ; 0x44c4
        0x00004530:    4607        .F      MOV      r7,r0
        0x00004532:    2f02        ./      CMP      r7,#2
        0x00004534:    d035        5.      BEQ      0x45a2 ; ConfigureBySms + 126
        0x00004536:    2201        ."      MOVS     r2,#1
        0x00004538:    4639        9F      MOV      r1,r7
        0x0000453a:    a0a9        ..      ADR      r0,{pc}+0x2a6 ; 0x47e0
        0x0000453c:    f7fdfef0    ....    BL       debug_8 ; 0x2320
        0x00004540:    49aa        .I      LDR      r1,[pc,#680] ; [0x47ec] = 0x20000498
        0x00004542:    2000        .       MOVS     r0,#0
        0x00004544:    7008        .p      STRB     r0,[r1,#0]
        0x00004546:    48aa        .H      LDR      r0,[pc,#680] ; [0x47f0] = 0x2000004c
        0x00004548:    2101        .!      MOVS     r1,#1
        0x0000454a:    7001        .p      STRB     r1,[r0,#0]
        0x0000454c:    4668        hF      MOV      r0,sp
        0x0000454e:    7800        .x      LDRB     r0,[r0,#0]
        0x00004550:    1826        &.      ADDS     r6,r4,r0
        0x00004552:    e019        ..      B        0x4588 ; ConfigureBySms + 100
        0x00004554:    2123        #!      MOVS     r1,#0x23
        0x00004556:    4630        0F      MOV      r0,r6
        0x00004558:    f001ff00    ....    BL       strchr ; 0x635c
        0x0000455c:    4604        .F      MOV      r4,r0
        0x0000455e:    2c00        .,      CMP      r4,#0
        0x00004560:    d015        ..      BEQ      0x458e ; ConfigureBySms + 106
        0x00004562:    2f00        ./      CMP      r7,#0
        0x00004564:    d01e        ..      BEQ      0x45a4 ; ConfigureBySms + 128
        0x00004566:    2123        #!      MOVS     r1,#0x23
        0x00004568:    1c60        `.      ADDS     r0,r4,#1
        0x0000456a:    f001fef7    ....    BL       strchr ; 0x635c
        0x0000456e:    4605        .F      MOV      r5,r0
        0x00004570:    2d00        .-      CMP      r5,#0
        0x00004572:    d00c        ..      BEQ      0x458e ; ConfigureBySms + 106
        0x00004574:    203d        =       MOVS     r0,#0x3d
        0x00004576:    7020         p      STRB     r0,[r4,#0]
        0x00004578:    200d        .       MOVS     r0,#0xd
        0x0000457a:    7028        (p      STRB     r0,[r5,#0]
        0x0000457c:    4630        0F      MOV      r0,r6
        0x0000457e:    f7fdf9c2    ....    BL       CustermHandle ; 0x1906
        0x00004582:    2800        .(      CMP      r0,#0
        0x00004584:    d003        ..      BEQ      0x458e ; ConfigureBySms + 106
        0x00004586:    1c6e        n.      ADDS     r6,r5,#1
        0x00004588:    7830        0x      LDRB     r0,[r6,#0]
        0x0000458a:    2800        .(      CMP      r0,#0
        0x0000458c:    d1e2        ..      BNE      0x4554 ; ConfigureBySms + 48
        0x0000458e:    4897        .H      LDR      r0,[pc,#604] ; [0x47ec] = 0x20000498
        0x00004590:    7800        .x      LDRB     r0,[r0,#0]
        0x00004592:    2800        .(      CMP      r0,#0
        0x00004594:    d002        ..      BEQ      0x459c ; ConfigureBySms + 120
        0x00004596:    4895        .H      LDR      r0,[pc,#596] ; [0x47ec] = 0x20000498
        0x00004598:    f7fffeba    ....    BL       SmsAck ; 0x4310
        0x0000459c:    4994        .I      LDR      r1,[pc,#592] ; [0x47f0] = 0x2000004c
        0x0000459e:    2000        .       MOVS     r0,#0
        0x000045a0:    7008        .p      STRB     r0,[r1,#0]
        0x000045a2:    bdf8        ..      POP      {r3-r7,pc}
        0x000045a4:    203f        ?       MOVS     r0,#0x3f
        0x000045a6:    7020         p      STRB     r0,[r4,#0]
        0x000045a8:    4625        %F      MOV      r5,r4
        0x000045aa:    e7e7        ..      B        0x457c ; ConfigureBySms + 88
    SmsRsqAdd
        0x000045ac:    b570        p.      PUSH     {r4-r6,lr}
        0x000045ae:    4605        .F      MOV      r5,r0
        0x000045b0:    488e        .H      LDR      r0,[pc,#568] ; [0x47ec] = 0x20000498
        0x000045b2:    f001ff17    ....    BL       strlen ; 0x63e4
        0x000045b6:    4604        .F      MOV      r4,r0
        0x000045b8:    4628        (F      MOV      r0,r5
        0x000045ba:    f001ff13    ....    BL       strlen ; 0x63e4
        0x000045be:    1820         .      ADDS     r0,r4,r0
        0x000045c0:    288c        .(      CMP      r0,#0x8c
        0x000045c2:    d803        ..      BHI      0x45cc ; SmsRsqAdd + 32
        0x000045c4:    4629        )F      MOV      r1,r5
        0x000045c6:    4889        .H      LDR      r0,[pc,#548] ; [0x47ec] = 0x20000498
        0x000045c8:    f001ff7e    ..~.    BL       strcat ; 0x64c8
        0x000045cc:    bd70        p.      POP      {r4-r6,pc}
    LogSendBySms
        0x000045ce:    b500        ..      PUSH     {lr}
        0x000045d0:    b0a1        ..      SUB      sp,sp,#0x84
        0x000045d2:    a801        ..      ADD      r0,sp,#4
        0x000045d4:    f7fcfa28    ..(.    BL       ReadLog ; 0xa28
        0x000045d8:    2802        .(      CMP      r0,#2
        0x000045da:    d10c        ..      BNE      0x45f6 ; LogSendBySms + 40
        0x000045dc:    a185        ..      ADR      r1,{pc}+0x218 ; 0x47f4
        0x000045de:    4883        .H      LDR      r0,[pc,#524] ; [0x47ec] = 0x20000498
        0x000045e0:    f001feda    ....    BL       strcpy ; 0x6398
        0x000045e4:    a801        ..      ADD      r0,sp,#4
        0x000045e6:    f7ffffe1    ....    BL       SmsRsqAdd ; 0x45ac
        0x000045ea:    a084        ..      ADR      r0,{pc}+0x212 ; 0x47fc
        0x000045ec:    f7ffffde    ....    BL       SmsRsqAdd ; 0x45ac
        0x000045f0:    487e        ~H      LDR      r0,[pc,#504] ; [0x47ec] = 0x20000498
        0x000045f2:    f7fffe8d    ....    BL       SmsAck ; 0x4310
        0x000045f6:    b021        !.      ADD      sp,sp,#0x84
        0x000045f8:    bd00        ..      POP      {pc}
    SmsHandle
        0x000045fa:    b570        p.      PUSH     {r4-r6,lr}
        0x000045fc:    4c7c        |L      LDR      r4,[pc,#496] ; [0x47f0] = 0x2000004c
        0x000045fe:    78a0        .x      LDRB     r0,[r4,#2]
        0x00004600:    2800        .(      CMP      r0,#0
        0x00004602:    d119        ..      BNE      0x4638 ; SmsHandle + 62
        0x00004604:    7be0        .{      LDRB     r0,[r4,#0xf]
        0x00004606:    2801        .(      CMP      r0,#1
        0x00004608:    d016        ..      BEQ      0x4638 ; SmsHandle + 62
        0x0000460a:    487d        }H      LDR      r0,[pc,#500] ; [0x4800] = 0x2000001a
        0x0000460c:    7800        .x      LDRB     r0,[r0,#0]
        0x0000460e:    2801        .(      CMP      r0,#1
        0x00004610:    d103        ..      BNE      0x461a ; SmsHandle + 32
        0x00004612:    487c        |H      LDR      r0,[pc,#496] ; [0x4804] = 0x2000001d
        0x00004614:    7800        .x      LDRB     r0,[r0,#0]
        0x00004616:    2801        .(      CMP      r0,#1
        0x00004618:    d00e        ..      BEQ      0x4638 ; SmsHandle + 62
        0x0000461a:    4d7b        {M      LDR      r5,[pc,#492] ; [0x4808] = 0x2000000f
        0x0000461c:    2201        ."      MOVS     r2,#1
        0x0000461e:    7829        )x      LDRB     r1,[r5,#0]
        0x00004620:    a07a        z.      ADR      r0,{pc}+0x1ec ; 0x480c
        0x00004622:    f7fdfe7d    ..}.    BL       debug_8 ; 0x2320
        0x00004626:    2006        .       MOVS     r0,#6
        0x00004628:    70a0        .p      STRB     r0,[r4,#2]
        0x0000462a:    7828        (x      LDRB     r0,[r5,#0]
        0x0000462c:    2800        .(      CMP      r0,#0
        0x0000462e:    d004        ..      BEQ      0x463a ; SmsHandle + 64
        0x00004630:    f7ffffcd    ....    BL       LogSendBySms ; 0x45ce
        0x00004634:    2014        .       MOVS     r0,#0x14
        0x00004636:    70a0        .p      STRB     r0,[r4,#2]
        0x00004638:    bd70        p.      POP      {r4-r6,pc}
        0x0000463a:    496d        mI      LDR      r1,[pc,#436] ; [0x47f0] = 0x2000004c
        0x0000463c:    252d        -%      MOVS     r5,#0x2d
        0x0000463e:    3112        .1      ADDS     r1,r1,#0x12
        0x00004640:    7808        .x      LDRB     r0,[r1,#0]
        0x00004642:    28ff        .(      CMP      r0,#0xff
        0x00004644:    d00e        ..      BEQ      0x4664 ; SmsHandle + 106
        0x00004646:    7320         s      STRB     r0,[r4,#0xc]
        0x00004648:    2000        .       MOVS     r0,#0
        0x0000464a:    180a        ..      ADDS     r2,r1,r0
        0x0000464c:    7852        Rx      LDRB     r2,[r2,#1]
        0x0000464e:    540a        .T      STRB     r2,[r1,r0]
        0x00004650:    1c40        @.      ADDS     r0,r0,#1
        0x00004652:    b2c0        ..      UXTB     r0,r0
        0x00004654:    2803        .(      CMP      r0,#3
        0x00004656:    d3f8        ..      BCC      0x464a ; SmsHandle + 80
        0x00004658:    22ff        ."      MOVS     r2,#0xff
        0x0000465a:    540a        .T      STRB     r2,[r1,r0]
        0x0000465c:    7808        .x      LDRB     r0,[r1,#0]
        0x0000465e:    28ff        .(      CMP      r0,#0xff
        0x00004660:    d015        ..      BEQ      0x468e ; SmsHandle + 148
        0x00004662:    e015        ..      B        0x4690 ; SmsHandle + 150
        0x00004664:    f7fefff2    ....    BL       SmsHave ; 0x364c
        0x00004668:    2800        .(      CMP      r0,#0
        0x0000466a:    d00e        ..      BEQ      0x468a ; SmsHandle + 144
        0x0000466c:    7860        `x      LDRB     r0,[r4,#1]
        0x0000466e:    2800        .(      CMP      r0,#0
        0x00004670:    d006        ..      BEQ      0x4680 ; SmsHandle + 134
        0x00004672:    7b20         {      LDRB     r0,[r4,#0xc]
        0x00004674:    78e1        .x      LDRB     r1,[r4,#3]
        0x00004676:    1c40        @.      ADDS     r0,r0,#1
        0x00004678:    f001ffd2    ....    BL       __aeabi_uidiv ; 0x6620
        0x0000467c:    7321        !s      STRB     r1,[r4,#0xc]
        0x0000467e:    e007        ..      B        0x4690 ; SmsHandle + 150
        0x00004680:    2000        .       MOVS     r0,#0
        0x00004682:    7320         s      STRB     r0,[r4,#0xc]
        0x00004684:    2001        .       MOVS     r0,#1
        0x00004686:    7060        `p      STRB     r0,[r4,#1]
        0x00004688:    e002        ..      B        0x4690 ; SmsHandle + 150
        0x0000468a:    70a5        .p      STRB     r5,[r4,#2]
        0x0000468c:    bd70        p.      POP      {r4-r6,pc}
        0x0000468e:    70a5        .p      STRB     r5,[r4,#2]
        0x00004690:    4956        VI      LDR      r1,[pc,#344] ; [0x47ec] = 0x20000498
        0x00004692:    7b20         {      LDRB     r0,[r4,#0xc]
        0x00004694:    39dd        .9      SUBS     r1,r1,#0xdd
        0x00004696:    f7fffda5    ....    BL       GetSmsContent ; 0x41e4
        0x0000469a:    4854        TH      LDR      r0,[pc,#336] ; [0x47ec] = 0x20000498
        0x0000469c:    38dd        .8      SUBS     r0,r0,#0xdd
        0x0000469e:    f7fffe23    ..#.    BL       SmsExist ; 0x42e8
        0x000046a2:    2800        .(      CMP      r0,#0
        0x000046a4:    d0f2        ..      BEQ      0x468c ; SmsHandle + 146
        0x000046a6:    4851        QH      LDR      r0,[pc,#324] ; [0x47ec] = 0x20000498
        0x000046a8:    38dd        .8      SUBS     r0,r0,#0xdd
        0x000046aa:    f7fffde0    ....    BL       GetSmsMainBody ; 0x426e
        0x000046ae:    2800        .(      CMP      r0,#0
        0x000046b0:    d0ec        ..      BEQ      0x468c ; SmsHandle + 146
        0x000046b2:    484e        NH      LDR      r0,[pc,#312] ; [0x47ec] = 0x20000498
        0x000046b4:    308d        .0      ADDS     r0,r0,#0x8d
        0x000046b6:    f7fdfdb0    ....    BL       debug ; 0x221a
        0x000046ba:    484c        LH      LDR      r0,[pc,#304] ; [0x47ec] = 0x20000498
        0x000046bc:    38dd        .8      SUBS     r0,r0,#0xdd
        0x000046be:    f7ffff31    ..1.    BL       ConfigureBySms ; 0x4524
        0x000046c2:    bd70        p.      POP      {r4-r6,pc}
    StrongPlay
        0x000046c4:    b510        ..      PUSH     {r4,lr}
        0x000046c6:    1e41        A.      SUBS     r1,r0,#1
        0x000046c8:    2905        .)      CMP      r1,#5
        0x000046ca:    d305        ..      BCC      0x46d8 ; StrongPlay + 20
        0x000046cc:    4948        HI      LDR      r1,[pc,#288] ; [0x47f0] = 0x2000004c
        0x000046ce:    0080        ..      LSLS     r0,r0,#2
        0x000046d0:    315c        \1      ADDS     r1,r1,#0x5c
        0x000046d2:    5808        .X      LDR      r0,[r1,r0]
        0x000046d4:    f7fef8c5    ....    BL       PlayVoice ; 0x2862
        0x000046d8:    bd10        ..      POP      {r4,pc}
    GetDateTime
        0x000046da:    b5f8        ..      PUSH     {r3-r7,lr}
        0x000046dc:    4607        .F      MOV      r7,r0
        0x000046de:    460c        .F      MOV      r4,r1
        0x000046e0:    a14d        M.      ADR      r1,{pc}+0x138 ; 0x4818
        0x000046e2:    a04f        O.      ADR      r0,{pc}+0x13e ; 0x4820
        0x000046e4:    f000f943    ..C.    BL       SendAtCmdRsq ; 0x496e
        0x000046e8:    2800        .(      CMP      r0,#0
        0x000046ea:    d00d        ..      BEQ      0x4708 ; GetDateTime + 46
        0x000046ec:    4e50        PN      LDR      r6,[pc,#320] ; [0x4830] = 0x20000048
        0x000046ee:    9400        ..      STR      r4,[sp,#0]
        0x000046f0:    4d4e        NM      LDR      r5,[pc,#312] ; [0x482c] = 0x2000025c
        0x000046f2:    8830        0.      LDRH     r0,[r6,#0]
        0x000046f4:    463b        ;F      MOV      r3,r7
        0x000046f6:    1828        (.      ADDS     r0,r5,r0
        0x000046f8:    a24e        N.      ADR      r2,{pc}+0x13c ; 0x4834
        0x000046fa:    a14f        O.      ADR      r1,{pc}+0x13e ; 0x4838
        0x000046fc:    f7fef96a    ..j.    BL       GetString ; 0x29d4
        0x00004700:    2800        .(      CMP      r0,#0
        0x00004702:    d003        ..      BEQ      0x470c ; GetDateTime + 50
        0x00004704:    2001        .       MOVS     r0,#1
        0x00004706:    bdf8        ..      POP      {r3-r7,pc}
        0x00004708:    2000        .       MOVS     r0,#0
        0x0000470a:    bdf8        ..      POP      {r3-r7,pc}
        0x0000470c:    9400        ..      STR      r4,[sp,#0]
        0x0000470e:    8830        0.      LDRH     r0,[r6,#0]
        0x00004710:    463b        ;F      MOV      r3,r7
        0x00004712:    1828        (.      ADDS     r0,r5,r0
        0x00004714:    a249        I.      ADR      r2,{pc}+0x128 ; 0x483c
        0x00004716:    a148        H.      ADR      r1,{pc}+0x122 ; 0x4838
        0x00004718:    f7fef95c    ..\.    BL       GetString ; 0x29d4
        0x0000471c:    2800        .(      CMP      r0,#0
        0x0000471e:    d001        ..      BEQ      0x4724 ; GetDateTime + 74
        0x00004720:    2001        .       MOVS     r0,#1
        0x00004722:    bdf8        ..      POP      {r3-r7,pc}
        0x00004724:    2000        .       MOVS     r0,#0
        0x00004726:    bdf8        ..      POP      {r3-r7,pc}
    RegisterWait
        0x00004728:    b510        ..      PUSH     {r4,lr}
        0x0000472a:    4845        EH      LDR      r0,[pc,#276] ; [0x4840] = 0x20000019
        0x0000472c:    7800        .x      LDRB     r0,[r0,#0]
        0x0000472e:    2800        .(      CMP      r0,#0
        0x00004730:    d00c        ..      BEQ      0x474c ; RegisterWait + 36
        0x00004732:    f000f9f9    ....    BL       Module_CheckRegister ; 0x4b28
        0x00004736:    4943        CI      LDR      r1,[pc,#268] ; [0x4844] = 0x20000022
        0x00004738:    2800        .(      CMP      r0,#0
        0x0000473a:    d00a        ..      BEQ      0x4752 ; RegisterWait + 42
        0x0000473c:    2863        c(      CMP      r0,#0x63
        0x0000473e:    d008        ..      BEQ      0x4752 ; RegisterWait + 42
        0x00004740:    4a2f        /J      LDR      r2,[pc,#188] ; [0x4800] = 0x2000001a
        0x00004742:    2005        .       MOVS     r0,#5
        0x00004744:    7010        .p      STRB     r0,[r2,#0]
        0x00004746:    2064        d       MOVS     r0,#0x64
        0x00004748:    8008        ..      STRH     r0,[r1,#0]
        0x0000474a:    bd10        ..      POP      {r4,pc}
        0x0000474c:    f000fbb5    ....    BL       signal_quality ; 0x4eba
        0x00004750:    e7f1        ..      B        0x4736 ; RegisterWait + 14
        0x00004752:    2028        (       MOVS     r0,#0x28
        0x00004754:    8008        ..      STRH     r0,[r1,#0]
        0x00004756:    bd10        ..      POP      {r4,pc}
    PowerDownHandle
        0x00004758:    b570        p.      PUSH     {r4-r6,lr}
        0x0000475a:    483b        ;H      LDR      r0,[pc,#236] ; [0x4848] = 0x20000018
        0x0000475c:    7801        .x      LDRB     r1,[r0,#0]
        0x0000475e:    2900        .)      CMP      r1,#0
        0x00004760:    d014        ..      BEQ      0x478c ; PowerDownHandle + 52
        0x00004762:    2400        .$      MOVS     r4,#0
        0x00004764:    7004        .p      STRB     r4,[r0,#0]
        0x00004766:    f7fefd50    ..P.    BL       IsInCall ; 0x320a
        0x0000476a:    2800        .(      CMP      r0,#0
        0x0000476c:    d001        ..      BEQ      0x4772 ; PowerDownHandle + 26
        0x0000476e:    f000fb38    ..8.    BL       HuangupAllCall ; 0x4de2
        0x00004772:    4e23        #N      LDR      r6,[pc,#140] ; [0x4800] = 0x2000001a
        0x00004774:    7830        0x      LDRB     r0,[r6,#0]
        0x00004776:    280c        .(      CMP      r0,#0xc
        0x00004778:    d006        ..      BEQ      0x4788 ; PowerDownHandle + 48
        0x0000477a:    d207        ..      BCS      0x478c ; PowerDownHandle + 52
        0x0000477c:    4d33        3M      LDR      r5,[pc,#204] ; [0x484c] = 0x2000003a
        0x0000477e:    280a        .(      CMP      r0,#0xa
        0x00004780:    d005        ..      BEQ      0x478e ; PowerDownHandle + 54
        0x00004782:    2808        .(      CMP      r0,#8
        0x00004784:    d003        ..      BEQ      0x478e ; PowerDownHandle + 54
        0x00004786:    e007        ..      B        0x4798 ; PowerDownHandle + 64
        0x00004788:    f7fef901    ....    BL       EnterPowerDown ; 0x298e
        0x0000478c:    bd70        p.      POP      {r4-r6,pc}
        0x0000478e:    2001        .       MOVS     r0,#1
        0x00004790:    f7fef8ec    ....    BL       PlayMusic ; 0x296c
        0x00004794:    2028        (       MOVS     r0,#0x28
        0x00004796:    7028        (p      STRB     r0,[r5,#0]
        0x00004798:    482d        -H      LDR      r0,[pc,#180] ; [0x4850] = 0x2000002a
        0x0000479a:    492e        .I      LDR      r1,[pc,#184] ; [0x4854] = 0x20000024
        0x0000479c:    7802        .x      LDRB     r2,[r0,#0]
        0x0000479e:    2a01        .*      CMP      r2,#1
        0x000047a0:    d109        ..      BNE      0x47b6 ; PowerDownHandle + 94
        0x000047a2:    7004        .p      STRB     r4,[r0,#0]
        0x000047a4:    7830        0x      LDRB     r0,[r6,#0]
        0x000047a6:    280a        .(      CMP      r0,#0xa
        0x000047a8:    d002        ..      BEQ      0x47b0 ; PowerDownHandle + 88
        0x000047aa:    2808        .(      CMP      r0,#8
        0x000047ac:    d000        ..      BEQ      0x47b0 ; PowerDownHandle + 88
        0x000047ae:    702c        ,p      STRB     r4,[r5,#0]
        0x000047b0:    280a        .(      CMP      r0,#0xa
        0x000047b2:    d005        ..      BEQ      0x47c0 ; PowerDownHandle + 104
        0x000047b4:    800c        ..      STRH     r4,[r1,#0]
        0x000047b6:    4822        "H      LDR      r0,[pc,#136] ; [0x4840] = 0x20000019
        0x000047b8:    7800        .x      LDRB     r0,[r0,#0]
        0x000047ba:    2800        .(      CMP      r0,#0
        0x000047bc:    d005        ..      BEQ      0x47ca ; PowerDownHandle + 114
        0x000047be:    e005        ..      B        0x47cc ; PowerDownHandle + 116
        0x000047c0:    4806        .H      LDR      r0,[pc,#24] ; [0x47dc] = 0x20000251
        0x000047c2:    3851        Q8      SUBS     r0,r0,#0x51
        0x000047c4:    8b00        ..      LDRH     r0,[r0,#0x18]
        0x000047c6:    8008        ..      STRH     r0,[r1,#0]
        0x000047c8:    e7f5        ..      B        0x47b6 ; PowerDownHandle + 94
        0x000047ca:    800c        ..      STRH     r4,[r1,#0]
        0x000047cc:    f7fffa98    ....    BL       EnterEndCall ; 0x3d00
        0x000047d0:    bd70        p.      POP      {r4-r6,pc}
    $d
        0x000047d2:    0000        ..      DCW    0
        0x000047d4:    00544553    SET.    DCD    5522771
        0x000047d8:    00544547    GET.    DCD    5522759
        0x000047dc:    20000251    Q..     DCD    536871505
        0x000047e0:    696c6176    vali    DCD    1768710518
        0x000047e4:    79742064    d ty    DCD    2037653604
        0x000047e8:    00006570    pe..    DCD    25968
        0x000047ec:    20000498    ...     DCD    536872088
        0x000047f0:    2000004c    L..     DCD    536870988
        0x000047f4:    474f4c2b    +LOG    DCD    1196379179
        0x000047f8:    0000003d    =...    DCD    61
        0x000047fc:    00000023    #...    DCD    35
        0x00004800:    2000001a    ...     DCD    536870938
        0x00004804:    2000001d    ...     DCD    536870941
        0x00004808:    2000000f    ...     DCD    536870927
        0x0000480c:    48736d53    SmsH    DCD    1215524179
        0x00004810:    6c646e61    andl    DCD    1818521185
        0x00004814:    00000065    e...    DCD    101
        0x00004818:    4c43432b    +CCL    DCD    1279476523
        0x0000481c:    00003a4b    K:..    DCD    14923
        0x00004820:    432b5441    AT+C    DCD    1126913089
        0x00004824:    3f4b4c43    CLK?    DCD    1061899331
        0x00004828:    00000a0d    ....    DCD    2573
        0x0000482c:    2000025c    \..     DCD    536871516
        0x00004830:    20000048    H..     DCD    536870984
        0x00004834:    0000002b    +...    DCD    43
        0x00004838:    00000022    "...    DCD    34
        0x0000483c:    0000002d    -...    DCD    45
        0x00004840:    20000019    ...     DCD    536870937
        0x00004844:    20000022    "..     DCD    536870946
        0x00004848:    20000018    ...     DCD    536870936
        0x0000484c:    2000003a    :..     DCD    536870970
        0x00004850:    2000002a    *..     DCD    536870954
        0x00004854:    20000024    $..     DCD    536870948
    $t
    .text
    ResetUartFlag
        0x00004858:    2101        .!      MOVS     r1,#1
        0x0000485a:    48f5        .H      LDR      r0,[pc,#980] ; [0x4c30] = 0xe000e180
        0x0000485c:    0349        I.      LSLS     r1,r1,#13
        0x0000485e:    6001        .`      STR      r1,[r0,#0]
        0x00004860:    4af4        .J      LDR      r2,[pc,#976] ; [0x4c34] = 0x20000040
        0x00004862:    2000        .       MOVS     r0,#0
        0x00004864:    8010        ..      STRH     r0,[r2,#0]
        0x00004866:    4af4        .J      LDR      r2,[pc,#976] ; [0x4c38] = 0x2000003d
        0x00004868:    7010        .p      STRB     r0,[r2,#0]
        0x0000486a:    4af4        .J      LDR      r2,[pc,#976] ; [0x4c3c] = 0x2000003e
        0x0000486c:    7010        .p      STRB     r0,[r2,#0]
        0x0000486e:    4af4        .J      LDR      r2,[pc,#976] ; [0x4c40] = 0x2000025c
        0x00004870:    7010        .p      STRB     r0,[r2,#0]
        0x00004872:    48ef        .H      LDR      r0,[pc,#956] ; [0x4c30] = 0xe000e180
        0x00004874:    3880        .8      SUBS     r0,r0,#0x80
        0x00004876:    6001        .`      STR      r1,[r0,#0]
        0x00004878:    4770        pG      BX       lr
    SendData
        0x0000487a:    b530        0.      PUSH     {r4,r5,lr}
        0x0000487c:    4af1        .J      LDR      r2,[pc,#964] ; [0x4c44] = 0x20000018
        0x0000487e:    7812        .x      LDRB     r2,[r2,#0]
        0x00004880:    2a00        .*      CMP      r2,#0
        0x00004882:    d128        (.      BNE      0x48d6 ; SendData + 92
        0x00004884:    4af0        .J      LDR      r2,[pc,#960] ; [0x4c48] = 0x20000031
        0x00004886:    4bf1        .K      LDR      r3,[pc,#964] ; [0x4c4c] = 0x40150000
        0x00004888:    7812        .x      LDRB     r2,[r2,#0]
        0x0000488a:    2a00        .*      CMP      r2,#0
        0x0000488c:    d007        ..      BEQ      0x489e ; SendData + 36
        0x0000488e:    4cf0        .L      LDR      r4,[pc,#960] ; [0x4c50] = 0x40050000
        0x00004890:    e015        ..      B        0x48be ; SendData + 68
        0x00004892:    699a        .i      LDR      r2,[r3,#0x18]
        0x00004894:    0212        ..      LSLS     r2,r2,#8
        0x00004896:    d4fc        ..      BMI      0x4892 ; SendData + 24
        0x00004898:    7802        .x      LDRB     r2,[r0,#0]
        0x0000489a:    1c40        @.      ADDS     r0,r0,#1
        0x0000489c:    601a        .`      STR      r2,[r3,#0]
        0x0000489e:    460a        .F      MOV      r2,r1
        0x000048a0:    1e49        I.      SUBS     r1,r1,#1
        0x000048a2:    b2c9        ..      UXTB     r1,r1
        0x000048a4:    2a00        .*      CMP      r2,#0
        0x000048a6:    d1f4        ..      BNE      0x4892 ; SendData + 24
        0x000048a8:    e00e        ..      B        0x48c8 ; SendData + 78
        0x000048aa:    7802        .x      LDRB     r2,[r0,#0]
        0x000048ac:    1c40        @.      ADDS     r0,r0,#1
        0x000048ae:    699d        .i      LDR      r5,[r3,#0x18]
        0x000048b0:    022d        -.      LSLS     r5,r5,#8
        0x000048b2:    d4fc        ..      BMI      0x48ae ; SendData + 52
        0x000048b4:    601a        .`      STR      r2,[r3,#0]
        0x000048b6:    69a5        .i      LDR      r5,[r4,#0x18]
        0x000048b8:    022d        -.      LSLS     r5,r5,#8
        0x000048ba:    d4fc        ..      BMI      0x48b6 ; SendData + 60
        0x000048bc:    6022        "`      STR      r2,[r4,#0]
        0x000048be:    460a        .F      MOV      r2,r1
        0x000048c0:    1e49        I.      SUBS     r1,r1,#1
        0x000048c2:    b2c9        ..      UXTB     r1,r1
        0x000048c4:    2a00        .*      CMP      r2,#0
        0x000048c6:    d1f0        ..      BNE      0x48aa ; SendData + 48
        0x000048c8:    48da        .H      LDR      r0,[pc,#872] ; [0x4c34] = 0x20000040
        0x000048ca:    49e2        .I      LDR      r1,[pc,#904] ; [0x4c54] = 0x20000048
        0x000048cc:    8800        ..      LDRH     r0,[r0,#0]
        0x000048ce:    8008        ..      STRH     r0,[r1,#0]
        0x000048d0:    49d9        .I      LDR      r1,[pc,#868] ; [0x4c38] = 0x2000003d
        0x000048d2:    2000        .       MOVS     r0,#0
        0x000048d4:    7008        .p      STRB     r0,[r1,#0]
        0x000048d6:    bd30        0.      POP      {r4,r5,pc}
    SendAtCommand
        0x000048d8:    b510        ..      PUSH     {r4,lr}
        0x000048da:    49db        .I      LDR      r1,[pc,#876] ; [0x4c48] = 0x20000031
        0x000048dc:    4adb        .J      LDR      r2,[pc,#876] ; [0x4c4c] = 0x40150000
        0x000048de:    7809        .x      LDRB     r1,[r1,#0]
        0x000048e0:    2900        .)      CMP      r1,#0
        0x000048e2:    d006        ..      BEQ      0x48f2 ; SendAtCommand + 26
        0x000048e4:    4bda        .K      LDR      r3,[pc,#872] ; [0x4c50] = 0x40050000
        0x000048e6:    e011        ..      B        0x490c ; SendAtCommand + 52
        0x000048e8:    6993        .i      LDR      r3,[r2,#0x18]
        0x000048ea:    021b        ..      LSLS     r3,r3,#8
        0x000048ec:    d4fc        ..      BMI      0x48e8 ; SendAtCommand + 16
        0x000048ee:    6011        .`      STR      r1,[r2,#0]
        0x000048f0:    1c40        @.      ADDS     r0,r0,#1
        0x000048f2:    7801        .x      LDRB     r1,[r0,#0]
        0x000048f4:    2900        .)      CMP      r1,#0
        0x000048f6:    d1f7        ..      BNE      0x48e8 ; SendAtCommand + 16
        0x000048f8:    e00b        ..      B        0x4912 ; SendAtCommand + 58
        0x000048fa:    1c40        @.      ADDS     r0,r0,#1
        0x000048fc:    6994        .i      LDR      r4,[r2,#0x18]
        0x000048fe:    0224        $.      LSLS     r4,r4,#8
        0x00004900:    d4fc        ..      BMI      0x48fc ; SendAtCommand + 36
        0x00004902:    6011        .`      STR      r1,[r2,#0]
        0x00004904:    699c        .i      LDR      r4,[r3,#0x18]
        0x00004906:    0224        $.      LSLS     r4,r4,#8
        0x00004908:    d4fc        ..      BMI      0x4904 ; SendAtCommand + 44
        0x0000490a:    6019        .`      STR      r1,[r3,#0]
        0x0000490c:    7801        .x      LDRB     r1,[r0,#0]
        0x0000490e:    2900        .)      CMP      r1,#0
        0x00004910:    d1f3        ..      BNE      0x48fa ; SendAtCommand + 34
        0x00004912:    48c8        .H      LDR      r0,[pc,#800] ; [0x4c34] = 0x20000040
        0x00004914:    49cf        .I      LDR      r1,[pc,#828] ; [0x4c54] = 0x20000048
        0x00004916:    8800        ..      LDRH     r0,[r0,#0]
        0x00004918:    8008        ..      STRH     r0,[r1,#0]
        0x0000491a:    49c7        .I      LDR      r1,[pc,#796] ; [0x4c38] = 0x2000003d
        0x0000491c:    2000        .       MOVS     r0,#0
        0x0000491e:    7008        .p      STRB     r0,[r1,#0]
        0x00004920:    49c6        .I      LDR      r1,[pc,#792] ; [0x4c3c] = 0x2000003e
        0x00004922:    7008        .p      STRB     r0,[r1,#0]
        0x00004924:    bd10        ..      POP      {r4,pc}
    SendAtCommand2
        0x00004926:    b538        8.      PUSH     {r3-r5,lr}
        0x00004928:    4604        .F      MOV      r4,r0
        0x0000492a:    4608        .F      MOV      r0,r1
        0x0000492c:    2200        ."      MOVS     r2,#0
        0x0000492e:    4669        iF      MOV      r1,sp
        0x00004930:    f7fdfd5f    .._.    BL       Dec2Txt ; 0x23f2
        0x00004934:    4620         F      MOV      r0,r4
        0x00004936:    f7ffffcf    ....    BL       SendAtCommand ; 0x48d8
        0x0000493a:    4668        hF      MOV      r0,sp
        0x0000493c:    f7ffffcc    ....    BL       SendAtCommand ; 0x48d8
        0x00004940:    a0c5        ..      ADR      r0,{pc}+0x318 ; 0x4c58
        0x00004942:    f7ffffc9    ....    BL       SendAtCommand ; 0x48d8
        0x00004946:    bd38        8.      POP      {r3-r5,pc}
    CheckTc35Respond
        0x00004948:    b530        0.      PUSH     {r4,r5,lr}
        0x0000494a:    2200        ."      MOVS     r2,#0
        0x0000494c:    4cbc        .L      LDR      r4,[pc,#752] ; [0x4c40] = 0x2000025c
        0x0000494e:    e007        ..      B        0x4960 ; CheckTc35Respond + 24
        0x00004950:    460d        .F      MOV      r5,r1
        0x00004952:    1c49        I.      ADDS     r1,r1,#1
        0x00004954:    5d65        e]      LDRB     r5,[r4,r5]
        0x00004956:    b289        ..      UXTH     r1,r1
        0x00004958:    42ab        .B      CMP      r3,r5
        0x0000495a:    d106        ..      BNE      0x496a ; CheckTc35Respond + 34
        0x0000495c:    1c52        R.      ADDS     r2,r2,#1
        0x0000495e:    b292        ..      UXTH     r2,r2
        0x00004960:    5c83        .\      LDRB     r3,[r0,r2]
        0x00004962:    2b00        .+      CMP      r3,#0
        0x00004964:    d1f4        ..      BNE      0x4950 ; CheckTc35Respond + 8
        0x00004966:    2001        .       MOVS     r0,#1
        0x00004968:    bd30        0.      POP      {r4,r5,pc}
        0x0000496a:    2000        .       MOVS     r0,#0
        0x0000496c:    bd30        0.      POP      {r4,r5,pc}
    SendAtCmdRsq
        0x0000496e:    b5f3        ..      PUSH     {r0,r1,r4-r7,lr}
        0x00004970:    b081        ..      SUB      sp,sp,#4
        0x00004972:    2403        .$      MOVS     r4,#3
        0x00004974:    2601        .&      MOVS     r6,#1
        0x00004976:    4fb2        .O      LDR      r7,[pc,#712] ; [0x4c40] = 0x2000025c
        0x00004978:    e037        7.      B        0x49ea ; SendAtCmdRsq + 124
        0x0000497a:    9801        ..      LDR      r0,[sp,#4]
        0x0000497c:    f7ffffac    ....    BL       SendAtCommand ; 0x48d8
        0x00004980:    48b6        .H      LDR      r0,[pc,#728] ; [0x4c5c] = 0x20000045
        0x00004982:    21fa        .!      MOVS     r1,#0xfa
        0x00004984:    7001        .p      STRB     r1,[r0,#0]
        0x00004986:    e025        %.      B        0x49d4 ; SendAtCmdRsq + 102
        0x00004988:    f7fdfc36    ..6.    BL       FeedWatchdog ; 0x21f8
        0x0000498c:    4db1        .M      LDR      r5,[pc,#708] ; [0x4c54] = 0x20000048
        0x0000498e:    8829        ).      LDRH     r1,[r5,#0]
        0x00004990:    5c78        x\      LDRB     r0,[r7,r1]
        0x00004992:    2830        0(      CMP      r0,#0x30
        0x00004994:    d032        2.      BEQ      0x49fc ; SendAtCmdRsq + 142
        0x00004996:    2832        2(      CMP      r0,#0x32
        0x00004998:    d00a        ..      BEQ      0x49b0 ; SendAtCmdRsq + 66
        0x0000499a:    2834        4(      CMP      r0,#0x34
        0x0000499c:    d008        ..      BEQ      0x49b0 ; SendAtCmdRsq + 66
        0x0000499e:    284f        O(      CMP      r0,#0x4f
        0x000049a0:    d02c        ,.      BEQ      0x49fc ; SendAtCmdRsq + 142
        0x000049a2:    1878        x.      ADDS     r0,r7,r1
        0x000049a4:    9902        ..      LDR      r1,[sp,#8]
        0x000049a6:    f001fce3    ....    BL       strstr ; 0x6370
        0x000049aa:    2800        .(      CMP      r0,#0
        0x000049ac:    d126        &.      BNE      0x49fc ; SendAtCmdRsq + 142
        0x000049ae:    e001        ..      B        0x49b4 ; SendAtCmdRsq + 70
        0x000049b0:    2600        .&      MOVS     r6,#0
        0x000049b2:    e023        #.      B        0x49fc ; SendAtCmdRsq + 142
        0x000049b4:    8829        ).      LDRH     r1,[r5,#0]
        0x000049b6:    a0aa        ..      ADR      r0,{pc}+0x2aa ; 0x4c60
        0x000049b8:    f7ffffc6    ....    BL       CheckTc35Respond ; 0x4948
        0x000049bc:    2800        .(      CMP      r0,#0
        0x000049be:    d001        ..      BEQ      0x49c4 ; SendAtCmdRsq + 86
        0x000049c0:    2600        .&      MOVS     r6,#0
        0x000049c2:    e01b        ..      B        0x49fc ; SendAtCmdRsq + 142
        0x000049c4:    8829        ).      LDRH     r1,[r5,#0]
        0x000049c6:    a0aa        ..      ADR      r0,{pc}+0x2aa ; 0x4c70
        0x000049c8:    f7ffffbe    ....    BL       CheckTc35Respond ; 0x4948
        0x000049cc:    2800        .(      CMP      r0,#0
        0x000049ce:    d001        ..      BEQ      0x49d4 ; SendAtCmdRsq + 102
        0x000049d0:    2600        .&      MOVS     r6,#0
        0x000049d2:    e013        ..      B        0x49fc ; SendAtCmdRsq + 142
        0x000049d4:    48a1        .H      LDR      r0,[pc,#644] ; [0x4c5c] = 0x20000045
        0x000049d6:    7800        .x      LDRB     r0,[r0,#0]
        0x000049d8:    2800        .(      CMP      r0,#0
        0x000049da:    d003        ..      BEQ      0x49e4 ; SendAtCmdRsq + 118
        0x000049dc:    4899        .H      LDR      r0,[pc,#612] ; [0x4c44] = 0x20000018
        0x000049de:    7800        .x      LDRB     r0,[r0,#0]
        0x000049e0:    2800        .(      CMP      r0,#0
        0x000049e2:    d0d1        ..      BEQ      0x4988 ; SendAtCmdRsq + 26
        0x000049e4:    203c        <       MOVS     r0,#0x3c
        0x000049e6:    f7fdfc58    ..X.    BL       delay_50ms ; 0x229a
        0x000049ea:    4620         F      MOV      r0,r4
        0x000049ec:    1e64        d.      SUBS     r4,r4,#1
        0x000049ee:    b2e4        ..      UXTB     r4,r4
        0x000049f0:    2800        .(      CMP      r0,#0
        0x000049f2:    d003        ..      BEQ      0x49fc ; SendAtCmdRsq + 142
        0x000049f4:    4d93        .M      LDR      r5,[pc,#588] ; [0x4c44] = 0x20000018
        0x000049f6:    7828        (x      LDRB     r0,[r5,#0]
        0x000049f8:    2800        .(      CMP      r0,#0
        0x000049fa:    d0be        ..      BEQ      0x497a ; SendAtCmdRsq + 12
        0x000049fc:    2005        .       MOVS     r0,#5
        0x000049fe:    f7fdfc21    ..!.    BL       delay_ms ; 0x2244
        0x00004a02:    4630        0F      MOV      r0,r6
        0x00004a04:    bdfe        ..      POP      {r1-r7,pc}
    WaitRsp
        0x00004a06:    b5f3        ..      PUSH     {r0,r1,r4-r7,lr}
        0x00004a08:    b081        ..      SUB      sp,sp,#4
        0x00004a0a:    4c94        .L      LDR      r4,[pc,#592] ; [0x4c5c] = 0x20000045
        0x00004a0c:    7020         p      STRB     r0,[r4,#0]
        0x00004a0e:    4d8c        .M      LDR      r5,[pc,#560] ; [0x4c40] = 0x2000025c
        0x00004a10:    4e90        .N      LDR      r6,[pc,#576] ; [0x4c54] = 0x20000048
        0x00004a12:    4f8c        .O      LDR      r7,[pc,#560] ; [0x4c44] = 0x20000018
        0x00004a14:    e00a        ..      B        0x4a2c ; WaitRsp + 38
        0x00004a16:    f7fdfbef    ....    BL       FeedWatchdog ; 0x21f8
        0x00004a1a:    8830        0.      LDRH     r0,[r6,#0]
        0x00004a1c:    9902        ..      LDR      r1,[sp,#8]
        0x00004a1e:    1828        (.      ADDS     r0,r5,r0
        0x00004a20:    f001fca6    ....    BL       strstr ; 0x6370
        0x00004a24:    2800        .(      CMP      r0,#0
        0x00004a26:    d001        ..      BEQ      0x4a2c ; WaitRsp + 38
        0x00004a28:    2001        .       MOVS     r0,#1
        0x00004a2a:    bdfe        ..      POP      {r1-r7,pc}
        0x00004a2c:    7820         x      LDRB     r0,[r4,#0]
        0x00004a2e:    2800        .(      CMP      r0,#0
        0x00004a30:    d002        ..      BEQ      0x4a38 ; WaitRsp + 50
        0x00004a32:    7838        8x      LDRB     r0,[r7,#0]
        0x00004a34:    2800        .(      CMP      r0,#0
        0x00004a36:    d0ee        ..      BEQ      0x4a16 ; WaitRsp + 16
        0x00004a38:    2000        .       MOVS     r0,#0
        0x00004a3a:    bdfe        ..      POP      {r1-r7,pc}
    module_WaitResponse
        0x00004a3c:    b570        p.      PUSH     {r4-r6,lr}
        0x00004a3e:    4c90        .L      LDR      r4,[pc,#576] ; [0x4c80] = 0x20000044
        0x00004a40:    7020         p      STRB     r0,[r4,#0]
        0x00004a42:    4e80        .N      LDR      r6,[pc,#512] ; [0x4c44] = 0x20000018
        0x00004a44:    4d7c        |M      LDR      r5,[pc,#496] ; [0x4c38] = 0x2000003d
        0x00004a46:    e007        ..      B        0x4a58 ; module_WaitResponse + 28
        0x00004a48:    7828        (x      LDRB     r0,[r5,#0]
        0x00004a4a:    2801        .(      CMP      r0,#1
        0x00004a4c:    d007        ..      BEQ      0x4a5e ; module_WaitResponse + 34
        0x00004a4e:    7820         x      LDRB     r0,[r4,#0]
        0x00004a50:    2800        .(      CMP      r0,#0
        0x00004a52:    d004        ..      BEQ      0x4a5e ; module_WaitResponse + 34
        0x00004a54:    f7fdfbd0    ....    BL       FeedWatchdog ; 0x21f8
        0x00004a58:    7830        0x      LDRB     r0,[r6,#0]
        0x00004a5a:    2800        .(      CMP      r0,#0
        0x00004a5c:    d0f4        ..      BEQ      0x4a48 ; module_WaitResponse + 12
        0x00004a5e:    7830        0x      LDRB     r0,[r6,#0]
        0x00004a60:    2800        .(      CMP      r0,#0
        0x00004a62:    d102        ..      BNE      0x4a6a ; module_WaitResponse + 46
        0x00004a64:    200a        .       MOVS     r0,#0xa
        0x00004a66:    f7fdfbed    ....    BL       delay_ms ; 0x2244
        0x00004a6a:    bd70        p.      POP      {r4-r6,pc}
    SendAtWaitRsq
        0x00004a6c:    b40f        ..      PUSH     {r0-r3}
        0x00004a6e:    b5f8        ..      PUSH     {r3-r7,lr}
        0x00004a70:    460f        .F      MOV      r7,r1
        0x00004a72:    2400        .$      MOVS     r4,#0
        0x00004a74:    ab0a        ..      ADD      r3,sp,#0x28
        0x00004a76:    9300        ..      STR      r3,[sp,#0]
        0x00004a78:    2150        P!      MOVS     r1,#0x50
        0x00004a7a:    4882        .H      LDR      r0,[pc,#520] ; [0x4c84] = 0x20000594
        0x00004a7c:    9a09        ..      LDR      r2,[sp,#0x24]
        0x00004a7e:    f001fb19    ....    BL       __c89vsnprintf ; 0x60b4
        0x00004a82:    4e6f        oN      LDR      r6,[pc,#444] ; [0x4c40] = 0x2000025c
        0x00004a84:    4d73        sM      LDR      r5,[pc,#460] ; [0x4c54] = 0x20000048
        0x00004a86:    e02d        -.      B        0x4ae4 ; SendAtWaitRsq + 120
        0x00004a88:    f7fdfbb6    ....    BL       FeedWatchdog ; 0x21f8
        0x00004a8c:    487d        }H      LDR      r0,[pc,#500] ; [0x4c84] = 0x20000594
        0x00004a8e:    f7ffff23    ..#.    BL       SendAtCommand ; 0x48d8
        0x00004a92:    9806        ..      LDR      r0,[sp,#0x18]
        0x00004a94:    f7ffffd2    ....    BL       module_WaitResponse ; 0x4a3c
        0x00004a98:    8829        ).      LDRH     r1,[r5,#0]
        0x00004a9a:    5c70        p\      LDRB     r0,[r6,r1]
        0x00004a9c:    2830        0(      CMP      r0,#0x30
        0x00004a9e:    d025        %.      BEQ      0x4aec ; SendAtWaitRsq + 128
        0x00004aa0:    2834        4(      CMP      r0,#0x34
        0x00004aa2:    d023        #.      BEQ      0x4aec ; SendAtWaitRsq + 128
        0x00004aa4:    284f        O(      CMP      r0,#0x4f
        0x00004aa6:    d021        !.      BEQ      0x4aec ; SendAtWaitRsq + 128
        0x00004aa8:    a077        w.      ADR      r0,{pc}+0x1e0 ; 0x4c88
        0x00004aaa:    f7ffff4d    ..M.    BL       CheckTc35Respond ; 0x4948
        0x00004aae:    2801        .(      CMP      r0,#1
        0x00004ab0:    d01c        ..      BEQ      0x4aec ; SendAtWaitRsq + 128
        0x00004ab2:    8829        ).      LDRH     r1,[r5,#0]
        0x00004ab4:    a076        v.      ADR      r0,{pc}+0x1dc ; 0x4c90
        0x00004ab6:    f7ffff47    ..G.    BL       CheckTc35Respond ; 0x4948
        0x00004aba:    2801        .(      CMP      r0,#1
        0x00004abc:    d016        ..      BEQ      0x4aec ; SendAtWaitRsq + 128
        0x00004abe:    2c02        .,      CMP      r4,#2
        0x00004ac0:    d303        ..      BCC      0x4aca ; SendAtWaitRsq + 94
        0x00004ac2:    8828        (.      LDRH     r0,[r5,#0]
        0x00004ac4:    5c30        0\      LDRB     r0,[r6,r0]
        0x00004ac6:    2800        .(      CMP      r0,#0
        0x00004ac8:    d110        ..      BNE      0x4aec ; SendAtWaitRsq + 128
        0x00004aca:    1c64        d.      ADDS     r4,r4,#1
        0x00004acc:    b2e4        ..      UXTB     r4,r4
        0x00004ace:    42bc        .B      CMP      r4,r7
        0x00004ad0:    d105        ..      BNE      0x4ade ; SendAtWaitRsq + 114
        0x00004ad2:    9808        ..      LDR      r0,[sp,#0x20]
        0x00004ad4:    2800        .(      CMP      r0,#0
        0x00004ad6:    d009        ..      BEQ      0x4aec ; SendAtWaitRsq + 128
        0x00004ad8:    f7fdfba6    ....    BL       SoftReset ; 0x2228
        0x00004adc:    e006        ..      B        0x4aec ; SendAtWaitRsq + 128
        0x00004ade:    203c        <       MOVS     r0,#0x3c
        0x00004ae0:    f7fdfbdb    ....    BL       delay_50ms ; 0x229a
        0x00004ae4:    4857        WH      LDR      r0,[pc,#348] ; [0x4c44] = 0x20000018
        0x00004ae6:    7800        .x      LDRB     r0,[r0,#0]
        0x00004ae8:    2800        .(      CMP      r0,#0
        0x00004aea:    d0cd        ..      BEQ      0x4a88 ; SendAtWaitRsq + 28
        0x00004aec:    2001        .       MOVS     r0,#1
        0x00004aee:    f7fdfba9    ....    BL       delay_ms ; 0x2244
        0x00004af2:    bcf8        ..      POP      {r3-r7}
        0x00004af4:    bc08        ..      POP      {r3}
        0x00004af6:    b004        ..      ADD      sp,sp,#0x10
        0x00004af8:    4718        .G      BX       r3
    module_PowerOn
        0x00004afa:    b510        ..      PUSH     {r4,lr}
        0x00004afc:    2001        .       MOVS     r0,#1
        0x00004afe:    f7fdfdb3    ....    BL       ModulePowerOn ; 0x2668
        0x00004b02:    2005        .       MOVS     r0,#5
        0x00004b04:    f7fdfbc9    ....    BL       delay_50ms ; 0x229a
        0x00004b08:    2000        .       MOVS     r0,#0
        0x00004b0a:    f7fdfdad    ....    BL       ModulePowerOn ; 0x2668
        0x00004b0e:    bd10        ..      POP      {r4,pc}
    module_Init
        0x00004b10:    b510        ..      PUSH     {r4,lr}
        0x00004b12:    a361        a.      ADR      r3,{pc}+0x186 ; 0x4c98
        0x00004b14:    2200        ."      MOVS     r2,#0
        0x00004b16:    2106        .!      MOVS     r1,#6
        0x00004b18:    2032        2       MOVS     r0,#0x32
        0x00004b1a:    f7ffffa7    ....    BL       SendAtWaitRsq ; 0x4a6c
        0x00004b1e:    a167        g.      ADR      r1,{pc}+0x19e ; 0x4cbc
        0x00004b20:    a068        h.      ADR      r0,{pc}+0x1a4 ; 0x4cc4
        0x00004b22:    f7ffff24    ..$.    BL       SendAtCmdRsq ; 0x496e
        0x00004b26:    bd10        ..      POP      {r4,pc}
    Module_CheckRegister
        0x00004b28:    b510        ..      PUSH     {r4,lr}
        0x00004b2a:    f7fdfb65    ..e.    BL       FeedWatchdog ; 0x21f8
        0x00004b2e:    a068        h.      ADR      r0,{pc}+0x1a2 ; 0x4cd0
        0x00004b30:    f7fffed2    ....    BL       SendAtCommand ; 0x48d8
        0x00004b34:    2014        .       MOVS     r0,#0x14
        0x00004b36:    f7ffff81    ....    BL       module_WaitResponse ; 0x4a3c
        0x00004b3a:    4846        FH      LDR      r0,[pc,#280] ; [0x4c54] = 0x20000048
        0x00004b3c:    4a40        @J      LDR      r2,[pc,#256] ; [0x4c40] = 0x2000025c
        0x00004b3e:    8801        ..      LDRH     r1,[r0,#0]
        0x00004b40:    1854        T.      ADDS     r4,r2,r1
        0x00004b42:    a066        f.      ADR      r0,{pc}+0x19a ; 0x4cdc
        0x00004b44:    f7ffff00    ....    BL       CheckTc35Respond ; 0x4948
        0x00004b48:    2801        .(      CMP      r0,#1
        0x00004b4a:    d104        ..      BNE      0x4b56 ; Module_CheckRegister + 46
        0x00004b4c:    7a60        `z      LDRB     r0,[r4,#9]
        0x00004b4e:    2831        1(      CMP      r0,#0x31
        0x00004b50:    d003        ..      BEQ      0x4b5a ; Module_CheckRegister + 50
        0x00004b52:    2835        5(      CMP      r0,#0x35
        0x00004b54:    d001        ..      BEQ      0x4b5a ; Module_CheckRegister + 50
        0x00004b56:    2000        .       MOVS     r0,#0
        0x00004b58:    bd10        ..      POP      {r4,pc}
        0x00004b5a:    2001        .       MOVS     r0,#1
        0x00004b5c:    bd10        ..      POP      {r4,pc}
    ModemNetworkInit
        0x00004b5e:    b510        ..      PUSH     {r4,lr}
        0x00004b60:    4838        8H      LDR      r0,[pc,#224] ; [0x4c44] = 0x20000018
        0x00004b62:    7800        .x      LDRB     r0,[r0,#0]
        0x00004b64:    2800        .(      CMP      r0,#0
        0x00004b66:    d123        #.      BNE      0x4bb0 ; ModemNetworkInit + 82
        0x00004b68:    a35e        ^.      ADR      r3,{pc}+0x17c ; 0x4ce4
        0x00004b6a:    2200        ."      MOVS     r2,#0
        0x00004b6c:    2106        .!      MOVS     r1,#6
        0x00004b6e:    2032        2       MOVS     r0,#0x32
        0x00004b70:    f7ffff7c    ..|.    BL       SendAtWaitRsq ; 0x4a6c
        0x00004b74:    a35f        _.      ADR      r3,{pc}+0x180 ; 0x4cf4
        0x00004b76:    2200        ."      MOVS     r2,#0
        0x00004b78:    2106        .!      MOVS     r1,#6
        0x00004b7a:    2032        2       MOVS     r0,#0x32
        0x00004b7c:    f7ffff76    ..v.    BL       SendAtWaitRsq ; 0x4a6c
        0x00004b80:    a35f        _.      ADR      r3,{pc}+0x180 ; 0x4d00
        0x00004b82:    2200        ."      MOVS     r2,#0
        0x00004b84:    2106        .!      MOVS     r1,#6
        0x00004b86:    2032        2       MOVS     r0,#0x32
        0x00004b88:    f7ffff70    ..p.    BL       SendAtWaitRsq ; 0x4a6c
        0x00004b8c:    a360        `.      ADR      r3,{pc}+0x184 ; 0x4d10
        0x00004b8e:    2200        ."      MOVS     r2,#0
        0x00004b90:    2106        .!      MOVS     r1,#6
        0x00004b92:    2032        2       MOVS     r0,#0x32
        0x00004b94:    f7ffff6a    ..j.    BL       SendAtWaitRsq ; 0x4a6c
        0x00004b98:    a360        `.      ADR      r3,{pc}+0x184 ; 0x4d1c
        0x00004b9a:    2200        ."      MOVS     r2,#0
        0x00004b9c:    2106        .!      MOVS     r1,#6
        0x00004b9e:    2032        2       MOVS     r0,#0x32
        0x00004ba0:    f7ffff64    ..d.    BL       SendAtWaitRsq ; 0x4a6c
        0x00004ba4:    a360        `.      ADR      r3,{pc}+0x184 ; 0x4d28
        0x00004ba6:    2200        ."      MOVS     r2,#0
        0x00004ba8:    2106        .!      MOVS     r1,#6
        0x00004baa:    2032        2       MOVS     r0,#0x32
        0x00004bac:    f7ffff5e    ..^.    BL       SendAtWaitRsq ; 0x4a6c
        0x00004bb0:    bd10        ..      POP      {r4,pc}
    AdjustVolume
        0x00004bb2:    b510        ..      PUSH     {r4,lr}
        0x00004bb4:    4604        .F      MOV      r4,r0
        0x00004bb6:    a05f        _.      ADR      r0,{pc}+0x17e ; 0x4d34
        0x00004bb8:    f7fffe8e    ....    BL       SendAtCommand ; 0x48d8
        0x00004bbc:    4960        `I      LDR      r1,[pc,#384] ; [0x4d40] = 0x200000dc
        0x00004bbe:    00a0        ..      LSLS     r0,r4,#2
        0x00004bc0:    5808        .X      LDR      r0,[r1,r0]
        0x00004bc2:    f7fffe89    ....    BL       SendAtCommand ; 0x48d8
        0x00004bc6:    2002        .       MOVS     r0,#2
        0x00004bc8:    f7ffff38    ..8.    BL       module_WaitResponse ; 0x4a3c
        0x00004bcc:    bd10        ..      POP      {r4,pc}
    SwitchVoiceChannel
        0x00004bce:    495d        ]I      LDR      r1,[pc,#372] ; [0x4d44] = 0x2000001d
        0x00004bd0:    2803        .(      CMP      r0,#3
        0x00004bd2:    7809        .x      LDRB     r1,[r1,#0]
        0x00004bd4:    d006        ..      BEQ      0x4be4 ; SwitchVoiceChannel + 22
        0x00004bd6:    2902        .)      CMP      r1,#2
        0x00004bd8:    d010        ..      BEQ      0x4bfc ; SwitchVoiceChannel + 46
        0x00004bda:    2200        ."      MOVS     r2,#0
        0x00004bdc:    2106        .!      MOVS     r1,#6
        0x00004bde:    a35a        Z.      ADR      r3,{pc}+0x16a ; 0x4d48
        0x00004be0:    2032        2       MOVS     r0,#0x32
        0x00004be2:    e743        C.      B        SendAtWaitRsq ; 0x4a6c
        0x00004be4:    2902        .)      CMP      r1,#2
        0x00004be6:    d004        ..      BEQ      0x4bf2 ; SwitchVoiceChannel + 36
        0x00004be8:    2200        ."      MOVS     r2,#0
        0x00004bea:    2106        .!      MOVS     r1,#6
        0x00004bec:    a35a        Z.      ADR      r3,{pc}+0x16c ; 0x4d58
        0x00004bee:    2032        2       MOVS     r0,#0x32
        0x00004bf0:    e73c        <.      B        SendAtWaitRsq ; 0x4a6c
        0x00004bf2:    2200        ."      MOVS     r2,#0
        0x00004bf4:    2106        .!      MOVS     r1,#6
        0x00004bf6:    a35e        ^.      ADR      r3,{pc}+0x17a ; 0x4d70
        0x00004bf8:    2032        2       MOVS     r0,#0x32
        0x00004bfa:    e737        7.      B        SendAtWaitRsq ; 0x4a6c
        0x00004bfc:    2200        ."      MOVS     r2,#0
        0x00004bfe:    2106        .!      MOVS     r1,#6
        0x00004c00:    a362        b.      ADR      r3,{pc}+0x18c ; 0x4d8c
        0x00004c02:    2032        2       MOVS     r0,#0x32
        0x00004c04:    e732        2.      B        SendAtWaitRsq ; 0x4a6c
    ModemVolumeInit
        0x00004c06:    b510        ..      PUSH     {r4,lr}
        0x00004c08:    480e        .H      LDR      r0,[pc,#56] ; [0x4c44] = 0x20000018
        0x00004c0a:    7800        .x      LDRB     r0,[r0,#0]
        0x00004c0c:    2800        .(      CMP      r0,#0
        0x00004c0e:    d10c        ..      BNE      0x4c2a ; ModemVolumeInit + 36
        0x00004c10:    2003        .       MOVS     r0,#3
        0x00004c12:    f7ffffdc    ....    BL       SwitchVoiceChannel ; 0x4bce
        0x00004c16:    4864        dH      LDR      r0,[pc,#400] ; [0x4da8] = 0x79d8
        0x00004c18:    f7fffe5e    ..^.    BL       SendAtCommand ; 0x48d8
        0x00004c1c:    2014        .       MOVS     r0,#0x14
        0x00004c1e:    f7ffff0d    ....    BL       module_WaitResponse ; 0x4a3c
        0x00004c22:    4862        bH      LDR      r0,[pc,#392] ; [0x4dac] = 0x20000038
        0x00004c24:    7800        .x      LDRB     r0,[r0,#0]
        0x00004c26:    f7ffffc4    ....    BL       AdjustVolume ; 0x4bb2
        0x00004c2a:    bd10        ..      POP      {r4,pc}
    ModemAudioInit
        0x00004c2c:    b510        ..      PUSH     {r4,lr}
        0x00004c2e:    e0bf        ..      B        0x4db0 ; ModemAudioInit + 388
    $d
        0x00004c30:    e000e180    ....    DCD    3758154112
        0x00004c34:    20000040    @..     DCD    536870976
        0x00004c38:    2000003d    =..     DCD    536870973
        0x00004c3c:    2000003e    >..     DCD    536870974
        0x00004c40:    2000025c    \..     DCD    536871516
        0x00004c44:    20000018    ...     DCD    536870936
        0x00004c48:    20000031    1..     DCD    536870961
        0x00004c4c:    40150000    ...@    DCD    1075118080
        0x00004c50:    40050000    ...@    DCD    1074069504
        0x00004c54:    20000048    H..     DCD    536870984
        0x00004c58:    00000a0d    ....    DCD    2573
        0x00004c5c:    20000045    E..     DCD    536870981
        0x00004c60:    454d432b    +CME    DCD    1162691371
        0x00004c64:    52524520     ERR    DCD    1381123360
        0x00004c68:    203a524f    OR:     DCD    540693071
        0x00004c6c:    00000000    ....    DCD    0
        0x00004c70:    534d432b    +CMS    DCD    1397572395
        0x00004c74:    52524520     ERR    DCD    1381123360
        0x00004c78:    203a524f    OR:     DCD    540693071
        0x00004c7c:    00000000    ....    DCD    0
        0x00004c80:    20000044    D..     DCD    536870980
        0x00004c84:    20000594    ...     DCD    536872340
        0x00004c88:    454d432b    +CME    DCD    1162691371
        0x00004c8c:    00000000    ....    DCD    0
        0x00004c90:    534d432b    +CMS    DCD    1397572395
        0x00004c94:    00000000    ....    DCD    0
        0x00004c98:    432b5441    AT+C    DCD    1126913089
        0x00004c9c:    3d45454d    MEE=    DCD    1027949901
        0x00004ca0:    432b3b31    1;+C    DCD    1126906673
        0x00004ca4:    3d4e5546    FUN=    DCD    1028543814
        0x00004ca8:    432b3b31    1;+C    DCD    1126906673
        0x00004cac:    4e554647    GFUN    DCD    1314211399
        0x00004cb0:    38313d43    C=18    DCD    942751043
        0x00004cb4:    0a0d312c    ,1..    DCD    168636716
        0x00004cb8:    00000000    ....    DCD    0
        0x00004cbc:    4d47432b    +CGM    DCD    1296515883
        0x00004cc0:    00000052    R...    DCD    82
        0x00004cc4:    432b5441    AT+C    DCD    1126913089
        0x00004cc8:    0d524d47    GMR.    DCD    223497543
        0x00004ccc:    0000000a    ....    DCD    10
        0x00004cd0:    432b5441    AT+C    DCD    1126913089
        0x00004cd4:    3f474552    REG?    DCD    1061635410
        0x00004cd8:    00000a0d    ....    DCD    2573
        0x00004cdc:    4552432b    +CRE    DCD    1163019051
        0x00004ce0:    00000047    G...    DCD    71
        0x00004ce4:    432b5441    AT+C    DCD    1126913089
        0x00004ce8:    504f414e    NAOP    DCD    1347371342
        0x00004cec:    0a0d323d    =2..    DCD    168636989
        0x00004cf0:    00000000    ....    DCD    0
        0x00004cf4:    432b5441    AT+C    DCD    1126913089
        0x00004cf8:    3d504d4e    NMP=    DCD    1028672846
        0x00004cfc:    000a0d32    2...    DCD    658738
        0x00004d00:    432b5441    AT+C    DCD    1126913089
        0x00004d04:    5044534e    NSDP    DCD    1346655054
        0x00004d08:    0a0d323d    =2..    DCD    168636989
        0x00004d0c:    00000000    ....    DCD    0
        0x00004d10:    432b5441    AT+C    DCD    1126913089
        0x00004d14:    3d50494c    LIP=    DCD    1028671820
        0x00004d18:    000a0d31    1...    DCD    658737
        0x00004d1c:    432b5441    AT+C    DCD    1126913089
        0x00004d20:    3d53504f    OPS=    DCD    1028870223
        0x00004d24:    000a0d30    0...    DCD    658736
        0x00004d28:    432b5441    AT+C    DCD    1126913089
        0x00004d2c:    3d555a54    TZU=    DCD    1029003860
        0x00004d30:    000a0d31    1...    DCD    658737
        0x00004d34:    432b5441    AT+C    DCD    1126913089
        0x00004d38:    3d4c564c    LVL=    DCD    1028413004
        0x00004d3c:    00000000    ....    DCD    0
        0x00004d40:    200000dc    ...     DCD    536871132
        0x00004d44:    2000001d    ...     DCD    536870941
        0x00004d48:    432b5441    AT+C    DCD    1126913089
        0x00004d4c:    43564453    SDVC    DCD    1129727059
        0x00004d50:    0a0d313d    =1..    DCD    168636733
        0x00004d54:    00000000    ....    DCD    0
        0x00004d58:    432b5441    AT+C    DCD    1126913089
        0x00004d5c:    43564453    SDVC    DCD    1129727059
        0x00004d60:    2b3b333d    =3;+    DCD    725300029
        0x00004d64:    4d534e43    CNSM    DCD    1297305155
        0x00004d68:    0a0d303d    =0..    DCD    168636477
        0x00004d6c:    00000000    ....    DCD    0
        0x00004d70:    432b5441    AT+C    DCD    1126913089
        0x00004d74:    43564453    SDVC    DCD    1129727059
        0x00004d78:    2b3b333d    =3;+    DCD    725300029
        0x00004d7c:    4f4f4c43    CLOO    DCD    1330596931
        0x00004d80:    43414250    PBAC    DCD    1128350288
        0x00004d84:    2c333d4b    K=3,    DCD    741555531
        0x00004d88:    000a0d31    1...    DCD    658737
        0x00004d8c:    432b5441    AT+C    DCD    1126913089
        0x00004d90:    43564453    SDVC    DCD    1129727059
        0x00004d94:    2b3b313d    =1;+    DCD    725299517
        0x00004d98:    4f4f4c43    CLOO    DCD    1330596931
        0x00004d9c:    43414250    PBAC    DCD    1128350288
        0x00004da0:    2c313d4b    K=1,    DCD    741424459
        0x00004da4:    000a0d31    1...    DCD    658737
        0x00004da8:    000079d8    .y..    DCD    31192
        0x00004dac:    20000038    8..     DCD    536870968
    $t
        0x00004db0:    a3ec        ..      ADR      r3,{pc}+0x3b4 ; 0x5164
        0x00004db2:    2200        ."      MOVS     r2,#0
        0x00004db4:    2106        .!      MOVS     r1,#6
        0x00004db6:    2032        2       MOVS     r0,#0x32
        0x00004db8:    f7fffe58    ..X.    BL       SendAtWaitRsq ; 0x4a6c
        0x00004dbc:    a3f8        ..      ADR      r3,{pc}+0x3e4 ; 0x51a0
        0x00004dbe:    2200        ."      MOVS     r2,#0
        0x00004dc0:    2106        .!      MOVS     r1,#6
        0x00004dc2:    2032        2       MOVS     r0,#0x32
        0x00004dc4:    f7fffe52    ..R.    BL       SendAtWaitRsq ; 0x4a6c
        0x00004dc8:    bd10        ..      POP      {r4,pc}
    HuangupCall
        0x00004dca:    b510        ..      PUSH     {r4,lr}
        0x00004dcc:    a0fd        ..      ADR      r0,{pc}+0x3f8 ; 0x51c4
        0x00004dce:    f7fffd83    ....    BL       SendAtCommand ; 0x48d8
        0x00004dd2:    2032        2       MOVS     r0,#0x32
        0x00004dd4:    f7fffe32    ..2.    BL       module_WaitResponse ; 0x4a3c
        0x00004dd8:    20ff        .       MOVS     r0,#0xff
        0x00004dda:    30f5        .0      ADDS     r0,r0,#0xf5
        0x00004ddc:    f7fdfa32    ..2.    BL       delay_ms ; 0x2244
        0x00004de0:    bd10        ..      POP      {r4,pc}
    HuangupAllCall
        0x00004de2:    b510        ..      PUSH     {r4,lr}
        0x00004de4:    a3f7        ..      ADR      r3,{pc}+0x3e0 ; 0x51c4
        0x00004de6:    2200        ."      MOVS     r2,#0
        0x00004de8:    2106        .!      MOVS     r1,#6
        0x00004dea:    2032        2       MOVS     r0,#0x32
        0x00004dec:    f7fffe3e    ..>.    BL       SendAtWaitRsq ; 0x4a6c
        0x00004df0:    20ff        .       MOVS     r0,#0xff
        0x00004df2:    30f5        .0      ADDS     r0,r0,#0xf5
        0x00004df4:    f7fdfa26    ..&.    BL       delay_ms ; 0x2244
        0x00004df8:    bd10        ..      POP      {r4,pc}
    GetSimPinStatus
        0x00004dfa:    b5f8        ..      PUSH     {r3-r7,lr}
        0x00004dfc:    2408        .$      MOVS     r4,#8
        0x00004dfe:    4ef4        .N      LDR      r6,[pc,#976] ; [0x51d0] = 0x20000048
        0x00004e00:    4ff4        .O      LDR      r7,[pc,#976] ; [0x51d4] = 0x20000018
        0x00004e02:    e03d        =.      B        0x4e80 ; GetSimPinStatus + 134
        0x00004e04:    2014        .       MOVS     r0,#0x14
        0x00004e06:    f7fdfa48    ..H.    BL       delay_50ms ; 0x229a
        0x00004e0a:    a0f3        ..      ADR      r0,{pc}+0x3ce ; 0x51d8
        0x00004e0c:    f7fffd64    ..d.    BL       SendAtCommand ; 0x48d8
        0x00004e10:    2064        d       MOVS     r0,#0x64
        0x00004e12:    f7fffe13    ....    BL       module_WaitResponse ; 0x4a3c
        0x00004e16:    48f3        .H      LDR      r0,[pc,#972] ; [0x51e4] = 0x2000025c
        0x00004e18:    8831        1.      LDRH     r1,[r6,#0]
        0x00004e1a:    1845        E.      ADDS     r5,r0,r1
        0x00004e1c:    7828        (x      LDRB     r0,[r5,#0]
        0x00004e1e:    2834        4(      CMP      r0,#0x34
        0x00004e20:    d106        ..      BNE      0x4e30 ; GetSimPinStatus + 54
        0x00004e22:    4620         F      MOV      r0,r4
        0x00004e24:    1e64        d.      SUBS     r4,r4,#1
        0x00004e26:    b2e4        ..      UXTB     r4,r4
        0x00004e28:    2800        .(      CMP      r0,#0
        0x00004e2a:    d001        ..      BEQ      0x4e30 ; GetSimPinStatus + 54
        0x00004e2c:    2000        .       MOVS     r0,#0
        0x00004e2e:    bdf8        ..      POP      {r3-r7,pc}
        0x00004e30:    a0ed        ..      ADR      r0,{pc}+0x3b8 ; 0x51e8
        0x00004e32:    f7fffd89    ....    BL       CheckTc35Respond ; 0x4948
        0x00004e36:    2801        .(      CMP      r0,#1
        0x00004e38:    d015        ..      BEQ      0x4e66 ; GetSimPinStatus + 108
        0x00004e3a:    8831        1.      LDRH     r1,[r6,#0]
        0x00004e3c:    a0ee        ..      ADR      r0,{pc}+0x3bc ; 0x51f8
        0x00004e3e:    f7fffd83    ....    BL       CheckTc35Respond ; 0x4948
        0x00004e42:    2801        .(      CMP      r0,#1
        0x00004e44:    d02a        *.      BEQ      0x4e9c ; GetSimPinStatus + 162
        0x00004e46:    8831        1.      LDRH     r1,[r6,#0]
        0x00004e48:    a0ef        ..      ADR      r0,{pc}+0x3c0 ; 0x5208
        0x00004e4a:    f7fffd7d    ..}.    BL       CheckTc35Respond ; 0x4948
        0x00004e4e:    2801        .(      CMP      r0,#1
        0x00004e50:    d026        &.      BEQ      0x4ea0 ; GetSimPinStatus + 166
        0x00004e52:    8831        1.      LDRH     r1,[r6,#0]
        0x00004e54:    a0f0        ..      ADR      r0,{pc}+0x3c4 ; 0x5218
        0x00004e56:    f7fffd77    ..w.    BL       CheckTc35Respond ; 0x4948
        0x00004e5a:    2801        .(      CMP      r0,#1
        0x00004e5c:    d022        ".      BEQ      0x4ea4 ; GetSimPinStatus + 170
        0x00004e5e:    7828        (x      LDRB     r0,[r5,#0]
        0x00004e60:    2830        0(      CMP      r0,#0x30
        0x00004e62:    d10d        ..      BNE      0x4e80 ; GetSimPinStatus + 134
        0x00004e64:    e020         .      B        0x4ea8 ; GetSimPinStatus + 174
        0x00004e66:    7b68        h{      LDRB     r0,[r5,#0xd]
        0x00004e68:    2834        4(      CMP      r0,#0x34
        0x00004e6a:    d101        ..      BNE      0x4e70 ; GetSimPinStatus + 118
        0x00004e6c:    2c00        .,      CMP      r4,#0
        0x00004e6e:    d00b        ..      BEQ      0x4e88 ; GetSimPinStatus + 142
        0x00004e70:    2833        3(      CMP      r0,#0x33
        0x00004e72:    d00b        ..      BEQ      0x4e8c ; GetSimPinStatus + 146
        0x00004e74:    2831        1(      CMP      r0,#0x31
        0x00004e76:    d00b        ..      BEQ      0x4e90 ; GetSimPinStatus + 150
        0x00004e78:    2832        2(      CMP      r0,#0x32
        0x00004e7a:    d00b        ..      BEQ      0x4e94 ; GetSimPinStatus + 154
        0x00004e7c:    2c00        .,      CMP      r4,#0
        0x00004e7e:    d00b        ..      BEQ      0x4e98 ; GetSimPinStatus + 158
        0x00004e80:    7838        8x      LDRB     r0,[r7,#0]
        0x00004e82:    2800        .(      CMP      r0,#0
        0x00004e84:    d012        ..      BEQ      0x4eac ; GetSimPinStatus + 178
        0x00004e86:    e016        ..      B        0x4eb6 ; GetSimPinStatus + 188
        0x00004e88:    2004        .       MOVS     r0,#4
        0x00004e8a:    bdf8        ..      POP      {r3-r7,pc}
        0x00004e8c:    2000        .       MOVS     r0,#0
        0x00004e8e:    bdf8        ..      POP      {r3-r7,pc}
        0x00004e90:    2002        .       MOVS     r0,#2
        0x00004e92:    bdf8        ..      POP      {r3-r7,pc}
        0x00004e94:    2003        .       MOVS     r0,#3
        0x00004e96:    bdf8        ..      POP      {r3-r7,pc}
        0x00004e98:    2004        .       MOVS     r0,#4
        0x00004e9a:    bdf8        ..      POP      {r3-r7,pc}
        0x00004e9c:    2001        .       MOVS     r0,#1
        0x00004e9e:    bdf8        ..      POP      {r3-r7,pc}
        0x00004ea0:    2002        .       MOVS     r0,#2
        0x00004ea2:    bdf8        ..      POP      {r3-r7,pc}
        0x00004ea4:    2003        .       MOVS     r0,#3
        0x00004ea6:    bdf8        ..      POP      {r3-r7,pc}
        0x00004ea8:    2001        .       MOVS     r0,#1
        0x00004eaa:    bdf8        ..      POP      {r3-r7,pc}
        0x00004eac:    4620         F      MOV      r0,r4
        0x00004eae:    1e64        d.      SUBS     r4,r4,#1
        0x00004eb0:    b2e4        ..      UXTB     r4,r4
        0x00004eb2:    2800        .(      CMP      r0,#0
        0x00004eb4:    d1a6        ..      BNE      0x4e04 ; GetSimPinStatus + 10
        0x00004eb6:    2004        .       MOVS     r0,#4
        0x00004eb8:    bdf8        ..      POP      {r3-r7,pc}
    signal_quality
        0x00004eba:    b570        p.      PUSH     {r4-r6,lr}
        0x00004ebc:    2463        c$      MOVS     r4,#0x63
        0x00004ebe:    f7fdf99b    ....    BL       FeedWatchdog ; 0x21f8
        0x00004ec2:    a0d9        ..      ADR      r0,{pc}+0x366 ; 0x5228
        0x00004ec4:    f7fffd08    ....    BL       SendAtCommand ; 0x48d8
        0x00004ec8:    200a        .       MOVS     r0,#0xa
        0x00004eca:    f7fffdb7    ....    BL       module_WaitResponse ; 0x4a3c
        0x00004ece:    4dc0        .M      LDR      r5,[pc,#768] ; [0x51d0] = 0x20000048
        0x00004ed0:    a0d8        ..      ADR      r0,{pc}+0x364 ; 0x5234
        0x00004ed2:    8829        ).      LDRH     r1,[r5,#0]
        0x00004ed4:    f7fffd38    ..8.    BL       CheckTc35Respond ; 0x4948
        0x00004ed8:    49d8        .I      LDR      r1,[pc,#864] ; [0x523c] = 0x2000004b
        0x00004eda:    2801        .(      CMP      r0,#1
        0x00004edc:    d004        ..      BEQ      0x4ee8 ; signal_quality + 46
        0x00004ede:    7808        .x      LDRB     r0,[r1,#0]
        0x00004ee0:    1c40        @.      ADDS     r0,r0,#1
        0x00004ee2:    7008        .p      STRB     r0,[r1,#0]
        0x00004ee4:    4620         F      MOV      r0,r4
        0x00004ee6:    bd70        p.      POP      {r4-r6,pc}
        0x00004ee8:    48be        .H      LDR      r0,[pc,#760] ; [0x51e4] = 0x2000025c
        0x00004eea:    882a        *.      LDRH     r2,[r5,#0]
        0x00004eec:    1880        ..      ADDS     r0,r0,r2
        0x00004eee:    7982        .y      LDRB     r2,[r0,#6]
        0x00004ef0:    3a30        0:      SUBS     r2,r2,#0x30
        0x00004ef2:    b2d4        ..      UXTB     r4,r2
        0x00004ef4:    79c0        .y      LDRB     r0,[r0,#7]
        0x00004ef6:    282c        ,(      CMP      r0,#0x2c
        0x00004ef8:    d004        ..      BEQ      0x4f04 ; signal_quality + 74
        0x00004efa:    220a        ."      MOVS     r2,#0xa
        0x00004efc:    4354        TC      MULS     r4,r2,r4
        0x00004efe:    3c30        0<      SUBS     r4,r4,#0x30
        0x00004f00:    1900        ..      ADDS     r0,r0,r4
        0x00004f02:    b2c4        ..      UXTB     r4,r0
        0x00004f04:    2000        .       MOVS     r0,#0
        0x00004f06:    7008        .p      STRB     r0,[r1,#0]
        0x00004f08:    e7ec        ..      B        0x4ee4 ; signal_quality + 42
    GpsStop
        0x00004f0a:    b510        ..      PUSH     {r4,lr}
        0x00004f0c:    48b1        .H      LDR      r0,[pc,#708] ; [0x51d4] = 0x20000018
        0x00004f0e:    7800        .x      LDRB     r0,[r0,#0]
        0x00004f10:    2800        .(      CMP      r0,#0
        0x00004f12:    d105        ..      BNE      0x4f20 ; GpsStop + 22
        0x00004f14:    a3ca        ..      ADR      r3,{pc}+0x32c ; 0x5240
        0x00004f16:    2200        ."      MOVS     r2,#0
        0x00004f18:    2106        .!      MOVS     r1,#6
        0x00004f1a:    2028        (       MOVS     r0,#0x28
        0x00004f1c:    f7fffda6    ....    BL       SendAtWaitRsq ; 0x4a6c
        0x00004f20:    bd10        ..      POP      {r4,pc}
    GpsStart_2
        0x00004f22:    b510        ..      PUSH     {r4,lr}
        0x00004f24:    48ab        .H      LDR      r0,[pc,#684] ; [0x51d4] = 0x20000018
        0x00004f26:    7800        .x      LDRB     r0,[r0,#0]
        0x00004f28:    2800        .(      CMP      r0,#0
        0x00004f2a:    d12b        +.      BNE      0x4f84 ; GpsStart_2 + 98
        0x00004f2c:    48c7        .H      LDR      r0,[pc,#796] ; [0x524c] = 0x20000019
        0x00004f2e:    7800        .x      LDRB     r0,[r0,#0]
        0x00004f30:    2800        .(      CMP      r0,#0
        0x00004f32:    d027        '.      BEQ      0x4f84 ; GpsStart_2 + 98
        0x00004f34:    48c6        .H      LDR      r0,[pc,#792] ; [0x5250] = 0x20000220
        0x00004f36:    7900        .y      LDRB     r0,[r0,#4]
        0x00004f38:    2831        1(      CMP      r0,#0x31
        0x00004f3a:    d023        #.      BEQ      0x4f84 ; GpsStart_2 + 98
        0x00004f3c:    2832        2(      CMP      r0,#0x32
        0x00004f3e:    d00d        ..      BEQ      0x4f5c ; GpsStart_2 + 58
        0x00004f40:    a3c4        ..      ADR      r3,{pc}+0x314 ; 0x5254
        0x00004f42:    2200        ."      MOVS     r2,#0
        0x00004f44:    2106        .!      MOVS     r1,#6
        0x00004f46:    2032        2       MOVS     r0,#0x32
        0x00004f48:    f7fffd90    ....    BL       SendAtWaitRsq ; 0x4a6c
        0x00004f4c:    49c4        .I      LDR      r1,[pc,#784] ; [0x5260] = 0x2000003c
        0x00004f4e:    2001        .       MOVS     r0,#1
        0x00004f50:    7008        .p      STRB     r0,[r1,#0]
        0x00004f52:    48c4        .H      LDR      r0,[pc,#784] ; [0x5264] = 0x2000001a
        0x00004f54:    7800        .x      LDRB     r0,[r0,#0]
        0x00004f56:    2801        .(      CMP      r0,#1
        0x00004f58:    d111        ..      BNE      0x4f7e ; GpsStart_2 + 92
        0x00004f5a:    e00c        ..      B        0x4f76 ; GpsStart_2 + 84
        0x00004f5c:    a3c2        ..      ADR      r3,{pc}+0x30c ; 0x5268
        0x00004f5e:    2200        ."      MOVS     r2,#0
        0x00004f60:    2106        .!      MOVS     r1,#6
        0x00004f62:    2064        d       MOVS     r0,#0x64
        0x00004f64:    f7fffd82    ....    BL       SendAtWaitRsq ; 0x4a6c
        0x00004f68:    a3c3        ..      ADR      r3,{pc}+0x310 ; 0x5278
        0x00004f6a:    2200        ."      MOVS     r2,#0
        0x00004f6c:    2106        .!      MOVS     r1,#6
        0x00004f6e:    2064        d       MOVS     r0,#0x64
        0x00004f70:    f7fffd7c    ..|.    BL       SendAtWaitRsq ; 0x4a6c
        0x00004f74:    e7ea        ..      B        0x4f4c ; GpsStart_2 + 42
        0x00004f76:    48c4        .H      LDR      r0,[pc,#784] ; [0x5288] = 0x2000001d
        0x00004f78:    7800        .x      LDRB     r0,[r0,#0]
        0x00004f7a:    2805        .(      CMP      r0,#5
        0x00004f7c:    d102        ..      BNE      0x4f84 ; GpsStart_2 + 98
        0x00004f7e:    49c3        .I      LDR      r1,[pc,#780] ; [0x528c] = 0x20000039
        0x00004f80:    200f        .       MOVS     r0,#0xf
        0x00004f82:    7008        .p      STRB     r0,[r1,#0]
        0x00004f84:    bd10        ..      POP      {r4,pc}
    SockOpen
        0x00004f86:    b5f8        ..      PUSH     {r3-r7,lr}
        0x00004f88:    48c1        .H      LDR      r0,[pc,#772] ; [0x5290] = 0x20000017
        0x00004f8a:    7800        .x      LDRB     r0,[r0,#0]
        0x00004f8c:    2800        .(      CMP      r0,#0
        0x00004f8e:    d118        ..      BNE      0x4fc2 ; SockOpen + 60
        0x00004f90:    48b4        .H      LDR      r0,[pc,#720] ; [0x5264] = 0x2000001a
        0x00004f92:    7800        .x      LDRB     r0,[r0,#0]
        0x00004f94:    2801        .(      CMP      r0,#1
        0x00004f96:    d103        ..      BNE      0x4fa0 ; SockOpen + 26
        0x00004f98:    48bb        .H      LDR      r0,[pc,#748] ; [0x5288] = 0x2000001d
        0x00004f9a:    7800        .x      LDRB     r0,[r0,#0]
        0x00004f9c:    2801        .(      CMP      r0,#1
        0x00004f9e:    d010        ..      BEQ      0x4fc2 ; SockOpen + 60
        0x00004fa0:    4dbc        .M      LDR      r5,[pc,#752] ; [0x5294] = 0x2000001b
        0x00004fa2:    4cab        .L      LDR      r4,[pc,#684] ; [0x5250] = 0x20000220
        0x00004fa4:    7828        (x      LDRB     r0,[r5,#0]
        0x00004fa6:    4ebc        .N      LDR      r6,[pc,#752] ; [0x5298] = 0x20000028
        0x00004fa8:    2800        .(      CMP      r0,#0
        0x00004faa:    d00b        ..      BEQ      0x4fc4 ; SockOpen + 62
        0x00004fac:    2002        .       MOVS     r0,#2
        0x00004fae:    7028        (p      STRB     r0,[r5,#0]
        0x00004fb0:    7920         y      LDRB     r0,[r4,#4]
        0x00004fb2:    2831        1(      CMP      r0,#0x31
        0x00004fb4:    d07e        ~.      BEQ      0x50b4 ; SockOpen + 302
        0x00004fb6:    48aa        .H      LDR      r0,[pc,#680] ; [0x5260] = 0x2000003c
        0x00004fb8:    7800        .x      LDRB     r0,[r0,#0]
        0x00004fba:    2801        .(      CMP      r0,#1
        0x00004fbc:    d0fa        ..      BEQ      0x4fb4 ; SockOpen + 46
        0x00004fbe:    2014        .       MOVS     r0,#0x14
        0x00004fc0:    8030        0.      STRH     r0,[r6,#0]
        0x00004fc2:    bdf8        ..      POP      {r3-r7,pc}
        0x00004fc4:    4fb5        .O      LDR      r7,[pc,#724] ; [0x529c] = 0x2000001c
        0x00004fc6:    7838        8x      LDRB     r0,[r7,#0]
        0x00004fc8:    2801        .(      CMP      r0,#1
        0x00004fca:    d017        ..      BEQ      0x4ffc ; SockOpen + 118
        0x00004fcc:    48a0        .H      LDR      r0,[pc,#640] ; [0x5250] = 0x20000220
        0x00004fce:    a3b4        ..      ADR      r3,{pc}+0x2d2 ; 0x52a0
        0x00004fd0:    38d8        .8      SUBS     r0,r0,#0xd8
        0x00004fd2:    9000        ..      STR      r0,[sp,#0]
        0x00004fd4:    2200        ."      MOVS     r2,#0
        0x00004fd6:    2106        .!      MOVS     r1,#6
        0x00004fd8:    2064        d       MOVS     r0,#0x64
        0x00004fda:    f7fffd47    ..G.    BL       SendAtWaitRsq ; 0x4a6c
        0x00004fde:    489c        .H      LDR      r0,[pc,#624] ; [0x5250] = 0x20000220
        0x00004fe0:    38a0        .8      SUBS     r0,r0,#0xa0
        0x00004fe2:    7e00        .~      LDRB     r0,[r0,#0x18]
        0x00004fe4:    2800        .(      CMP      r0,#0
        0x00004fe6:    d027        '.      BEQ      0x5038 ; SockOpen + 178
        0x00004fe8:    4899        .H      LDR      r0,[pc,#612] ; [0x5250] = 0x20000220
        0x00004fea:    a3b4        ..      ADR      r3,{pc}+0x2d2 ; 0x52bc
        0x00004fec:    3888        .8      SUBS     r0,r0,#0x88
        0x00004fee:    9000        ..      STR      r0,[sp,#0]
        0x00004ff0:    2200        ."      MOVS     r2,#0
        0x00004ff2:    2106        .!      MOVS     r1,#6
        0x00004ff4:    2064        d       MOVS     r0,#0x64
        0x00004ff6:    f7fffd39    ..9.    BL       SendAtWaitRsq ; 0x4a6c
        0x00004ffa:    e023        #.      B        0x5044 ; SockOpen + 190
        0x00004ffc:    48b5        .H      LDR      r0,[pc,#724] ; [0x52d4] = 0x20000120
        0x00004ffe:    9000        ..      STR      r0,[sp,#0]
        0x00005000:    a3b5        ..      ADR      r3,{pc}+0x2d8 ; 0x52d8
        0x00005002:    2200        ."      MOVS     r2,#0
        0x00005004:    2106        .!      MOVS     r1,#6
        0x00005006:    2064        d       MOVS     r0,#0x64
        0x00005008:    f7fffd30    ..0.    BL       SendAtWaitRsq ; 0x4a6c
        0x0000500c:    48b1        .H      LDR      r0,[pc,#708] ; [0x52d4] = 0x20000120
        0x0000500e:    3040        @0      ADDS     r0,r0,#0x40
        0x00005010:    7c00        .|      LDRB     r0,[r0,#0x10]
        0x00005012:    2800        .(      CMP      r0,#0
        0x00005014:    d009        ..      BEQ      0x502a ; SockOpen + 164
        0x00005016:    48af        .H      LDR      r0,[pc,#700] ; [0x52d4] = 0x20000120
        0x00005018:    a3b6        ..      ADR      r3,{pc}+0x2dc ; 0x52f4
        0x0000501a:    3050        P0      ADDS     r0,r0,#0x50
        0x0000501c:    9000        ..      STR      r0,[sp,#0]
        0x0000501e:    2200        ."      MOVS     r2,#0
        0x00005020:    2106        .!      MOVS     r1,#6
        0x00005022:    2064        d       MOVS     r0,#0x64
        0x00005024:    f7fffd22    ..".    BL       SendAtWaitRsq ; 0x4a6c
        0x00005028:    e00c        ..      B        0x5044 ; SockOpen + 190
        0x0000502a:    a3b8        ..      ADR      r3,{pc}+0x2e2 ; 0x530c
        0x0000502c:    2200        ."      MOVS     r2,#0
        0x0000502e:    2106        .!      MOVS     r1,#6
        0x00005030:    2064        d       MOVS     r0,#0x64
        0x00005032:    f7fffd1b    ....    BL       SendAtWaitRsq ; 0x4a6c
        0x00005036:    e005        ..      B        0x5044 ; SockOpen + 190
        0x00005038:    a3b9        ..      ADR      r3,{pc}+0x2e8 ; 0x5320
        0x0000503a:    2200        ."      MOVS     r2,#0
        0x0000503c:    2106        .!      MOVS     r1,#6
        0x0000503e:    2064        d       MOVS     r0,#0x64
        0x00005040:    f7fffd14    ....    BL       SendAtWaitRsq ; 0x4a6c
        0x00005044:    7838        8x      LDRB     r0,[r7,#0]
        0x00005046:    2801        .(      CMP      r0,#1
        0x00005048:    d00a        ..      BEQ      0x5060 ; SockOpen + 218
        0x0000504a:    a3ba        ..      ADR      r3,{pc}+0x2ea ; 0x5334
        0x0000504c:    2200        ."      MOVS     r2,#0
        0x0000504e:    2106        .!      MOVS     r1,#6
        0x00005050:    2064        d       MOVS     r0,#0x64
        0x00005052:    f7fffd0b    ....    BL       SendAtWaitRsq ; 0x4a6c
        0x00005056:    7920         y      LDRB     r0,[r4,#4]
        0x00005058:    2401        .$      MOVS     r4,#1
        0x0000505a:    2831        1(      CMP      r0,#0x31
        0x0000505c:    d007        ..      BEQ      0x506e ; SockOpen + 232
        0x0000505e:    e030        0.      B        0x50c2 ; SockOpen + 316
        0x00005060:    a3b9        ..      ADR      r3,{pc}+0x2e8 ; 0x5348
        0x00005062:    2200        ."      MOVS     r2,#0
        0x00005064:    2106        .!      MOVS     r1,#6
        0x00005066:    2064        d       MOVS     r0,#0x64
        0x00005068:    f7fffd00    ....    BL       SendAtWaitRsq ; 0x4a6c
        0x0000506c:    e7f3        ..      B        0x5056 ; SockOpen + 208
        0x0000506e:    4878        xH      LDR      r0,[pc,#480] ; [0x5250] = 0x20000220
        0x00005070:    a3ba        ..      ADR      r3,{pc}+0x2ec ; 0x535c
        0x00005072:    1d40        @.      ADDS     r0,r0,#5
        0x00005074:    9000        ..      STR      r0,[sp,#0]
        0x00005076:    2200        ."      MOVS     r2,#0
        0x00005078:    2106        .!      MOVS     r1,#6
        0x0000507a:    2064        d       MOVS     r0,#0x64
        0x0000507c:    f7fffcf6    ....    BL       SendAtWaitRsq ; 0x4a6c
        0x00005080:    a3ba        ..      ADR      r3,{pc}+0x2ec ; 0x536c
        0x00005082:    2200        ."      MOVS     r2,#0
        0x00005084:    2106        .!      MOVS     r1,#6
        0x00005086:    2064        d       MOVS     r0,#0x64
        0x00005088:    f7fffcf0    ....    BL       SendAtWaitRsq ; 0x4a6c
        0x0000508c:    a3bb        ..      ADR      r3,{pc}+0x2f0 ; 0x537c
        0x0000508e:    2200        ."      MOVS     r2,#0
        0x00005090:    2106        .!      MOVS     r1,#6
        0x00005092:    2064        d       MOVS     r0,#0x64
        0x00005094:    f7fffcea    ....    BL       SendAtWaitRsq ; 0x4a6c
        0x00005098:    a377        w.      ADR      r3,{pc}+0x1e0 ; 0x5278
        0x0000509a:    2200        ."      MOVS     r2,#0
        0x0000509c:    2106        .!      MOVS     r1,#6
        0x0000509e:    2064        d       MOVS     r0,#0x64
        0x000050a0:    f7fffce4    ....    BL       SendAtWaitRsq ; 0x4a6c
        0x000050a4:    486e        nH      LDR      r0,[pc,#440] ; [0x5260] = 0x2000003c
        0x000050a6:    7004        .p      STRB     r4,[r0,#0]
        0x000050a8:    486e        nH      LDR      r0,[pc,#440] ; [0x5264] = 0x2000001a
        0x000050aa:    7800        .x      LDRB     r0,[r0,#0]
        0x000050ac:    2801        .(      CMP      r0,#1
        0x000050ae:    d105        ..      BNE      0x50bc ; SockOpen + 310
        0x000050b0:    4875        uH      LDR      r0,[pc,#468] ; [0x5288] = 0x2000001d
        0x000050b2:    e000        ..      B        0x50b6 ; SockOpen + 304
        0x000050b4:    e009        ..      B        0x50ca ; SockOpen + 324
        0x000050b6:    7800        .x      LDRB     r0,[r0,#0]
        0x000050b8:    2805        .(      CMP      r0,#5
        0x000050ba:    d102        ..      BNE      0x50c2 ; SockOpen + 316
        0x000050bc:    4973        sI      LDR      r1,[pc,#460] ; [0x528c] = 0x20000039
        0x000050be:    200a        .       MOVS     r0,#0xa
        0x000050c0:    7008        .p      STRB     r0,[r1,#0]
        0x000050c2:    702c        ,p      STRB     r4,[r5,#0]
        0x000050c4:    2028        (       MOVS     r0,#0x28
        0x000050c6:    8030        0.      STRH     r0,[r6,#0]
        0x000050c8:    bdf8        ..      POP      {r3-r7,pc}
        0x000050ca:    a0b0        ..      ADR      r0,{pc}+0x2c2 ; 0x538c
        0x000050cc:    f7fffc04    ....    BL       SendAtCommand ; 0x48d8
        0x000050d0:    203c        <       MOVS     r0,#0x3c
        0x000050d2:    f7fffcb3    ....    BL       module_WaitResponse ; 0x4a3c
        0x000050d6:    20ff        .       MOVS     r0,#0xff
        0x000050d8:    8030        0.      STRH     r0,[r6,#0]
        0x000050da:    bdf8        ..      POP      {r3-r7,pc}
    SockClose
        0x000050dc:    b510        ..      PUSH     {r4,lr}
        0x000050de:    496d        mI      LDR      r1,[pc,#436] ; [0x5294] = 0x2000001b
        0x000050e0:    2008        .       MOVS     r0,#8
        0x000050e2:    7008        .p      STRB     r0,[r1,#0]
        0x000050e4:    a0ae        ..      ADR      r0,{pc}+0x2bc ; 0x53a0
        0x000050e6:    f7fffbf7    ....    BL       SendAtCommand ; 0x48d8
        0x000050ea:    2014        .       MOVS     r0,#0x14
        0x000050ec:    f7fffca6    ....    BL       module_WaitResponse ; 0x4a3c
        0x000050f0:    bd10        ..      POP      {r4,pc}
    SockConnect
        0x000050f2:    b508        ..      PUSH     {r3,lr}
        0x000050f4:    a3ae        ..      ADR      r3,{pc}+0x2bc ; 0x53b0
        0x000050f6:    2200        ."      MOVS     r2,#0
        0x000050f8:    2106        .!      MOVS     r1,#6
        0x000050fa:    2032        2       MOVS     r0,#0x32
        0x000050fc:    f7fffcb6    ....    BL       SendAtWaitRsq ; 0x4a6c
        0x00005100:    a3af        ..      ADR      r3,{pc}+0x2c0 ; 0x53c0
        0x00005102:    2200        ."      MOVS     r2,#0
        0x00005104:    2106        .!      MOVS     r1,#6
        0x00005106:    2032        2       MOVS     r0,#0x32
        0x00005108:    f7fffcb0    ....    BL       SendAtWaitRsq ; 0x4a6c
        0x0000510c:    a3b0        ..      ADR      r3,{pc}+0x2c4 ; 0x53d0
        0x0000510e:    2200        ."      MOVS     r2,#0
        0x00005110:    2106        .!      MOVS     r1,#6
        0x00005112:    2032        2       MOVS     r0,#0x32
        0x00005114:    f7fffcaa    ....    BL       SendAtWaitRsq ; 0x4a6c
        0x00005118:    484d        MH      LDR      r0,[pc,#308] ; [0x5250] = 0x20000220
        0x0000511a:    a3b3        ..      ADR      r3,{pc}+0x2ce ; 0x53e8
        0x0000511c:    3810        .8      SUBS     r0,r0,#0x10
        0x0000511e:    9000        ..      STR      r0,[sp,#0]
        0x00005120:    2200        ."      MOVS     r2,#0
        0x00005122:    2101        .!      MOVS     r1,#1
        0x00005124:    2032        2       MOVS     r0,#0x32
        0x00005126:    f7fffca1    ....    BL       SendAtWaitRsq ; 0x4a6c
        0x0000512a:    495b        [I      LDR      r1,[pc,#364] ; [0x5298] = 0x20000028
        0x0000512c:    2050        P       MOVS     r0,#0x50
        0x0000512e:    8008        ..      STRH     r0,[r1,#0]
        0x00005130:    bd08        ..      POP      {r3,pc}
    GetModuleIMEI
        0x00005132:    b5f8        ..      PUSH     {r3-r7,lr}
        0x00005134:    4605        .F      MOV      r5,r0
        0x00005136:    460f        .F      MOV      r7,r1
        0x00005138:    2403        .$      MOVS     r4,#3
        0x0000513a:    4eb2        .N      LDR      r6,[pc,#712] ; [0x5404] = 0x2000003d
        0x0000513c:    e00b        ..      B        0x5156 ; GetModuleIMEI + 36
        0x0000513e:    a0b2        ..      ADR      r0,{pc}+0x2ca ; 0x5408
        0x00005140:    f7fffbca    ....    BL       SendAtCommand ; 0x48d8
        0x00005144:    2064        d       MOVS     r0,#0x64
        0x00005146:    f7fffc79    ..y.    BL       module_WaitResponse ; 0x4a3c
        0x0000514a:    7830        0x      LDRB     r0,[r6,#0]
        0x0000514c:    2801        .(      CMP      r0,#1
        0x0000514e:    d008        ..      BEQ      0x5162 ; GetModuleIMEI + 48
        0x00005150:    2028        (       MOVS     r0,#0x28
        0x00005152:    f7fdf8a2    ....    BL       delay_50ms ; 0x229a
        0x00005156:    4620         F      MOV      r0,r4
        0x00005158:    1e64        d.      SUBS     r4,r4,#1
        0x0000515a:    b2e4        ..      UXTB     r4,r4
        0x0000515c:    2800        .(      CMP      r0,#0
        0x0000515e:    d1ee        ..      BNE      0x513e ; GetModuleIMEI + 12
        0x00005160:    bdf8        ..      POP      {r3-r7,pc}
        0x00005162:    e157        W.      B        0x5414 ; GetModuleIMEI + 738
    $d
        0x00005164:    432b5441    AT+C    DCD    1126913089
        0x00005168:    41475854    TXGA    DCD    1095194708
        0x0000516c:    313d4e49    IN=1    DCD    826101321
        0x00005170:    30303033    3000    DCD    808464435
        0x00005174:    54432b3b    ;+CT    DCD    1413688123
        0x00005178:    4c4f5658    XVOL    DCD    1280267864
        0x0000517c:    3030313d    =100    DCD    808464701
        0x00005180:    2b3b3030    00;+    DCD    725299248
        0x00005184:    47585243    CRXG    DCD    1196970563
        0x00005188:    3d4e4941    AIN=    DCD    1028540737
        0x0000518c:    30303031    1000    DCD    808464433
        0x00005190:    432b3b30    0;+C    DCD    1126906672
        0x00005194:    4f565852    RXVO    DCD    1331058770
        0x00005198:    30353d4c    L=50    DCD    808795468
        0x0000519c:    00000a0d    ....    DCD    2573
        0x000051a0:    532b5441    AT+S    DCD    1395348545
        0x000051a4:    54454449    IDET    DCD    1413825609
        0x000051a8:    2b3b303d    =0;+    DCD    725299261
        0x000051ac:    43494d43    CMIC    DCD    1128877379
        0x000051b0:    31504d41    AMP1    DCD    827346241
        0x000051b4:    2b3b313d    =1;+    DCD    725299517
        0x000051b8:    4d434543    CECM    DCD    1296254275
        0x000051bc:    0a0d303d    =0..    DCD    168636477
        0x000051c0:    00000000    ....    DCD    0
        0x000051c4:    432b5441    AT+C    DCD    1126913089
        0x000051c8:    0d505548    HUP.    DCD    223368520
        0x000051cc:    0000000a    ....    DCD    10
        0x000051d0:    20000048    H..     DCD    536870984
        0x000051d4:    20000018    ...     DCD    536870936
        0x000051d8:    432b5441    AT+C    DCD    1126913089
        0x000051dc:    3f4e4950    PIN?    DCD    1062095184
        0x000051e0:    00000a0d    ....    DCD    2573
        0x000051e4:    2000025c    \..     DCD    536871516
        0x000051e8:    454d432b    +CME    DCD    1162691371
        0x000051ec:    52524520     ERR    DCD    1381123360
        0x000051f0:    203a524f    OR:     DCD    540693071
        0x000051f4:    00000031    1...    DCD    49
        0x000051f8:    4950432b    +CPI    DCD    1229996843
        0x000051fc:    52203a4e    N: R    DCD    1377843790
        0x00005200:    59444145    EADY    DCD    1497645381
        0x00005204:    00000000    ....    DCD    0
        0x00005208:    4950432b    +CPI    DCD    1229996843
        0x0000520c:    53203a4e    N: S    DCD    1394621006
        0x00005210:    50204d49    IM P    DCD    1344294217
        0x00005214:    00004e49    IN..    DCD    20041
        0x00005218:    4950432b    +CPI    DCD    1229996843
        0x0000521c:    53203a4e    N: S    DCD    1394621006
        0x00005220:    50204d49    IM P    DCD    1344294217
        0x00005224:    00004b55    UK..    DCD    19285
        0x00005228:    432b5441    AT+C    DCD    1126913089
        0x0000522c:    0a0d5153    SQ..    DCD    168644947
        0x00005230:    00000000    ....    DCD    0
        0x00005234:    5153432b    +CSQ    DCD    1364411179
        0x00005238:    0000003a    :...    DCD    58
        0x0000523c:    2000004b    K..     DCD    536870987
        0x00005240:    432b5441    AT+C    DCD    1126913089
        0x00005244:    3d535047    GPS=    DCD    1028870215
        0x00005248:    000a0d30    0...    DCD    658736
        0x0000524c:    20000019    ...     DCD    536870937
        0x00005250:    20000220     ..     DCD    536871456
        0x00005254:    432b5441    AT+C    DCD    1126913089
        0x00005258:    3d535047    GPS=    DCD    1028870215
        0x0000525c:    000a0d31    1...    DCD    658737
        0x00005260:    2000003c    <..     DCD    536870972
        0x00005264:    2000001a    ...     DCD    536870938
        0x00005268:    432b5441    AT+C    DCD    1126913089
        0x0000526c:    4d535047    GPSM    DCD    1297305671
        0x00005270:    0d303d44    D=0.    DCD    221265220
        0x00005274:    0000000a    ....    DCD    10
        0x00005278:    432b5441    AT+C    DCD    1126913089
        0x0000527c:    3d535047    GPS=    DCD    1028870215
        0x00005280:    0d322c31    1,2.    DCD    221391921
        0x00005284:    0000000a    ....    DCD    10
        0x00005288:    2000001d    ...     DCD    536870941
        0x0000528c:    20000039    9..     DCD    536870969
        0x00005290:    20000017    ...     DCD    536870935
        0x00005294:    2000001b    ...     DCD    536870939
        0x00005298:    20000028    (..     DCD    536870952
        0x0000529c:    2000001c    ...     DCD    536870940
        0x000052a0:    432b5441    AT+C    DCD    1126913089
        0x000052a4:    434f5347    GSOC    DCD    1129272135
        0x000052a8:    4e4f434b    KCON    DCD    1313817419
        0x000052ac:    2c323d54    T=2,    DCD    741490004
        0x000052b0:    22504922    "IP"    DCD    575686946
        0x000052b4:    0d73252c    ,%s.    DCD    225649964
        0x000052b8:    0000000a    ....    DCD    10
        0x000052bc:    432b5441    AT+C    DCD    1126913089
        0x000052c0:    4b434f53    SOCK    DCD    1262702419
        0x000052c4:    48545541    AUTH    DCD    1213486401
        0x000052c8:    312c323d    =2,1    DCD    824980029
        0x000052cc:    0d73252c    ,%s.    DCD    225649964
        0x000052d0:    0000000a    ....    DCD    10
        0x000052d4:    20000120     ..     DCD    536871200
        0x000052d8:    432b5441    AT+C    DCD    1126913089
        0x000052dc:    434f5347    GSOC    DCD    1129272135
        0x000052e0:    4e4f434b    KCON    DCD    1313817419
        0x000052e4:    2c333d54    T=3,    DCD    741555540
        0x000052e8:    22504922    "IP"    DCD    575686946
        0x000052ec:    0d73252c    ,%s.    DCD    225649964
        0x000052f0:    0000000a    ....    DCD    10
        0x000052f4:    432b5441    AT+C    DCD    1126913089
        0x000052f8:    4b434f53    SOCK    DCD    1262702419
        0x000052fc:    48545541    AUTH    DCD    1213486401
        0x00005300:    312c333d    =3,1    DCD    824980285
        0x00005304:    0d73252c    ,%s.    DCD    225649964
        0x00005308:    0000000a    ....    DCD    10
        0x0000530c:    432b5441    AT+C    DCD    1126913089
        0x00005310:    4b434f53    SOCK    DCD    1262702419
        0x00005314:    48545541    AUTH    DCD    1213486401
        0x00005318:    302c333d    =3,0    DCD    808203069
        0x0000531c:    00000a0d    ....    DCD    2573
        0x00005320:    432b5441    AT+C    DCD    1126913089
        0x00005324:    4b434f53    SOCK    DCD    1262702419
        0x00005328:    48545541    AUTH    DCD    1213486401
        0x0000532c:    302c323d    =2,0    DCD    808202813
        0x00005330:    00000a0d    ....    DCD    2573
        0x00005334:    432b5441    AT+C    DCD    1126913089
        0x00005338:    4b434f53    SOCK    DCD    1262702419
        0x0000533c:    50544553    SETP    DCD    1347700051
        0x00005340:    0d323d4e    N=2.    DCD    221396302
        0x00005344:    0000000a    ....    DCD    10
        0x00005348:    432b5441    AT+C    DCD    1126913089
        0x0000534c:    4b434f53    SOCK    DCD    1262702419
        0x00005350:    50544553    SETP    DCD    1347700051
        0x00005354:    0d333d4e    N=3.    DCD    221461838
        0x00005358:    0000000a    ....    DCD    10
        0x0000535c:    432b5441    AT+C    DCD    1126913089
        0x00005360:    55535047    GPSU    DCD    1431523399
        0x00005364:    253d4c52    RL=%    DCD    624774226
        0x00005368:    000a0d73    s...    DCD    658803
        0x0000536c:    432b5441    AT+C    DCD    1126913089
        0x00005370:    53535047    GPSS    DCD    1397968967
        0x00005374:    303d4c53    SL=0    DCD    809323603
        0x00005378:    00000a0d    ....    DCD    2573
        0x0000537c:    432b5441    AT+C    DCD    1126913089
        0x00005380:    4d535047    GPSM    DCD    1297305671
        0x00005384:    0d313d44    D=1.    DCD    221330756
        0x00005388:    0000000a    ....    DCD    10
        0x0000538c:    4e2b5441    AT+N    DCD    1311462465
        0x00005390:    504f5445    ETOP    DCD    1347376197
        0x00005394:    2c3d4e45    EN=,    DCD    742215237
        0x00005398:    0a0d312c    ,1..    DCD    168636716
        0x0000539c:    00000000    ....    DCD    0
        0x000053a0:    4e2b5441    AT+N    DCD    1311462465
        0x000053a4:    4c435445    ETCL    DCD    1279480901
        0x000053a8:    0d45534f    OSE.    DCD    222647119
        0x000053ac:    0000000a    ....    DCD    10
        0x000053b0:    432b5441    AT+C    DCD    1126913089
        0x000053b4:    45485049    IPHE    DCD    1162367049
        0x000053b8:    313d4441    AD=1    DCD    826098753
        0x000053bc:    00000a0d    ....    DCD    2573
        0x000053c0:    432b5441    AT+C    DCD    1126913089
        0x000053c4:    52535049    IPSR    DCD    1381191753
        0x000053c8:    313d5049    IP=1    DCD    826101833
        0x000053cc:    00000a0d    ....    DCD    2573
        0x000053d0:    432b5441    AT+C    DCD    1126913089
        0x000053d4:    43435049    IPCC    DCD    1128484937
        0x000053d8:    333d4746    FG=3    DCD    859653958
        0x000053dc:    302c302c    ,0,0    DCD    808202284
        0x000053e0:    312c312c    ,1,1    DCD    824979756
        0x000053e4:    00000a0d    ....    DCD    2573
        0x000053e8:    432b5441    AT+C    DCD    1126913089
        0x000053ec:    504f5049    IPOP    DCD    1347375177
        0x000053f0:    303d4e45    EN=0    DCD    809324101
        0x000053f4:    4455222c    ,"UD    DCD    1146429996
        0x000053f8:    2c2c2250    P",,    DCD    741089872
        0x000053fc:    0d73252c    ,%s.    DCD    225649964
        0x00005400:    0000000a    ....    DCD    10
        0x00005404:    2000003d    =..     DCD    536870973
        0x00005408:    472b5441    AT+G    DCD    1194021953
        0x0000540c:    0a0d4e53    SN..    DCD    168644179
        0x00005410:    00000000    ....    DCD    0
    $t
        0x00005414:    1e7f        ..      SUBS     r7,r7,#1
        0x00005416:    b2fb        ..      UXTB     r3,r7
        0x00005418:    2000        .       MOVS     r0,#0
        0x0000541a:    49bb        .I      LDR      r1,[pc,#748] ; [0x5708] = 0x20000048
        0x0000541c:    8809        ..      LDRH     r1,[r1,#0]
        0x0000541e:    4cbb        .L      LDR      r4,[pc,#748] ; [0x570c] = 0x2000025c
        0x00005420:    e004        ..      B        0x542c ; GetModuleIMEI + 762
        0x00005422:    542a        *T      STRB     r2,[r5,r0]
        0x00005424:    1c40        @.      ADDS     r0,r0,#1
        0x00005426:    b2c0        ..      UXTB     r0,r0
        0x00005428:    1c49        I.      ADDS     r1,r1,#1
        0x0000542a:    b289        ..      UXTH     r1,r1
        0x0000542c:    5c62        b\      LDRB     r2,[r4,r1]
        0x0000542e:    2a0d        .*      CMP      r2,#0xd
        0x00005430:    d001        ..      BEQ      0x5436 ; GetModuleIMEI + 772
        0x00005432:    4298        .B      CMP      r0,r3
        0x00005434:    d3f5        ..      BCC      0x5422 ; GetModuleIMEI + 752
        0x00005436:    2100        .!      MOVS     r1,#0
        0x00005438:    5429        )T      STRB     r1,[r5,r0]
        0x0000543a:    e691        ..      B        0x5160 ; GetModuleIMEI + 46
    GetIccid
        0x0000543c:    b538        8.      PUSH     {r3-r5,lr}
        0x0000543e:    4605        .F      MOV      r5,r0
        0x00005440:    460c        .F      MOV      r4,r1
        0x00005442:    a1b3        ..      ADR      r1,{pc}+0x2ce ; 0x5710
        0x00005444:    a0b4        ..      ADR      r0,{pc}+0x2d4 ; 0x5718
        0x00005446:    f7fffa92    ....    BL       SendAtCmdRsq ; 0x496e
        0x0000544a:    2801        .(      CMP      r0,#1
        0x0000544c:    d10d        ..      BNE      0x546a ; GetIccid + 46
        0x0000544e:    49ae        .I      LDR      r1,[pc,#696] ; [0x5708] = 0x20000048
        0x00005450:    9400        ..      STR      r4,[sp,#0]
        0x00005452:    48ae        .H      LDR      r0,[pc,#696] ; [0x570c] = 0x2000025c
        0x00005454:    8809        ..      LDRH     r1,[r1,#0]
        0x00005456:    462b        +F      MOV      r3,r5
        0x00005458:    1840        @.      ADDS     r0,r0,r1
        0x0000545a:    a2b2        ..      ADR      r2,{pc}+0x2ca ; 0x5724
        0x0000545c:    a1b2        ..      ADR      r1,{pc}+0x2cc ; 0x5728
        0x0000545e:    f7fdfab9    ....    BL       GetString ; 0x29d4
        0x00005462:    2800        .(      CMP      r0,#0
        0x00005464:    d001        ..      BEQ      0x546a ; GetIccid + 46
        0x00005466:    2001        .       MOVS     r0,#1
        0x00005468:    bd38        8.      POP      {r3-r5,pc}
        0x0000546a:    2000        .       MOVS     r0,#0
        0x0000546c:    bd38        8.      POP      {r3-r5,pc}
    ChgPinCode
        0x0000546e:    b570        p.      PUSH     {r4-r6,lr}
        0x00005470:    4605        .F      MOV      r5,r0
        0x00005472:    460c        .F      MOV      r4,r1
        0x00005474:    a0ad        ..      ADR      r0,{pc}+0x2b8 ; 0x572c
        0x00005476:    f7fffa2f    ../.    BL       SendAtCommand ; 0x48d8
        0x0000547a:    4628        (F      MOV      r0,r5
        0x0000547c:    f7fffa2c    ..,.    BL       SendAtCommand ; 0x48d8
        0x00005480:    a0ae        ..      ADR      r0,{pc}+0x2bc ; 0x573c
        0x00005482:    f7fffa29    ..).    BL       SendAtCommand ; 0x48d8
        0x00005486:    4620         F      MOV      r0,r4
        0x00005488:    f7fffa26    ..&.    BL       SendAtCommand ; 0x48d8
        0x0000548c:    a0ac        ..      ADR      r0,{pc}+0x2b4 ; 0x5740
        0x0000548e:    f7fffa23    ..#.    BL       SendAtCommand ; 0x48d8
        0x00005492:    20fa        .       MOVS     r0,#0xfa
        0x00005494:    f7fffad2    ....    BL       module_WaitResponse ; 0x4a3c
        0x00005498:    4c9b        .L      LDR      r4,[pc,#620] ; [0x5708] = 0x20000048
        0x0000549a:    4d9c        .M      LDR      r5,[pc,#624] ; [0x570c] = 0x2000025c
        0x0000549c:    8821        !.      LDRH     r1,[r4,#0]
        0x0000549e:    5c68        h\      LDRB     r0,[r5,r1]
        0x000054a0:    2830        0(      CMP      r0,#0x30
        0x000054a2:    d00b        ..      BEQ      0x54bc ; ChgPinCode + 78
        0x000054a4:    284f        O(      CMP      r0,#0x4f
        0x000054a6:    d009        ..      BEQ      0x54bc ; ChgPinCode + 78
        0x000054a8:    48a6        .H      LDR      r0,[pc,#664] ; [0x5744] = 0x51e8
        0x000054aa:    f7fffa4d    ..M.    BL       CheckTc35Respond ; 0x4948
        0x000054ae:    2801        .(      CMP      r0,#1
        0x000054b0:    d006        ..      BEQ      0x54c0 ; ChgPinCode + 82
        0x000054b2:    8820         .      LDRH     r0,[r4,#0]
        0x000054b4:    5c28        (\      LDRB     r0,[r5,r0]
        0x000054b6:    2834        4(      CMP      r0,#0x34
        0x000054b8:    d00f        ..      BEQ      0x54da ; ChgPinCode + 108
        0x000054ba:    e008        ..      B        0x54ce ; ChgPinCode + 96
        0x000054bc:    2001        .       MOVS     r0,#1
        0x000054be:    bd70        p.      POP      {r4-r6,pc}
        0x000054c0:    8820         .      LDRH     r0,[r4,#0]
        0x000054c2:    1828        (.      ADDS     r0,r5,r0
        0x000054c4:    7b40        @{      LDRB     r0,[r0,#0xd]
        0x000054c6:    2832        2(      CMP      r0,#0x32
        0x000054c8:    d003        ..      BEQ      0x54d2 ; ChgPinCode + 100
        0x000054ca:    2836        6(      CMP      r0,#0x36
        0x000054cc:    d003        ..      BEQ      0x54d6 ; ChgPinCode + 104
        0x000054ce:    2005        .       MOVS     r0,#5
        0x000054d0:    bd70        p.      POP      {r4-r6,pc}
        0x000054d2:    2003        .       MOVS     r0,#3
        0x000054d4:    bd70        p.      POP      {r4-r6,pc}
        0x000054d6:    2002        .       MOVS     r0,#2
        0x000054d8:    bd70        p.      POP      {r4-r6,pc}
        0x000054da:    2002        .       MOVS     r0,#2
        0x000054dc:    bd70        p.      POP      {r4-r6,pc}
    LockPinCode
        0x000054de:    b570        p.      PUSH     {r4-r6,lr}
        0x000054e0:    4604        .F      MOV      r4,r0
        0x000054e2:    460d        .F      MOV      r5,r1
        0x000054e4:    a098        ..      ADR      r0,{pc}+0x264 ; 0x5748
        0x000054e6:    f7fff9f7    ....    BL       SendAtCommand ; 0x48d8
        0x000054ea:    2c00        .,      CMP      r4,#0
        0x000054ec:    d003        ..      BEQ      0x54f6 ; LockPinCode + 24
        0x000054ee:    a09a        ..      ADR      r0,{pc}+0x26a ; 0x5758
        0x000054f0:    f7fff9f2    ....    BL       SendAtCommand ; 0x48d8
        0x000054f4:    e002        ..      B        0x54fc ; LockPinCode + 30
        0x000054f6:    a099        ..      ADR      r0,{pc}+0x266 ; 0x575c
        0x000054f8:    f7fff9ee    ....    BL       SendAtCommand ; 0x48d8
        0x000054fc:    4628        (F      MOV      r0,r5
        0x000054fe:    f7fff9eb    ....    BL       SendAtCommand ; 0x48d8
        0x00005502:    a08f        ..      ADR      r0,{pc}+0x23e ; 0x5740
        0x00005504:    f7fff9e8    ....    BL       SendAtCommand ; 0x48d8
        0x00005508:    20fa        .       MOVS     r0,#0xfa
        0x0000550a:    f7fffa97    ....    BL       module_WaitResponse ; 0x4a3c
        0x0000550e:    4c7e        ~L      LDR      r4,[pc,#504] ; [0x5708] = 0x20000048
        0x00005510:    4d7e        ~M      LDR      r5,[pc,#504] ; [0x570c] = 0x2000025c
        0x00005512:    8821        !.      LDRH     r1,[r4,#0]
        0x00005514:    5c68        h\      LDRB     r0,[r5,r1]
        0x00005516:    2830        0(      CMP      r0,#0x30
        0x00005518:    d00b        ..      BEQ      0x5532 ; LockPinCode + 84
        0x0000551a:    284f        O(      CMP      r0,#0x4f
        0x0000551c:    d009        ..      BEQ      0x5532 ; LockPinCode + 84
        0x0000551e:    4889        .H      LDR      r0,[pc,#548] ; [0x5744] = 0x51e8
        0x00005520:    f7fffa12    ....    BL       CheckTc35Respond ; 0x4948
        0x00005524:    2801        .(      CMP      r0,#1
        0x00005526:    d006        ..      BEQ      0x5536 ; LockPinCode + 88
        0x00005528:    8820         .      LDRH     r0,[r4,#0]
        0x0000552a:    5c28        (\      LDRB     r0,[r5,r0]
        0x0000552c:    2834        4(      CMP      r0,#0x34
        0x0000552e:    d00f        ..      BEQ      0x5550 ; LockPinCode + 114
        0x00005530:    e008        ..      B        0x5544 ; LockPinCode + 102
        0x00005532:    2001        .       MOVS     r0,#1
        0x00005534:    bd70        p.      POP      {r4-r6,pc}
        0x00005536:    8820         .      LDRH     r0,[r4,#0]
        0x00005538:    1828        (.      ADDS     r0,r5,r0
        0x0000553a:    7b40        @{      LDRB     r0,[r0,#0xd]
        0x0000553c:    2832        2(      CMP      r0,#0x32
        0x0000553e:    d003        ..      BEQ      0x5548 ; LockPinCode + 106
        0x00005540:    2836        6(      CMP      r0,#0x36
        0x00005542:    d003        ..      BEQ      0x554c ; LockPinCode + 110
        0x00005544:    2005        .       MOVS     r0,#5
        0x00005546:    bd70        p.      POP      {r4-r6,pc}
        0x00005548:    2003        .       MOVS     r0,#3
        0x0000554a:    bd70        p.      POP      {r4-r6,pc}
        0x0000554c:    2002        .       MOVS     r0,#2
        0x0000554e:    bd70        p.      POP      {r4-r6,pc}
        0x00005550:    2002        .       MOVS     r0,#2
        0x00005552:    bd70        p.      POP      {r4-r6,pc}
    ActiveSimLock
        0x00005554:    b570        p.      PUSH     {r4-r6,lr}
        0x00005556:    4605        .F      MOV      r5,r0
        0x00005558:    460c        .F      MOV      r4,r1
        0x0000555a:    a081        ..      ADR      r0,{pc}+0x206 ; 0x5760
        0x0000555c:    f7fff9bc    ....    BL       SendAtCommand ; 0x48d8
        0x00005560:    4628        (F      MOV      r0,r5
        0x00005562:    f7fff9b9    ....    BL       SendAtCommand ; 0x48d8
        0x00005566:    2c00        .,      CMP      r4,#0
        0x00005568:    d008        ..      BEQ      0x557c ; ActiveSimLock + 40
        0x0000556a:    7820         x      LDRB     r0,[r4,#0]
        0x0000556c:    2800        .(      CMP      r0,#0
        0x0000556e:    d005        ..      BEQ      0x557c ; ActiveSimLock + 40
        0x00005570:    a072        r.      ADR      r0,{pc}+0x1cc ; 0x573c
        0x00005572:    f7fff9b1    ....    BL       SendAtCommand ; 0x48d8
        0x00005576:    4620         F      MOV      r0,r4
        0x00005578:    f7fff9ae    ....    BL       SendAtCommand ; 0x48d8
        0x0000557c:    a070        p.      ADR      r0,{pc}+0x1c4 ; 0x5740
        0x0000557e:    f7fff9ab    ....    BL       SendAtCommand ; 0x48d8
        0x00005582:    20fa        .       MOVS     r0,#0xfa
        0x00005584:    f7fffa5a    ..Z.    BL       module_WaitResponse ; 0x4a3c
        0x00005588:    4c5f        _L      LDR      r4,[pc,#380] ; [0x5708] = 0x20000048
        0x0000558a:    4d60        `M      LDR      r5,[pc,#384] ; [0x570c] = 0x2000025c
        0x0000558c:    8821        !.      LDRH     r1,[r4,#0]
        0x0000558e:    5c68        h\      LDRB     r0,[r5,r1]
        0x00005590:    2830        0(      CMP      r0,#0x30
        0x00005592:    d00b        ..      BEQ      0x55ac ; ActiveSimLock + 88
        0x00005594:    284f        O(      CMP      r0,#0x4f
        0x00005596:    d009        ..      BEQ      0x55ac ; ActiveSimLock + 88
        0x00005598:    486a        jH      LDR      r0,[pc,#424] ; [0x5744] = 0x51e8
        0x0000559a:    f7fff9d5    ....    BL       CheckTc35Respond ; 0x4948
        0x0000559e:    2801        .(      CMP      r0,#1
        0x000055a0:    d006        ..      BEQ      0x55b0 ; ActiveSimLock + 92
        0x000055a2:    8820         .      LDRH     r0,[r4,#0]
        0x000055a4:    5c28        (\      LDRB     r0,[r5,r0]
        0x000055a6:    2834        4(      CMP      r0,#0x34
        0x000055a8:    d00f        ..      BEQ      0x55ca ; ActiveSimLock + 118
        0x000055aa:    e008        ..      B        0x55be ; ActiveSimLock + 106
        0x000055ac:    2001        .       MOVS     r0,#1
        0x000055ae:    bd70        p.      POP      {r4-r6,pc}
        0x000055b0:    8820         .      LDRH     r0,[r4,#0]
        0x000055b2:    1828        (.      ADDS     r0,r5,r0
        0x000055b4:    7b40        @{      LDRB     r0,[r0,#0xd]
        0x000055b6:    2832        2(      CMP      r0,#0x32
        0x000055b8:    d003        ..      BEQ      0x55c2 ; ActiveSimLock + 110
        0x000055ba:    2836        6(      CMP      r0,#0x36
        0x000055bc:    d003        ..      BEQ      0x55c6 ; ActiveSimLock + 114
        0x000055be:    2005        .       MOVS     r0,#5
        0x000055c0:    bd70        p.      POP      {r4-r6,pc}
        0x000055c2:    2003        .       MOVS     r0,#3
        0x000055c4:    bd70        p.      POP      {r4-r6,pc}
        0x000055c6:    2002        .       MOVS     r0,#2
        0x000055c8:    bd70        p.      POP      {r4-r6,pc}
        0x000055ca:    2002        .       MOVS     r0,#2
        0x000055cc:    bd70        p.      POP      {r4-r6,pc}
    Communication
        0x000055ce:    b5f8        ..      PUSH     {r3-r7,lr}
        0x000055d0:    4604        .F      MOV      r4,r0
        0x000055d2:    4d66        fM      LDR      r5,[pc,#408] ; [0x576c] = 0x20000043
        0x000055d4:    4e4d        MN      LDR      r6,[pc,#308] ; [0x570c] = 0x2000025c
        0x000055d6:    4f4c        LO      LDR      r7,[pc,#304] ; [0x5708] = 0x20000048
        0x000055d8:    e017        ..      B        0x560a ; Communication + 60
        0x000055da:    a065        e.      ADR      r0,{pc}+0x196 ; 0x5770
        0x000055dc:    f7fff97c    ..|.    BL       SendAtCommand ; 0x48d8
        0x000055e0:    2028        (       MOVS     r0,#0x28
        0x000055e2:    f7fffa2b    ..+.    BL       module_WaitResponse ; 0x4a3c
        0x000055e6:    8838        8.      LDRH     r0,[r7,#0]
        0x000055e8:    5c30        0\      LDRB     r0,[r6,r0]
        0x000055ea:    2830        0(      CMP      r0,#0x30
        0x000055ec:    d011        ..      BEQ      0x5612 ; Communication + 68
        0x000055ee:    1e64        d.      SUBS     r4,r4,#1
        0x000055f0:    0624        $.      LSLS     r4,r4,#24
        0x000055f2:    0e24        $.      LSRS     r4,r4,#24
        0x000055f4:    d002        ..      BEQ      0x55fc ; Communication + 46
        0x000055f6:    2014        .       MOVS     r0,#0x14
        0x000055f8:    7028        (p      STRB     r0,[r5,#0]
        0x000055fa:    e003        ..      B        0x5604 ; Communication + 54
        0x000055fc:    2000        .       MOVS     r0,#0
        0x000055fe:    e5af        ..      B        0x5160 ; GetModuleIMEI + 46
        0x00005600:    f7fcfdfa    ....    BL       FeedWatchdog ; 0x21f8
        0x00005604:    7828        (x      LDRB     r0,[r5,#0]
        0x00005606:    2800        .(      CMP      r0,#0
        0x00005608:    d1fa        ..      BNE      0x5600 ; Communication + 50
        0x0000560a:    485c        \H      LDR      r0,[pc,#368] ; [0x577c] = 0x20000018
        0x0000560c:    7800        .x      LDRB     r0,[r0,#0]
        0x0000560e:    2800        .(      CMP      r0,#0
        0x00005610:    d0e3        ..      BEQ      0x55da ; Communication + 12
        0x00005612:    2001        .       MOVS     r0,#1
        0x00005614:    e5a4        ..      B        0x5160 ; GetModuleIMEI + 46
    AccountGet
        0x00005616:    b570        p.      PUSH     {r4-r6,lr}
        0x00005618:    4d59        YM      LDR      r5,[pc,#356] ; [0x5780] = 0x2000001e
        0x0000561a:    7828        (x      LDRB     r0,[r5,#0]
        0x0000561c:    2800        .(      CMP      r0,#0
        0x0000561e:    d134        4.      BNE      0x568a ; AccountGet + 116
        0x00005620:    4858        XH      LDR      r0,[pc,#352] ; [0x5784] = 0x20000019
        0x00005622:    7800        .x      LDRB     r0,[r0,#0]
        0x00005624:    2800        .(      CMP      r0,#0
        0x00005626:    d030        0.      BEQ      0x568a ; AccountGet + 116
        0x00005628:    a057        W.      ADR      r0,{pc}+0x160 ; 0x5788
        0x0000562a:    f7fff955    ..U.    BL       SendAtCommand ; 0x48d8
        0x0000562e:    2028        (       MOVS     r0,#0x28
        0x00005630:    f7fffa04    ....    BL       module_WaitResponse ; 0x4a3c
        0x00005634:    4e34        4N      LDR      r6,[pc,#208] ; [0x5708] = 0x20000048
        0x00005636:    4c35        5L      LDR      r4,[pc,#212] ; [0x570c] = 0x2000025c
        0x00005638:    8830        0.      LDRH     r0,[r6,#0]
        0x0000563a:    a156        V.      ADR      r1,{pc}+0x15a ; 0x5794
        0x0000563c:    1820         .      ADDS     r0,r4,r0
        0x0000563e:    f000fe97    ....    BL       strstr ; 0x6370
        0x00005642:    2200        ."      MOVS     r2,#0
        0x00005644:    4955        UI      LDR      r1,[pc,#340] ; [0x579c] = 0x200000d8
        0x00005646:    2800        .(      CMP      r0,#0
        0x00005648:    d020         .      BEQ      0x568c ; AccountGet + 118
        0x0000564a:    700a        .p      STRB     r2,[r1,#0]
        0x0000564c:    8830        0.      LDRH     r0,[r6,#0]
        0x0000564e:    a13a        :.      ADR      r1,{pc}+0xea ; 0x5738
        0x00005650:    1820         .      ADDS     r0,r4,r0
        0x00005652:    f000fe8d    ....    BL       strstr ; 0x6370
        0x00005656:    4604        .F      MOV      r4,r0
        0x00005658:    2c00        .,      CMP      r4,#0
        0x0000565a:    d016        ..      BEQ      0x568a ; AccountGet + 116
        0x0000565c:    a142        B.      ADR      r1,{pc}+0x10c ; 0x5768
        0x0000565e:    1ca0        ..      ADDS     r0,r4,#2
        0x00005660:    f000fe86    ....    BL       strstr ; 0x6370
        0x00005664:    2800        .(      CMP      r0,#0
        0x00005666:    d010        ..      BEQ      0x568a ; AccountGet + 116
        0x00005668:    1b00        ..      SUBS     r0,r0,r4
        0x0000566a:    1e80        ..      SUBS     r0,r0,#2
        0x0000566c:    b2c2        ..      UXTB     r2,r0
        0x0000566e:    2a0a        .*      CMP      r2,#0xa
        0x00005670:    d902        ..      BLS      0x5678 ; AccountGet + 98
        0x00005672:    18a4        ..      ADDS     r4,r4,r2
        0x00005674:    3c0a        .<      SUBS     r4,r4,#0xa
        0x00005676:    220a        ."      MOVS     r2,#0xa
        0x00005678:    200a        .       MOVS     r0,#0xa
        0x0000567a:    4949        II      LDR      r1,[pc,#292] ; [0x57a0] = 0x20000114
        0x0000567c:    1a80        ..      SUBS     r0,r0,r2
        0x0000567e:    1840        @.      ADDS     r0,r0,r1
        0x00005680:    1ca1        ..      ADDS     r1,r4,#2
        0x00005682:    f000ff2d    ..-.    BL       __aeabi_memcpy ; 0x64e0
        0x00005686:    2002        .       MOVS     r0,#2
        0x00005688:    7028        (p      STRB     r0,[r5,#0]
        0x0000568a:    bd70        p.      POP      {r4-r6,pc}
        0x0000568c:    8830        0.      LDRH     r0,[r6,#0]
        0x0000568e:    5c20         \      LDRB     r0,[r4,r0]
        0x00005690:    2830        0(      CMP      r0,#0x30
        0x00005692:    d003        ..      BEQ      0x569c ; AccountGet + 134
        0x00005694:    284f        O(      CMP      r0,#0x4f
        0x00005696:    d001        ..      BEQ      0x569c ; AccountGet + 134
        0x00005698:    700a        .p      STRB     r2,[r1,#0]
        0x0000569a:    bd70        p.      POP      {r4-r6,pc}
        0x0000569c:    7808        .x      LDRB     r0,[r1,#0]
        0x0000569e:    1c40        @.      ADDS     r0,r0,#1
        0x000056a0:    b2c0        ..      UXTB     r0,r0
        0x000056a2:    7008        .p      STRB     r0,[r1,#0]
        0x000056a4:    2802        .(      CMP      r0,#2
        0x000056a6:    d9f8        ..      BLS      0x569a ; AccountGet + 132
        0x000056a8:    2001        .       MOVS     r0,#1
        0x000056aa:    7028        (p      STRB     r0,[r5,#0]
        0x000056ac:    bd70        p.      POP      {r4-r6,pc}
    PhoneNumberSet
        0x000056ae:    b5f1        ..      PUSH     {r0,r4-r7,lr}
        0x000056b0:    b082        ..      SUB      sp,sp,#8
        0x000056b2:    4d3c        <M      LDR      r5,[pc,#240] ; [0x57a4] = 0x20000031
        0x000056b4:    782c        ,x      LDRB     r4,[r5,#0]
        0x000056b6:    2000        .       MOVS     r0,#0
        0x000056b8:    7028        (p      STRB     r0,[r5,#0]
        0x000056ba:    a33b        ;.      ADR      r3,{pc}+0xee ; 0x57a8
        0x000056bc:    2200        ."      MOVS     r2,#0
        0x000056be:    2106        .!      MOVS     r1,#6
        0x000056c0:    203c        <       MOVS     r0,#0x3c
        0x000056c2:    f7fff9d3    ....    BL       SendAtWaitRsq ; 0x4a6c
        0x000056c6:    4f10        .O      LDR      r7,[pc,#64] ; [0x5708] = 0x20000048
        0x000056c8:    4e10        .N      LDR      r6,[pc,#64] ; [0x570c] = 0x2000025c
        0x000056ca:    8838        8.      LDRH     r0,[r7,#0]
        0x000056cc:    5c30        0\      LDRB     r0,[r6,r0]
        0x000056ce:    2830        0(      CMP      r0,#0x30
        0x000056d0:    d004        ..      BEQ      0x56dc ; PhoneNumberSet + 46
        0x000056d2:    284f        O(      CMP      r0,#0x4f
        0x000056d4:    d002        ..      BEQ      0x56dc ; PhoneNumberSet + 46
        0x000056d6:    702c        ,p      STRB     r4,[r5,#0]
        0x000056d8:    2000        .       MOVS     r0,#0
        0x000056da:    bdfe        ..      POP      {r1-r7,pc}
        0x000056dc:    200a        .       MOVS     r0,#0xa
        0x000056de:    f7fcfdb1    ....    BL       delay_ms ; 0x2244
        0x000056e2:    9802        ..      LDR      r0,[sp,#8]
        0x000056e4:    9000        ..      STR      r0,[sp,#0]
        0x000056e6:    a334        4.      ADR      r3,{pc}+0xd2 ; 0x57b8
        0x000056e8:    2200        ."      MOVS     r2,#0
        0x000056ea:    2106        .!      MOVS     r1,#6
        0x000056ec:    2096        .       MOVS     r0,#0x96
        0x000056ee:    f7fff9bd    ....    BL       SendAtWaitRsq ; 0x4a6c
        0x000056f2:    702c        ,p      STRB     r4,[r5,#0]
        0x000056f4:    8838        8.      LDRH     r0,[r7,#0]
        0x000056f6:    5c30        0\      LDRB     r0,[r6,r0]
        0x000056f8:    2830        0(      CMP      r0,#0x30
        0x000056fa:    d003        ..      BEQ      0x5704 ; PhoneNumberSet + 86
        0x000056fc:    284f        O(      CMP      r0,#0x4f
        0x000056fe:    d001        ..      BEQ      0x5704 ; PhoneNumberSet + 86
        0x00005700:    2000        .       MOVS     r0,#0
        0x00005702:    bdfe        ..      POP      {r1-r7,pc}
        0x00005704:    2001        .       MOVS     r0,#1
        0x00005706:    bdfe        ..      POP      {r1-r7,pc}
    $d
        0x00005708:    20000048    H..     DCD    536870984
        0x0000570c:    2000025c    \..     DCD    536871516
        0x00005710:    4343492b    +ICC    DCD    1128483115
        0x00005714:    003a4449    ID:.    DCD    3818569
        0x00005718:    432b5441    AT+C    DCD    1126913089
        0x0000571c:    49434349    ICCI    DCD    1229144905
        0x00005720:    000a0d44    D...    DCD    658756
        0x00005724:    0000000d    ....    DCD    13
        0x00005728:    00000020     ...    DCD    32
        0x0000572c:    432b5441    AT+C    DCD    1126913089
        0x00005730:    3d445750    PWD=    DCD    1027888976
        0x00005734:    22435322    "SC"    DCD    574837538
        0x00005738:    0000222c    ,"..    DCD    8748
        0x0000573c:    00222c22    ",".    DCD    2239522
        0x00005740:    000a0d22    "...    DCD    658722
        0x00005744:    000051e8    .Q..    DCD    20968
        0x00005748:    432b5441    AT+C    DCD    1126913089
        0x0000574c:    3d4b434c    LCK=    DCD    1028342604
        0x00005750:    22435322    "SC"    DCD    574837538
        0x00005754:    0000002c    ,...    DCD    44
        0x00005758:    00222c31    1,".    DCD    2239537
        0x0000575c:    00222c30    0,".    DCD    2239536
        0x00005760:    432b5441    AT+C    DCD    1126913089
        0x00005764:    3d4e4950    PIN=    DCD    1028540752
        0x00005768:    00000022    "...    DCD    34
        0x0000576c:    20000043    C..     DCD    536870979
        0x00005770:    30455441    ATE0    DCD    809849921
        0x00005774:    0a0d3056    V0..    DCD    168636502
        0x00005778:    00000000    ....    DCD    0
        0x0000577c:    20000018    ...     DCD    536870936
        0x00005780:    2000001e    ...     DCD    536870942
        0x00005784:    20000019    ...     DCD    536870937
        0x00005788:    432b5441    AT+C    DCD    1126913089
        0x0000578c:    0d4d554e    NUM.    DCD    223171918
        0x00005790:    0000000a    ....    DCD    10
        0x00005794:    554e432b    +CNU    DCD    1431192363
        0x00005798:    0000004d    M...    DCD    77
        0x0000579c:    200000d8    ...     DCD    536871128
        0x000057a0:    20000114    ...     DCD    536871188
        0x000057a4:    20000031    1..     DCD    536870961
        0x000057a8:    432b5441    AT+C    DCD    1126913089
        0x000057ac:    3d534250    PBS=    DCD    1028866640
        0x000057b0:    224e4f22    "ON"    DCD    575557410
        0x000057b4:    00000a0d    ....    DCD    2573
        0x000057b8:    432b5441    AT+C    DCD    1126913089
        0x000057bc:    3d574250    PBW=    DCD    1029128784
        0x000057c0:    25222c31    1,"%    DCD    622996529
        0x000057c4:    0a0d2273    s"..    DCD    168632947
        0x000057c8:    00000000    ....    DCD    0
    $t
    .text
    checkPacketFormat
        0x000057cc:    48fe        .H      LDR      r0,[pc,#1016] ; [0x5bc8] = 0x200000fc
        0x000057ce:    7980        .y      LDRB     r0,[r0,#6]
        0x000057d0:    280e        .(      CMP      r0,#0xe
        0x000057d2:    d30c        ..      BCC      0x57ee ; checkPacketFormat + 34
        0x000057d4:    49fd        .I      LDR      r1,[pc,#1012] ; [0x5bcc] = 0x2000064d
        0x000057d6:    4608        .F      MOV      r0,r1
        0x000057d8:    3868        h8      SUBS     r0,r0,#0x68
        0x000057da:    7b0a        .{      LDRB     r2,[r1,#0xc]
        0x000057dc:    7b03        .{      LDRB     r3,[r0,#0xc]
        0x000057de:    429a        .B      CMP      r2,r3
        0x000057e0:    d105        ..      BNE      0x57ee ; checkPacketFormat + 34
        0x000057e2:    7b49        I{      LDRB     r1,[r1,#0xd]
        0x000057e4:    7b40        @{      LDRB     r0,[r0,#0xd]
        0x000057e6:    4281        .B      CMP      r1,r0
        0x000057e8:    d101        ..      BNE      0x57ee ; checkPacketFormat + 34
        0x000057ea:    2001        .       MOVS     r0,#1
        0x000057ec:    4770        pG      BX       lr
        0x000057ee:    2000        .       MOVS     r0,#0
        0x000057f0:    4770        pG      BX       lr
    XorCalcurate
        0x000057f2:    b530        0.      PUSH     {r4,r5,lr}
        0x000057f4:    2400        .$      MOVS     r4,#0
        0x000057f6:    2300        .#      MOVS     r3,#0
        0x000057f8:    e003        ..      B        0x5802 ; XorCalcurate + 16
        0x000057fa:    5cc5        .\      LDRB     r5,[r0,r3]
        0x000057fc:    406c        l@      EORS     r4,r4,r5
        0x000057fe:    1c5b        [.      ADDS     r3,r3,#1
        0x00005800:    b2db        ..      UXTB     r3,r3
        0x00005802:    428b        .B      CMP      r3,r1
        0x00005804:    d3f9        ..      BCC      0x57fa ; XorCalcurate + 8
        0x00005806:    20ff        .       MOVS     r0,#0xff
        0x00005808:    4044        D@      EORS     r4,r4,r0
        0x0000580a:    7014        .p      STRB     r4,[r2,#0]
        0x0000580c:    bd30        0.      POP      {r4,r5,pc}
    CrcCalcurate
        0x0000580e:    b530        0.      PUSH     {r4,r5,lr}
        0x00005810:    2000        .       MOVS     r0,#0
        0x00005812:    4cee        .L      LDR      r4,[pc,#952] ; [0x5bcc] = 0x2000064d
        0x00005814:    2100        .!      MOVS     r1,#0
        0x00005816:    3c68        h<      SUBS     r4,r4,#0x68
        0x00005818:    74e1        .t      STRB     r1,[r4,#0x13]
        0x0000581a:    7521        !u      STRB     r1,[r4,#0x14]
        0x0000581c:    2105        .!      MOVS     r1,#5
        0x0000581e:    5c62        b\      LDRB     r2,[r4,r1]
        0x00005820:    1810        ..      ADDS     r0,r2,r0
        0x00005822:    b280        ..      UXTH     r0,r0
        0x00005824:    1c49        I.      ADDS     r1,r1,#1
        0x00005826:    b2c9        ..      UXTB     r1,r1
        0x00005828:    2915        .)      CMP      r1,#0x15
        0x0000582a:    d3f8        ..      BCC      0x581e ; CrcCalcurate + 16
        0x0000582c:    2100        .!      MOVS     r1,#0
        0x0000582e:    4ae7        .J      LDR      r2,[pc,#924] ; [0x5bcc] = 0x2000064d
        0x00005830:    3a53        S:      SUBS     r2,r2,#0x53
        0x00005832:    7893        .x      LDRB     r3,[r2,#2]
        0x00005834:    e005        ..      B        0x5842 ; CrcCalcurate + 52
        0x00005836:    1855        U.      ADDS     r5,r2,r1
        0x00005838:    78ed        .x      LDRB     r5,[r5,#3]
        0x0000583a:    1828        (.      ADDS     r0,r5,r0
        0x0000583c:    b280        ..      UXTH     r0,r0
        0x0000583e:    1c49        I.      ADDS     r1,r1,#1
        0x00005840:    b2c9        ..      UXTB     r1,r1
        0x00005842:    428b        .B      CMP      r3,r1
        0x00005844:    d8f7        ..      BHI      0x5836 ; CrcCalcurate + 40
        0x00005846:    0a01        ..      LSRS     r1,r0,#8
        0x00005848:    74e1        .t      STRB     r1,[r4,#0x13]
        0x0000584a:    7520         u      STRB     r0,[r4,#0x14]
        0x0000584c:    bd30        0.      POP      {r4,r5,pc}
    SetSendSigalFlag
        0x0000584e:    b530        0.      PUSH     {r4,r5,lr}
        0x00005850:    4add        .J      LDR      r2,[pc,#884] ; [0x5bc8] = 0x200000fc
        0x00005852:    48dd        .H      LDR      r0,[pc,#884] ; [0x5bc8] = 0x200000fc
        0x00005854:    3208        .2      ADDS     r2,r2,#8
        0x00005856:    7813        .x      LDRB     r3,[r2,#0]
        0x00005858:    79c0        .y      LDRB     r0,[r0,#7]
        0x0000585a:    2102        .!      MOVS     r1,#2
        0x0000585c:    2404        .$      MOVS     r4,#4
        0x0000585e:    2510        .%      MOVS     r5,#0x10
        0x00005860:    4319        .C      ORRS     r1,r1,r3
        0x00005862:    2810        .(      CMP      r0,#0x10
        0x00005864:    d019        ..      BEQ      0x589a ; SetSendSigalFlag + 76
        0x00005866:    dc07        ..      BGT      0x5878 ; SetSendSigalFlag + 42
        0x00005868:    2802        .(      CMP      r0,#2
        0x0000586a:    d00f        ..      BEQ      0x588c ; SetSendSigalFlag + 62
        0x0000586c:    2804        .(      CMP      r0,#4
        0x0000586e:    d011        ..      BEQ      0x5894 ; SetSendSigalFlag + 70
        0x00005870:    2808        .(      CMP      r0,#8
        0x00005872:    d100        ..      BNE      0x5876 ; SetSendSigalFlag + 40
        0x00005874:    7011        .p      STRB     r1,[r2,#0]
        0x00005876:    bd30        0.      POP      {r4,r5,pc}
        0x00005878:    2820         (      CMP      r0,#0x20
        0x0000587a:    d012        ..      BEQ      0x58a2 ; SetSendSigalFlag + 84
        0x0000587c:    2308        .#      MOVS     r3,#8
        0x0000587e:    2840        @(      CMP      r0,#0x40
        0x00005880:    d012        ..      BEQ      0x58a8 ; SetSendSigalFlag + 90
        0x00005882:    2880        .(      CMP      r0,#0x80
        0x00005884:    d1f7        ..      BNE      0x5876 ; SetSendSigalFlag + 40
        0x00005886:    4319        .C      ORRS     r1,r1,r3
        0x00005888:    7011        .p      STRB     r1,[r2,#0]
        0x0000588a:    bd30        0.      POP      {r4,r5,pc}
        0x0000588c:    2001        .       MOVS     r0,#1
        0x0000588e:    4303        .C      ORRS     r3,r3,r0
        0x00005890:    7013        .p      STRB     r3,[r2,#0]
        0x00005892:    bd30        0.      POP      {r4,r5,pc}
        0x00005894:    4321        !C      ORRS     r1,r1,r4
        0x00005896:    7011        .p      STRB     r1,[r2,#0]
        0x00005898:    bd30        0.      POP      {r4,r5,pc}
        0x0000589a:    4321        !C      ORRS     r1,r1,r4
        0x0000589c:    4329        )C      ORRS     r1,r1,r5
        0x0000589e:    7011        .p      STRB     r1,[r2,#0]
        0x000058a0:    bd30        0.      POP      {r4,r5,pc}
        0x000058a2:    4329        )C      ORRS     r1,r1,r5
        0x000058a4:    7011        .p      STRB     r1,[r2,#0]
        0x000058a6:    bd30        0.      POP      {r4,r5,pc}
        0x000058a8:    4321        !C      ORRS     r1,r1,r4
        0x000058aa:    4319        .C      ORRS     r1,r1,r3
        0x000058ac:    7011        .p      STRB     r1,[r2,#0]
        0x000058ae:    bd30        0.      POP      {r4,r5,pc}
    CmdSet
        0x000058b0:    49c6        .I      LDR      r1,[pc,#792] ; [0x5bcc] = 0x2000064d
        0x000058b2:    0a02        ..      LSRS     r2,r0,#8
        0x000058b4:    3968        h9      SUBS     r1,r1,#0x68
        0x000058b6:    720a        .r      STRB     r2,[r1,#8]
        0x000058b8:    7248        Hr      STRB     r0,[r1,#9]
        0x000058ba:    4770        pG      BX       lr
    SeqInc
        0x000058bc:    49c3        .I      LDR      r1,[pc,#780] ; [0x5bcc] = 0x2000064d
        0x000058be:    3968        h9      SUBS     r1,r1,#0x68
        0x000058c0:    7b48        H{      LDRB     r0,[r1,#0xd]
        0x000058c2:    1c40        @.      ADDS     r0,r0,#1
        0x000058c4:    0600        ..      LSLS     r0,r0,#24
        0x000058c6:    0e00        ..      LSRS     r0,r0,#24
        0x000058c8:    7348        Hs      STRB     r0,[r1,#0xd]
        0x000058ca:    d102        ..      BNE      0x58d2 ; SeqInc + 22
        0x000058cc:    7b08        .{      LDRB     r0,[r1,#0xc]
        0x000058ce:    1c40        @.      ADDS     r0,r0,#1
        0x000058d0:    7308        .s      STRB     r0,[r1,#0xc]
        0x000058d2:    4770        pG      BX       lr
    AccSet
        0x000058d4:    b51c        ..      PUSH     {r2-r4,lr}
        0x000058d6:    f7fffe9e    ....    BL       AccountGet ; 0x5616
        0x000058da:    48bd        .H      LDR      r0,[pc,#756] ; [0x5bd0] = 0x2000001e
        0x000058dc:    7800        .x      LDRB     r0,[r0,#0]
        0x000058de:    2802        .(      CMP      r0,#2
        0x000058e0:    d10e        ..      BNE      0x5900 ; AccSet + 44
        0x000058e2:    466a        jF      MOV      r2,sp
        0x000058e4:    2105        .!      MOVS     r1,#5
        0x000058e6:    48bb        .H      LDR      r0,[pc,#748] ; [0x5bd4] = 0x20000114
        0x000058e8:    f7fcfd4b    ..K.    BL       Str2Hexs ; 0x2382
        0x000058ec:    2800        .(      CMP      r0,#0
        0x000058ee:    d007        ..      BEQ      0x5900 ; AccSet + 44
        0x000058f0:    48b6        .H      LDR      r0,[pc,#728] ; [0x5bcc] = 0x2000064d
        0x000058f2:    2205        ."      MOVS     r2,#5
        0x000058f4:    4669        iF      MOV      r1,sp
        0x000058f6:    3868        h8      SUBS     r0,r0,#0x68
        0x000058f8:    f000fdf2    ....    BL       __aeabi_memcpy ; 0x64e0
        0x000058fc:    2001        .       MOVS     r0,#1
        0x000058fe:    bd1c        ..      POP      {r2-r4,pc}
        0x00005900:    2000        .       MOVS     r0,#0
        0x00005902:    bd1c        ..      POP      {r2-r4,pc}
    MacSet
        0x00005904:    b510        ..      PUSH     {r4,lr}
        0x00005906:    48b1        .H      LDR      r0,[pc,#708] ; [0x5bcc] = 0x2000064d
        0x00005908:    a1b3        ..      ADR      r1,{pc}+0x2d0 ; 0x5bd8
        0x0000590a:    384f        O8      SUBS     r0,r0,#0x4f
        0x0000590c:    f000fd44    ..D.    BL       strcpy ; 0x6398
        0x00005910:    2001        .       MOVS     r0,#1
        0x00005912:    bd10        ..      POP      {r4,pc}
    SuperSet
        0x00005914:    49ad        .I      LDR      r1,[pc,#692] ; [0x5bcc] = 0x2000064d
        0x00005916:    3953        S9      SUBS     r1,r1,#0x53
        0x00005918:    7348        Hs      STRB     r0,[r1,#0xd]
        0x0000591a:    4770        pG      BX       lr
    SiaAcountSet
        0x0000591c:    b570        p.      PUSH     {r4-r6,lr}
        0x0000591e:    4605        .F      MOV      r5,r0
        0x00005920:    7828        (x      LDRB     r0,[r5,#0]
        0x00005922:    300b        .0      ADDS     r0,r0,#0xb
        0x00005924:    b2c0        ..      UXTB     r0,r0
        0x00005926:    49a9        .I      LDR      r1,[pc,#676] ; [0x5bcc] = 0x2000064d
        0x00005928:    220a        ."      MOVS     r2,#0xa
        0x0000592a:    3953        S9      SUBS     r1,r1,#0x53
        0x0000592c:    180c        ..      ADDS     r4,r1,r0
        0x0000592e:    70e2        .p      STRB     r2,[r4,#3]
        0x00005930:    2023        #       MOVS     r0,#0x23
        0x00005932:    7120         q      STRB     r0,[r4,#4]
        0x00005934:    1d60        `.      ADDS     r0,r4,#5
        0x00005936:    49a7        .I      LDR      r1,[pc,#668] ; [0x5bd4] = 0x20000114
        0x00005938:    f000fdd2    ....    BL       __aeabi_memcpy ; 0x64e0
        0x0000593c:    4622        "F      MOV      r2,r4
        0x0000593e:    320f        .2      ADDS     r2,r2,#0xf
        0x00005940:    1ce0        ..      ADDS     r0,r4,#3
        0x00005942:    210c        .!      MOVS     r1,#0xc
        0x00005944:    f7ffff55    ..U.    BL       XorCalcurate ; 0x57f2
        0x00005948:    7828        (x      LDRB     r0,[r5,#0]
        0x0000594a:    300d        .0      ADDS     r0,r0,#0xd
        0x0000594c:    7028        (p      STRB     r0,[r5,#0]
        0x0000594e:    bd70        p.      POP      {r4-r6,pc}
    AddVoltageInfo
        0x00005950:    b510        ..      PUSH     {r4,lr}
        0x00005952:    4604        .F      MOV      r4,r0
        0x00005954:    2002        .       MOVS     r0,#2
        0x00005956:    f7fcff4b    ..K.    BL       MeasurePower ; 0x27f0
        0x0000595a:    202f        /       MOVS     r0,#0x2f
        0x0000595c:    7020         p      STRB     r0,[r4,#0]
        0x0000595e:    48a0        .H      LDR      r0,[pc,#640] ; [0x5be0] = 0x20000032
        0x00005960:    1c61        a.      ADDS     r1,r4,#1
        0x00005962:    8800        ..      LDRH     r0,[r0,#0]
        0x00005964:    f7fdf981    ....    BL       BatteryVoltage ; 0x2c6a
        0x00005968:    2056        V       MOVS     r0,#0x56
        0x0000596a:    7160        `q      STRB     r0,[r4,#5]
        0x0000596c:    202a        *       MOVS     r0,#0x2a
        0x0000596e:    71a0        .q      STRB     r0,[r4,#6]
        0x00005970:    2007        .       MOVS     r0,#7
        0x00005972:    bd10        ..      POP      {r4,pc}
    UdpHeadInit
        0x00005974:    b510        ..      PUSH     {r4,lr}
        0x00005976:    4c94        .L      LDR      r4,[pc,#592] ; [0x5bc8] = 0x200000fc
        0x00005978:    78a0        .x      LDRB     r0,[r4,#2]
        0x0000597a:    2800        .(      CMP      r0,#0
        0x0000597c:    d001        ..      BEQ      0x5982 ; UdpHeadInit + 14
        0x0000597e:    2001        .       MOVS     r0,#1
        0x00005980:    bd10        ..      POP      {r4,pc}
        0x00005982:    4892        .H      LDR      r0,[pc,#584] ; [0x5bcc] = 0x2000064d
        0x00005984:    2115        .!      MOVS     r1,#0x15
        0x00005986:    3868        h8      SUBS     r0,r0,#0x68
        0x00005988:    f000fe10    ....    BL       __aeabi_memclr ; 0x65ac
        0x0000598c:    f7ffffa2    ....    BL       AccSet ; 0x58d4
        0x00005990:    2800        .(      CMP      r0,#0
        0x00005992:    d006        ..      BEQ      0x59a2 ; UdpHeadInit + 46
        0x00005994:    498d        .I      LDR      r1,[pc,#564] ; [0x5bcc] = 0x2000064d
        0x00005996:    207e        ~       MOVS     r0,#0x7e
        0x00005998:    3968        h9      SUBS     r1,r1,#0x68
        0x0000599a:    7148        Hq      STRB     r0,[r1,#5]
        0x0000599c:    2001        .       MOVS     r0,#1
        0x0000599e:    70a0        .p      STRB     r0,[r4,#2]
        0x000059a0:    bd10        ..      POP      {r4,pc}
        0x000059a2:    2000        .       MOVS     r0,#0
        0x000059a4:    bd10        ..      POP      {r4,pc}
    UdpDataInit
        0x000059a6:    b510        ..      PUSH     {r4,lr}
        0x000059a8:    4c87        .L      LDR      r4,[pc,#540] ; [0x5bc8] = 0x200000fc
        0x000059aa:    78e0        .x      LDRB     r0,[r4,#3]
        0x000059ac:    2800        .(      CMP      r0,#0
        0x000059ae:    d001        ..      BEQ      0x59b4 ; UdpDataInit + 14
        0x000059b0:    2001        .       MOVS     r0,#1
        0x000059b2:    bd10        ..      POP      {r4,pc}
        0x000059b4:    4885        .H      LDR      r0,[pc,#532] ; [0x5bcc] = 0x2000064d
        0x000059b6:    2153        S!      MOVS     r1,#0x53
        0x000059b8:    3853        S8      SUBS     r0,r0,#0x53
        0x000059ba:    f000fdf7    ....    BL       __aeabi_memclr ; 0x65ac
        0x000059be:    f7ffffa1    ....    BL       MacSet ; 0x5904
        0x000059c2:    2800        .(      CMP      r0,#0
        0x000059c4:    d00b        ..      BEQ      0x59de ; UdpDataInit + 56
        0x000059c6:    4881        .H      LDR      r0,[pc,#516] ; [0x5bcc] = 0x2000064d
        0x000059c8:    2101        .!      MOVS     r1,#1
        0x000059ca:    3853        S8      SUBS     r0,r0,#0x53
        0x000059cc:    7241        Ar      STRB     r1,[r0,#9]
        0x000059ce:    2250        P"      MOVS     r2,#0x50
        0x000059d0:    7282        .r      STRB     r2,[r0,#0xa]
        0x000059d2:    72c1        .r      STRB     r1,[r0,#0xb]
        0x000059d4:    2210        ."      MOVS     r2,#0x10
        0x000059d6:    7302        .s      STRB     r2,[r0,#0xc]
        0x000059d8:    70e1        .p      STRB     r1,[r4,#3]
        0x000059da:    2001        .       MOVS     r0,#1
        0x000059dc:    bd10        ..      POP      {r4,pc}
        0x000059de:    2000        .       MOVS     r0,#0
        0x000059e0:    bd10        ..      POP      {r4,pc}
    UdpPacketInit
        0x000059e2:    b510        ..      PUSH     {r4,lr}
        0x000059e4:    487f        .H      LDR      r0,[pc,#508] ; [0x5be4] = 0x20000018
        0x000059e6:    7800        .x      LDRB     r0,[r0,#0]
        0x000059e8:    2800        .(      CMP      r0,#0
        0x000059ea:    d106        ..      BNE      0x59fa ; UdpPacketInit + 24
        0x000059ec:    4876        vH      LDR      r0,[pc,#472] ; [0x5bc8] = 0x200000fc
        0x000059ee:    2100        .!      MOVS     r1,#0
        0x000059f0:    7201        .r      STRB     r1,[r0,#8]
        0x000059f2:    f7ffffbf    ....    BL       UdpHeadInit ; 0x5974
        0x000059f6:    f7ffffd6    ....    BL       UdpDataInit ; 0x59a6
        0x000059fa:    bd10        ..      POP      {r4,pc}
    UdpSend
        0x000059fc:    b5f8        ..      PUSH     {r3-r7,lr}
        0x000059fe:    497a        zI      LDR      r1,[pc,#488] ; [0x5be8] = 0x2000001b
        0x00005a00:    2006        .       MOVS     r0,#6
        0x00005a02:    7008        .p      STRB     r0,[r1,#0]
        0x00005a04:    a079        y.      ADR      r0,{pc}+0x1e8 ; 0x5bec
        0x00005a06:    f7feff67    ..g.    BL       SendAtCommand ; 0x48d8
        0x00005a0a:    4d70        pM      LDR      r5,[pc,#448] ; [0x5bcc] = 0x2000064d
        0x00005a0c:    2200        ."      MOVS     r2,#0
        0x00005a0e:    3d53        S=      SUBS     r5,r5,#0x53
        0x00005a10:    78a8        .x      LDRB     r0,[r5,#2]
        0x00005a12:    4669        iF      MOV      r1,sp
        0x00005a14:    3015        .0      ADDS     r0,r0,#0x15
        0x00005a16:    b2c0        ..      UXTB     r0,r0
        0x00005a18:    f7fcfceb    ....    BL       Dec2Txt ; 0x23f2
        0x00005a1c:    4668        hF      MOV      r0,sp
        0x00005a1e:    f7feff5b    ..[.    BL       SendAtCommand ; 0x48d8
        0x00005a22:    a075        u.      ADR      r0,{pc}+0x1d6 ; 0x5bf8
        0x00005a24:    f7feff58    ..X.    BL       SendAtCommand ; 0x48d8
        0x00005a28:    4e67        gN      LDR      r6,[pc,#412] ; [0x5bc8] = 0x200000fc
        0x00005a2a:    7870        px      LDRB     r0,[r6,#1]
        0x00005a2c:    2800        .(      CMP      r0,#0
        0x00005a2e:    d009        ..      BEQ      0x5a44 ; UdpSend + 72
        0x00005a30:    4872        rH      LDR      r0,[pc,#456] ; [0x5bfc] = 0x200001f8
        0x00005a32:    f7feff51    ..Q.    BL       SendAtCommand ; 0x48d8
        0x00005a36:    a072        r.      ADR      r0,{pc}+0x1ca ; 0x5c00
        0x00005a38:    f7feff4e    ..N.    BL       SendAtCommand ; 0x48d8
        0x00005a3c:    4c71        qL      LDR      r4,[pc,#452] ; [0x5c04] = 0x20000045
        0x00005a3e:    2764        d'      MOVS     r7,#0x64
        0x00005a40:    7027        'p      STRB     r7,[r4,#0]
        0x00005a42:    e006        ..      B        0x5a52 ; UdpSend + 86
        0x00005a44:    486d        mH      LDR      r0,[pc,#436] ; [0x5bfc] = 0x200001f8
        0x00005a46:    3818        .8      SUBS     r0,r0,#0x18
        0x00005a48:    f7feff46    ..F.    BL       SendAtCommand ; 0x48d8
        0x00005a4c:    e7f3        ..      B        0x5a36 ; UdpSend + 58
        0x00005a4e:    f7fcfbd3    ....    BL       FeedWatchdog ; 0x21f8
        0x00005a52:    7820         x      LDRB     r0,[r4,#0]
        0x00005a54:    2800        .(      CMP      r0,#0
        0x00005a56:    d008        ..      BEQ      0x5a6a ; UdpSend + 110
        0x00005a58:    496c        lI      LDR      r1,[pc,#432] ; [0x5c0c] = 0x20000048
        0x00005a5a:    486b        kH      LDR      r0,[pc,#428] ; [0x5c08] = 0x2000025c
        0x00005a5c:    8809        ..      LDRH     r1,[r1,#0]
        0x00005a5e:    1840        @.      ADDS     r0,r0,r1
        0x00005a60:    213e        >!      MOVS     r1,#0x3e
        0x00005a62:    f000fc7b    ..{.    BL       strchr ; 0x635c
        0x00005a66:    2800        .(      CMP      r0,#0
        0x00005a68:    d0f1        ..      BEQ      0x5a4e ; UdpSend + 82
        0x00005a6a:    7820         x      LDRB     r0,[r4,#0]
        0x00005a6c:    2800        .(      CMP      r0,#0
        0x00005a6e:    d00e        ..      BEQ      0x5a8e ; UdpSend + 146
        0x00005a70:    200a        .       MOVS     r0,#0xa
        0x00005a72:    f7fcfbe7    ....    BL       delay_ms ; 0x2244
        0x00005a76:    4855        UH      LDR      r0,[pc,#340] ; [0x5bcc] = 0x2000064d
        0x00005a78:    2115        .!      MOVS     r1,#0x15
        0x00005a7a:    3868        h8      SUBS     r0,r0,#0x68
        0x00005a7c:    f7fefefd    ....    BL       SendData ; 0x487a
        0x00005a80:    78a9        .x      LDRB     r1,[r5,#2]
        0x00005a82:    1ce8        ..      ADDS     r0,r5,#3
        0x00005a84:    f7fefef9    ....    BL       SendData ; 0x487a
        0x00005a88:    2014        .       MOVS     r0,#0x14
        0x00005a8a:    f7feffd7    ....    BL       module_WaitResponse ; 0x4a3c
        0x00005a8e:    7177        wq      STRB     r7,[r6,#5]
        0x00005a90:    bdf8        ..      POP      {r3-r7,pc}
    TXInitPacketCreate
        0x00005a92:    b510        ..      PUSH     {r4,lr}
        0x00005a94:    f7ffff6e    ..n.    BL       UdpHeadInit ; 0x5974
        0x00005a98:    2800        .(      CMP      r0,#0
        0x00005a9a:    d025        %.      BEQ      0x5ae8 ; TXInitPacketCreate + 86
        0x00005a9c:    f7ffff83    ....    BL       UdpDataInit ; 0x59a6
        0x00005aa0:    2800        .(      CMP      r0,#0
        0x00005aa2:    d021        !.      BEQ      0x5ae8 ; TXInitPacketCreate + 86
        0x00005aa4:    2000        .       MOVS     r0,#0
        0x00005aa6:    f7ffff35    ..5.    BL       SuperSet ; 0x5914
        0x00005aaa:    4848        HH      LDR      r0,[pc,#288] ; [0x5bcc] = 0x2000064d
        0x00005aac:    210b        .!      MOVS     r1,#0xb
        0x00005aae:    3853        S8      SUBS     r0,r0,#0x53
        0x00005ab0:    7081        .p      STRB     r1,[r0,#2]
        0x00005ab2:    2100        .!      MOVS     r1,#0
        0x00005ab4:    7041        Ap      STRB     r1,[r0,#1]
        0x00005ab6:    2201        ."      MOVS     r2,#1
        0x00005ab8:    7002        .p      STRB     r2,[r0,#0]
        0x00005aba:    3815        .8      SUBS     r0,r0,#0x15
        0x00005abc:    7181        .q      STRB     r1,[r0,#6]
        0x00005abe:    211b        .!      MOVS     r1,#0x1b
        0x00005ac0:    71c1        .q      STRB     r1,[r0,#7]
        0x00005ac2:    2104        .!      MOVS     r1,#4
        0x00005ac4:    300e        .0      ADDS     r0,r0,#0xe
        0x00005ac6:    f000fd71    ..q.    BL       __aeabi_memclr ; 0x65ac
        0x00005aca:    4840        @H      LDR      r0,[pc,#256] ; [0x5bcc] = 0x2000064d
        0x00005acc:    2104        .!      MOVS     r1,#4
        0x00005ace:    385e        ^8      SUBS     r0,r0,#0x5e
        0x00005ad0:    f000fd6c    ..l.    BL       __aeabi_memclr ; 0x65ac
        0x00005ad4:    2000        .       MOVS     r0,#0
        0x00005ad6:    f7fffeeb    ....    BL       CmdSet ; 0x58b0
        0x00005ada:    f7fffe98    ....    BL       CrcCalcurate ; 0x580e
        0x00005ade:    493a        :I      LDR      r1,[pc,#232] ; [0x5bc8] = 0x200000fc
        0x00005ae0:    2002        .       MOVS     r0,#2
        0x00005ae2:    71c8        .q      STRB     r0,[r1,#7]
        0x00005ae4:    2001        .       MOVS     r0,#1
        0x00005ae6:    bd10        ..      POP      {r4,pc}
        0x00005ae8:    2000        .       MOVS     r0,#0
        0x00005aea:    bd10        ..      POP      {r4,pc}
    ClientInit
        0x00005aec:    b510        ..      PUSH     {r4,lr}
        0x00005aee:    4c36        6L      LDR      r4,[pc,#216] ; [0x5bc8] = 0x200000fc
        0x00005af0:    2000        .       MOVS     r0,#0
        0x00005af2:    7120         q      STRB     r0,[r4,#4]
        0x00005af4:    f7ffffcd    ....    BL       TXInitPacketCreate ; 0x5a92
        0x00005af8:    2800        .(      CMP      r0,#0
        0x00005afa:    d004        ..      BEQ      0x5b06 ; ClientInit + 26
        0x00005afc:    f7ffff7e    ..~.    BL       UdpSend ; 0x59fc
        0x00005b00:    2064        d       MOVS     r0,#0x64
        0x00005b02:    7160        `q      STRB     r0,[r4,#5]
        0x00005b04:    bd10        ..      POP      {r4,pc}
        0x00005b06:    4942        BI      LDR      r1,[pc,#264] ; [0x5c10] = 0x20000028
        0x00005b08:    2050        P       MOVS     r0,#0x50
        0x00005b0a:    8008        ..      STRH     r0,[r1,#0]
        0x00005b0c:    bd10        ..      POP      {r4,pc}
    SIAEventPacketCreate
        0x00005b0e:    b5f7        ..      PUSH     {r0-r2,r4-r7,lr}
        0x00005b10:    b082        ..      SUB      sp,sp,#8
        0x00005b12:    4606        .F      MOV      r6,r0
        0x00005b14:    4617        .F      MOV      r7,r2
        0x00005b16:    f7fff9d0    ....    BL       signal_quality ; 0x4eba
        0x00005b1a:    493e        >I      LDR      r1,[pc,#248] ; [0x5c14] = 0x200000d4
        0x00005b1c:    7008        .p      STRB     r0,[r1,#0]
        0x00005b1e:    2000        .       MOVS     r0,#0
        0x00005b20:    f7fffef8    ....    BL       SuperSet ; 0x5914
        0x00005b24:    2000        .       MOVS     r0,#0
        0x00005b26:    9001        ..      STR      r0,[sp,#4]
        0x00005b28:    a801        ..      ADD      r0,sp,#4
        0x00005b2a:    f7fffef7    ....    BL       SiaAcountSet ; 0x591c
        0x00005b2e:    4669        iF      MOV      r1,sp
        0x00005b30:    790c        .y      LDRB     r4,[r1,#4]
        0x00005b32:    2201        ."      MOVS     r2,#1
        0x00005b34:    4621        !F      MOV      r1,r4
        0x00005b36:    a038        8.      ADR      r0,{pc}+0xe2 ; 0x5c18
        0x00005b38:    f7fcfbf2    ....    BL       debug_8 ; 0x2320
        0x00005b3c:    4669        iF      MOV      r1,sp
        0x00005b3e:    7908        .y      LDRB     r0,[r1,#4]
        0x00005b40:    1c40        @.      ADDS     r0,r0,#1
        0x00005b42:    b2c0        ..      UXTB     r0,r0
        0x00005b44:    9001        ..      STR      r0,[sp,#4]
        0x00005b46:    9000        ..      STR      r0,[sp,#0]
        0x00005b48:    4d20         M      LDR      r5,[pc,#128] ; [0x5bcc] = 0x2000064d
        0x00005b4a:    a138        8.      ADR      r1,{pc}+0xe2 ; 0x5c2c
        0x00005b4c:    3d53        S=      SUBS     r5,r5,#0x53
        0x00005b4e:    1828        (.      ADDS     r0,r5,r0
        0x00005b50:    300e        .0      ADDS     r0,r0,#0xe
        0x00005b52:    f000fc21    ..!.    BL       strcpy ; 0x6398
        0x00005b56:    4669        iF      MOV      r1,sp
        0x00005b58:    7908        .y      LDRB     r0,[r1,#4]
        0x00005b5a:    1d40        @.      ADDS     r0,r0,#5
        0x00005b5c:    b2c0        ..      UXTB     r0,r0
        0x00005b5e:    9001        ..      STR      r0,[sp,#4]
        0x00005b60:    0039        9.      MOVS     r1,r7
        0x00005b62:    4f19        .O      LDR      r7,[pc,#100] ; [0x5bc8] = 0x200000fc
        0x00005b64:    d06c        l.      BEQ      0x5c40 ; SIAEventPacketCreate + 306
        0x00005b66:    4a33        3J      LDR      r2,[pc,#204] ; [0x5c34] = 0x20000010
        0x00005b68:    2100        .!      MOVS     r1,#0
        0x00005b6a:    7011        .p      STRB     r1,[r2,#0]
        0x00005b6c:    2e00        ..      CMP      r6,#0
        0x00005b6e:    d079        y.      BEQ      0x5c64 ; SIAEventPacketCreate + 342
        0x00005b70:    1828        (.      ADDS     r0,r5,r0
        0x00005b72:    300e        .0      ADDS     r0,r0,#0xe
        0x00005b74:    a130        0.      ADR      r1,{pc}+0xc4 ; 0x5c38
        0x00005b76:    f000fc0f    ....    BL       strcpy ; 0x6398
        0x00005b7a:    4669        iF      MOV      r1,sp
        0x00005b7c:    7908        .y      LDRB     r0,[r1,#4]
        0x00005b7e:    1d00        ..      ADDS     r0,r0,#4
        0x00005b80:    b2c0        ..      UXTB     r0,r0
        0x00005b82:    9001        ..      STR      r0,[sp,#4]
        0x00005b84:    1828        (.      ADDS     r0,r5,r0
        0x00005b86:    300e        .0      ADDS     r0,r0,#0xe
        0x00005b88:    f7fffee2    ....    BL       AddVoltageInfo ; 0x5950
        0x00005b8c:    4669        iF      MOV      r1,sp
        0x00005b8e:    7909        .y      LDRB     r1,[r1,#4]
        0x00005b90:    1840        @.      ADDS     r0,r0,r1
        0x00005b92:    b2c0        ..      UXTB     r0,r0
        0x00005b94:    9001        ..      STR      r0,[sp,#4]
        0x00005b96:    1829        ).      ADDS     r1,r5,r0
        0x00005b98:    481e        .H      LDR      r0,[pc,#120] ; [0x5c14] = 0x200000d4
        0x00005b9a:    310e        .1      ADDS     r1,r1,#0xe
        0x00005b9c:    2203        ."      MOVS     r2,#3
        0x00005b9e:    7800        .x      LDRB     r0,[r0,#0]
        0x00005ba0:    f7fcfc27    ..'.    BL       Dec2Txt ; 0x23f2
        0x00005ba4:    4669        iF      MOV      r1,sp
        0x00005ba6:    7908        .y      LDRB     r0,[r1,#4]
        0x00005ba8:    1cc0        ..      ADDS     r0,r0,#3
        0x00005baa:    b2c0        ..      UXTB     r0,r0
        0x00005bac:    2622        "&      MOVS     r6,#0x22
        0x00005bae:    1829        ).      ADDS     r1,r5,r0
        0x00005bb0:    738e        .s      STRB     r6,[r1,#0xe]
        0x00005bb2:    1c40        @.      ADDS     r0,r0,#1
        0x00005bb4:    b2c0        ..      UXTB     r0,r0
        0x00005bb6:    9001        ..      STR      r0,[sp,#4]
        0x00005bb8:    1828        (.      ADDS     r0,r5,r0
        0x00005bba:    4639        9F      MOV      r1,r7
        0x00005bbc:    300e        .0      ADDS     r0,r0,#0xe
        0x00005bbe:    310c        .1      ADDS     r1,r1,#0xc
        0x00005bc0:    f000fbea    ....    BL       strcpy ; 0x6398
        0x00005bc4:    4638        8F      MOV      r0,r7
        0x00005bc6:    e03d        =.      B        0x5c44 ; SIAEventPacketCreate + 310
    $d
        0x00005bc8:    200000fc    ...     DCD    536871164
        0x00005bcc:    2000064d    M..     DCD    536872525
        0x00005bd0:    2000001e    ...     DCD    536870942
        0x00005bd4:    20000114    ...     DCD    536871188
        0x00005bd8:    23014f03    .O.#    DCD    587288323
        0x00005bdc:    00000045    E...    DCD    69
        0x00005be0:    20000032    2..     DCD    536870962
        0x00005be4:    20000018    ...     DCD    536870936
        0x00005be8:    2000001b    ...     DCD    536870939
        0x00005bec:    432b5441    AT+C    DCD    1126913089
        0x00005bf0:    45535049    IPSE    DCD    1163087945
        0x00005bf4:    303d444e    ND=0    DCD    809321550
        0x00005bf8:    0000002c    ,...    DCD    44
        0x00005bfc:    200001f8    ...     DCD    536871416
        0x00005c00:    00000a0d    ....    DCD    2573
        0x00005c04:    20000045    E..     DCD    536870981
        0x00005c08:    2000025c    \..     DCD    536871516
        0x00005c0c:    20000048    H..     DCD    536870984
        0x00005c10:    20000028    (..     DCD    536870952
        0x00005c14:    200000d4    ...     DCD    536871124
        0x00005c18:    676e656c    leng    DCD    1735288172
        0x00005c1c:    70206874    th p    DCD    1881172084
        0x00005c20:    7469736f    osit    DCD    1953067887
        0x00005c24:    3a6e6f69    ion:    DCD    980316009
        0x00005c28:    00000000    ....    DCD    0
        0x00005c2c:    3169724e    Nri1    DCD    828994126
        0x00005c30:    0000002f    /...    DCD    47
        0x00005c34:    20000010    ...     DCD    536870928
        0x00005c38:    3939434f    OC99    DCD    960054095
        0x00005c3c:    00000000    ....    DCD    0
    $t
        0x00005c40:    e03a        :.      B        0x5cb8 ; SIAEventPacketCreate + 426
        0x00005c42:    e00f        ..      B        0x5c64 ; SIAEventPacketCreate + 342
        0x00005c44:    300c        .0      ADDS     r0,r0,#0xc
        0x00005c46:    f000fbcd    ....    BL       strlen ; 0x63e4
        0x00005c4a:    4669        iF      MOV      r1,sp
        0x00005c4c:    7909        .y      LDRB     r1,[r1,#4]
        0x00005c4e:    1840        @.      ADDS     r0,r0,r1
        0x00005c50:    b2c0        ..      UXTB     r0,r0
        0x00005c52:    1829        ).      ADDS     r1,r5,r0
        0x00005c54:    738e        .s      STRB     r6,[r1,#0xe]
        0x00005c56:    2200        ."      MOVS     r2,#0
        0x00005c58:    73ca        .s      STRB     r2,[r1,#0xf]
        0x00005c5a:    1c40        @.      ADDS     r0,r0,#1
        0x00005c5c:    9001        ..      STR      r0,[sp,#4]
        0x00005c5e:    2010        .       MOVS     r0,#0x10
        0x00005c60:    71f8        .q      STRB     r0,[r7,#7]
        0x00005c62:    e0ab        ..      B        0x5dbc ; SIAEventPacketCreate + 686
        0x00005c64:    1828        (.      ADDS     r0,r5,r0
        0x00005c66:    300e        .0      ADDS     r0,r0,#0xe
        0x00005c68:    a1f9        ..      ADR      r1,{pc}+0x3e8 ; 0x6050
        0x00005c6a:    f000fb95    ....    BL       strcpy ; 0x6398
        0x00005c6e:    4669        iF      MOV      r1,sp
        0x00005c70:    7908        .y      LDRB     r0,[r1,#4]
        0x00005c72:    1d00        ..      ADDS     r0,r0,#4
        0x00005c74:    b2c0        ..      UXTB     r0,r0
        0x00005c76:    9001        ..      STR      r0,[sp,#4]
        0x00005c78:    1828        (.      ADDS     r0,r5,r0
        0x00005c7a:    300e        .0      ADDS     r0,r0,#0xe
        0x00005c7c:    f7fffe68    ..h.    BL       AddVoltageInfo ; 0x5950
        0x00005c80:    4669        iF      MOV      r1,sp
        0x00005c82:    7909        .y      LDRB     r1,[r1,#4]
        0x00005c84:    1840        @.      ADDS     r0,r0,r1
        0x00005c86:    b2c0        ..      UXTB     r0,r0
        0x00005c88:    9001        ..      STR      r0,[sp,#4]
        0x00005c8a:    1829        ).      ADDS     r1,r5,r0
        0x00005c8c:    48f2        .H      LDR      r0,[pc,#968] ; [0x6058] = 0x200000d4
        0x00005c8e:    310e        .1      ADDS     r1,r1,#0xe
        0x00005c90:    2203        ."      MOVS     r2,#3
        0x00005c92:    7800        .x      LDRB     r0,[r0,#0]
        0x00005c94:    f7fcfbad    ....    BL       Dec2Txt ; 0x23f2
        0x00005c98:    4669        iF      MOV      r1,sp
        0x00005c9a:    7908        .y      LDRB     r0,[r1,#4]
        0x00005c9c:    1cc0        ..      ADDS     r0,r0,#3
        0x00005c9e:    b2c0        ..      UXTB     r0,r0
        0x00005ca0:    2122        "!      MOVS     r1,#0x22
        0x00005ca2:    182a        *.      ADDS     r2,r5,r0
        0x00005ca4:    7391        .s      STRB     r1,[r2,#0xe]
        0x00005ca6:    1c40        @.      ADDS     r0,r0,#1
        0x00005ca8:    b2c0        ..      UXTB     r0,r0
        0x00005caa:    9001        ..      STR      r0,[sp,#4]
        0x00005cac:    2100        .!      MOVS     r1,#0
        0x00005cae:    1828        (.      ADDS     r0,r5,r0
        0x00005cb0:    7381        .s      STRB     r1,[r0,#0xe]
        0x00005cb2:    2020                MOVS     r0,#0x20
        0x00005cb4:    71f8        .q      STRB     r0,[r7,#7]
        0x00005cb6:    e081        ..      B        0x5dbc ; SIAEventPacketCreate + 686
        0x00005cb8:    49e8        .I      LDR      r1,[pc,#928] ; [0x605c] = 0x2000001a
        0x00005cba:    7809        .x      LDRB     r1,[r1,#0]
        0x00005cbc:    2901        .)      CMP      r1,#1
        0x00005cbe:    d009        ..      BEQ      0x5cd4 ; SIAEventPacketCreate + 454
        0x00005cc0:    1828        (.      ADDS     r0,r5,r0
        0x00005cc2:    300e        .0      ADDS     r0,r0,#0xe
        0x00005cc4:    a1e6        ..      ADR      r1,{pc}+0x39c ; 0x6060
        0x00005cc6:    f000fb67    ..g.    BL       strcpy ; 0x6398
        0x00005cca:    4669        iF      MOV      r1,sp
        0x00005ccc:    7908        .y      LDRB     r0,[r1,#4]
        0x00005cce:    1c80        ..      ADDS     r0,r0,#2
        0x00005cd0:    9001        ..      STR      r0,[sp,#4]
        0x00005cd2:    e008        ..      B        0x5ce6 ; SIAEventPacketCreate + 472
        0x00005cd4:    1828        (.      ADDS     r0,r5,r0
        0x00005cd6:    300e        .0      ADDS     r0,r0,#0xe
        0x00005cd8:    a1e2        ..      ADR      r1,{pc}+0x38c ; 0x6064
        0x00005cda:    f000fb5d    ..].    BL       strcpy ; 0x6398
        0x00005cde:    4669        iF      MOV      r1,sp
        0x00005ce0:    7908        .y      LDRB     r0,[r1,#4]
        0x00005ce2:    1c80        ..      ADDS     r0,r0,#2
        0x00005ce4:    9001        ..      STR      r0,[sp,#4]
        0x00005ce6:    2e00        ..      CMP      r6,#0
        0x00005ce8:    d026        &.      BEQ      0x5d38 ; SIAEventPacketCreate + 554
        0x00005cea:    4669        iF      MOV      r1,sp
        0x00005cec:    7908        .y      LDRB     r0,[r1,#4]
        0x00005cee:    a1de        ..      ADR      r1,{pc}+0x37a ; 0x6068
        0x00005cf0:    1828        (.      ADDS     r0,r5,r0
        0x00005cf2:    300e        .0      ADDS     r0,r0,#0xe
        0x00005cf4:    f000fb50    ..P.    BL       strcpy ; 0x6398
        0x00005cf8:    4669        iF      MOV      r1,sp
        0x00005cfa:    7908        .y      LDRB     r0,[r1,#4]
        0x00005cfc:    1c80        ..      ADDS     r0,r0,#2
        0x00005cfe:    9001        ..      STR      r0,[sp,#4]
        0x00005d00:    9803        ..      LDR      r0,[sp,#0xc]
        0x00005d02:    2800        .(      CMP      r0,#0
        0x00005d04:    d026        &.      BEQ      0x5d54 ; SIAEventPacketCreate + 582
        0x00005d06:    4669        iF      MOV      r1,sp
        0x00005d08:    7908        .y      LDRB     r0,[r1,#4]
        0x00005d0a:    a1d8        ..      ADR      r1,{pc}+0x362 ; 0x606c
        0x00005d0c:    1828        (.      ADDS     r0,r5,r0
        0x00005d0e:    300e        .0      ADDS     r0,r0,#0xe
        0x00005d10:    f000fb42    ..B.    BL       strcpy ; 0x6398
        0x00005d14:    4669        iF      MOV      r1,sp
        0x00005d16:    7908        .y      LDRB     r0,[r1,#4]
        0x00005d18:    1d40        @.      ADDS     r0,r0,#5
        0x00005d1a:    9001        ..      STR      r0,[sp,#4]
        0x00005d1c:    1928        (.      ADDS     r0,r5,r4
        0x00005d1e:    7b81        .{      LDRB     r1,[r0,#0xe]
        0x00005d20:    1d49        I.      ADDS     r1,r1,#5
        0x00005d22:    b2c9        ..      UXTB     r1,r1
        0x00005d24:    7381        .s      STRB     r1,[r0,#0xe]
        0x00005d26:    2201        ."      MOVS     r2,#1
        0x00005d28:    a0d2        ..      ADR      r0,{pc}+0x34c ; 0x6074
        0x00005d2a:    f7fcfaf9    ....    BL       debug_8 ; 0x2320
        0x00005d2e:    2e00        ..      CMP      r6,#0
        0x00005d30:    d00e        ..      BEQ      0x5d50 ; SIAEventPacketCreate + 578
        0x00005d32:    2040        @       MOVS     r0,#0x40
        0x00005d34:    71f8        .q      STRB     r0,[r7,#7]
        0x00005d36:    e011        ..      B        0x5d5c ; SIAEventPacketCreate + 590
        0x00005d38:    4669        iF      MOV      r1,sp
        0x00005d3a:    7908        .y      LDRB     r0,[r1,#4]
        0x00005d3c:    a1d0        ..      ADR      r1,{pc}+0x344 ; 0x6080
        0x00005d3e:    1828        (.      ADDS     r0,r5,r0
        0x00005d40:    300e        .0      ADDS     r0,r0,#0xe
        0x00005d42:    f000fb29    ..).    BL       strcpy ; 0x6398
        0x00005d46:    4669        iF      MOV      r1,sp
        0x00005d48:    7908        .y      LDRB     r0,[r1,#4]
        0x00005d4a:    1c80        ..      ADDS     r0,r0,#2
        0x00005d4c:    9001        ..      STR      r0,[sp,#4]
        0x00005d4e:    e7d7        ..      B        0x5d00 ; SIAEventPacketCreate + 498
        0x00005d50:    2080        .       MOVS     r0,#0x80
        0x00005d52:    e7ef        ..      B        0x5d34 ; SIAEventPacketCreate + 550
        0x00005d54:    2e01        ..      CMP      r6,#1
        0x00005d56:    d04f        O.      BEQ      0x5df8 ; SIAEventPacketCreate + 746
        0x00005d58:    2008        .       MOVS     r0,#8
        0x00005d5a:    71f8        .q      STRB     r0,[r7,#7]
        0x00005d5c:    2e00        ..      CMP      r6,#0
        0x00005d5e:    d051        Q.      BEQ      0x5e04 ; SIAEventPacketCreate + 758
        0x00005d60:    4669        iF      MOV      r1,sp
        0x00005d62:    7908        .y      LDRB     r0,[r1,#4]
        0x00005d64:    1828        (.      ADDS     r0,r5,r0
        0x00005d66:    300e        .0      ADDS     r0,r0,#0xe
        0x00005d68:    f7fffdf2    ....    BL       AddVoltageInfo ; 0x5950
        0x00005d6c:    4669        iF      MOV      r1,sp
        0x00005d6e:    7909        .y      LDRB     r1,[r1,#4]
        0x00005d70:    1840        @.      ADDS     r0,r0,r1
        0x00005d72:    b2c0        ..      UXTB     r0,r0
        0x00005d74:    9001        ..      STR      r0,[sp,#4]
        0x00005d76:    1829        ).      ADDS     r1,r5,r0
        0x00005d78:    48b7        .H      LDR      r0,[pc,#732] ; [0x6058] = 0x200000d4
        0x00005d7a:    310e        .1      ADDS     r1,r1,#0xe
        0x00005d7c:    2203        ."      MOVS     r2,#3
        0x00005d7e:    7800        .x      LDRB     r0,[r0,#0]
        0x00005d80:    f7fcfb37    ..7.    BL       Dec2Txt ; 0x23f2
        0x00005d84:    4669        iF      MOV      r1,sp
        0x00005d86:    7908        .y      LDRB     r0,[r1,#4]
        0x00005d88:    1cc0        ..      ADDS     r0,r0,#3
        0x00005d8a:    b2c0        ..      UXTB     r0,r0
        0x00005d8c:    2622        "&      MOVS     r6,#0x22
        0x00005d8e:    1829        ).      ADDS     r1,r5,r0
        0x00005d90:    738e        .s      STRB     r6,[r1,#0xe]
        0x00005d92:    1c40        @.      ADDS     r0,r0,#1
        0x00005d94:    b2c0        ..      UXTB     r0,r0
        0x00005d96:    9001        ..      STR      r0,[sp,#4]
        0x00005d98:    1828        (.      ADDS     r0,r5,r0
        0x00005d9a:    300e        .0      ADDS     r0,r0,#0xe
        0x00005d9c:    49b9        .I      LDR      r1,[pc,#740] ; [0x6084] = 0x20000108
        0x00005d9e:    f000fafb    ....    BL       strcpy ; 0x6398
        0x00005da2:    48b8        .H      LDR      r0,[pc,#736] ; [0x6084] = 0x20000108
        0x00005da4:    f000fb1e    ....    BL       strlen ; 0x63e4
        0x00005da8:    4669        iF      MOV      r1,sp
        0x00005daa:    7909        .y      LDRB     r1,[r1,#4]
        0x00005dac:    1840        @.      ADDS     r0,r0,r1
        0x00005dae:    b2c0        ..      UXTB     r0,r0
        0x00005db0:    1829        ).      ADDS     r1,r5,r0
        0x00005db2:    738e        .s      STRB     r6,[r1,#0xe]
        0x00005db4:    2200        ."      MOVS     r2,#0
        0x00005db6:    73ca        .s      STRB     r2,[r1,#0xf]
        0x00005db8:    1c40        @.      ADDS     r0,r0,#1
        0x00005dba:    9001        ..      STR      r0,[sp,#4]
        0x00005dbc:    4669        iF      MOV      r1,sp
        0x00005dbe:    7908        .y      LDRB     r0,[r1,#4]
        0x00005dc0:    49b1        .I      LDR      r1,[pc,#708] ; [0x6088] = 0x2000067f
        0x00005dc2:    1828        (.      ADDS     r0,r5,r0
        0x00005dc4:    300e        .0      ADDS     r0,r0,#0xe
        0x00005dc6:    f000fae7    ....    BL       strcpy ; 0x6398
        0x00005dca:    48af        .H      LDR      r0,[pc,#700] ; [0x6088] = 0x2000067f
        0x00005dcc:    f000fb0a    ....    BL       strlen ; 0x63e4
        0x00005dd0:    4669        iF      MOV      r1,sp
        0x00005dd2:    7909        .y      LDRB     r1,[r1,#4]
        0x00005dd4:    1840        @.      ADDS     r0,r0,r1
        0x00005dd6:    b2c0        ..      UXTB     r0,r0
        0x00005dd8:    9001        ..      STR      r0,[sp,#4]
        0x00005dda:    1828        (.      ADDS     r0,r5,r0
        0x00005ddc:    300e        .0      ADDS     r0,r0,#0xe
        0x00005dde:    a1ab        ..      ADR      r1,{pc}+0x2ae ; 0x608c
        0x00005de0:    f000fada    ....    BL       strcpy ; 0x6398
        0x00005de4:    4669        iF      MOV      r1,sp
        0x00005de6:    7908        .y      LDRB     r0,[r1,#4]
        0x00005de8:    1c80        ..      ADDS     r0,r0,#2
        0x00005dea:    b2c0        ..      UXTB     r0,r0
        0x00005dec:    9001        ..      STR      r0,[sp,#4]
        0x00005dee:    8979        y.      LDRH     r1,[r7,#0xa]
        0x00005df0:    79fa        .y      LDRB     r2,[r7,#7]
        0x00005df2:    4211        .B      TST      r1,r2
        0x00005df4:    d026        &.      BEQ      0x5e44 ; SIAEventPacketCreate + 822
        0x00005df6:    e031        1.      B        0x5e5c ; SIAEventPacketCreate + 846
        0x00005df8:    2004        .       MOVS     r0,#4
        0x00005dfa:    71f8        .q      STRB     r0,[r7,#7]
        0x00005dfc:    20d4        .       MOVS     r0,#0xd4
        0x00005dfe:    f7fffd89    ....    BL       SuperSet ; 0x5914
        0x00005e02:    e7ab        ..      B        0x5d5c ; SIAEventPacketCreate + 590
        0x00005e04:    4669        iF      MOV      r1,sp
        0x00005e06:    7908        .y      LDRB     r0,[r1,#4]
        0x00005e08:    1828        (.      ADDS     r0,r5,r0
        0x00005e0a:    300e        .0      ADDS     r0,r0,#0xe
        0x00005e0c:    f7fffda0    ....    BL       AddVoltageInfo ; 0x5950
        0x00005e10:    4669        iF      MOV      r1,sp
        0x00005e12:    7909        .y      LDRB     r1,[r1,#4]
        0x00005e14:    1840        @.      ADDS     r0,r0,r1
        0x00005e16:    b2c0        ..      UXTB     r0,r0
        0x00005e18:    9001        ..      STR      r0,[sp,#4]
        0x00005e1a:    1829        ).      ADDS     r1,r5,r0
        0x00005e1c:    488e        .H      LDR      r0,[pc,#568] ; [0x6058] = 0x200000d4
        0x00005e1e:    310e        .1      ADDS     r1,r1,#0xe
        0x00005e20:    2203        ."      MOVS     r2,#3
        0x00005e22:    7800        .x      LDRB     r0,[r0,#0]
        0x00005e24:    f7fcfae5    ....    BL       Dec2Txt ; 0x23f2
        0x00005e28:    4669        iF      MOV      r1,sp
        0x00005e2a:    7908        .y      LDRB     r0,[r1,#4]
        0x00005e2c:    1cc0        ..      ADDS     r0,r0,#3
        0x00005e2e:    b2c0        ..      UXTB     r0,r0
        0x00005e30:    2122        "!      MOVS     r1,#0x22
        0x00005e32:    182a        *.      ADDS     r2,r5,r0
        0x00005e34:    7391        .s      STRB     r1,[r2,#0xe]
        0x00005e36:    1c40        @.      ADDS     r0,r0,#1
        0x00005e38:    b2c0        ..      UXTB     r0,r0
        0x00005e3a:    9001        ..      STR      r0,[sp,#4]
        0x00005e3c:    2100        .!      MOVS     r1,#0
        0x00005e3e:    1828        (.      ADDS     r0,r5,r0
        0x00005e40:    7381        .s      STRB     r1,[r0,#0xe]
        0x00005e42:    e7bb        ..      B        0x5dbc ; SIAEventPacketCreate + 686
        0x00005e44:    2100        .!      MOVS     r1,#0
        0x00005e46:    1828        (.      ADDS     r0,r5,r0
        0x00005e48:    7381        .s      STRB     r1,[r0,#0xe]
        0x00005e4a:    9800        ..      LDR      r0,[sp,#0]
        0x00005e4c:    1828        (.      ADDS     r0,r5,r0
        0x00005e4e:    300e        .0      ADDS     r0,r0,#0xe
        0x00005e50:    f7fafd99    ....    BL       WriteLog ; 0x986
        0x00005e54:    8978        x.      LDRH     r0,[r7,#0xa]
        0x00005e56:    79f9        .y      LDRB     r1,[r7,#7]
        0x00005e58:    4308        .C      ORRS     r0,r0,r1
        0x00005e5a:    8178        x.      STRH     r0,[r7,#0xa]
        0x00005e5c:    466b        kF      MOV      r3,sp
        0x00005e5e:    7918        .y      LDRB     r0,[r3,#4]
        0x00005e60:    2201        ."      MOVS     r2,#1
        0x00005e62:    1b00        ..      SUBS     r0,r0,r4
        0x00005e64:    1e80        ..      SUBS     r0,r0,#2
        0x00005e66:    b2c1        ..      UXTB     r1,r0
        0x00005e68:    a082        ..      ADR      r0,{pc}+0x20c ; 0x6074
        0x00005e6a:    f7fcfa59    ..Y.    BL       debug_8 ; 0x2320
        0x00005e6e:    466b        kF      MOV      r3,sp
        0x00005e70:    7919        .y      LDRB     r1,[r3,#4]
        0x00005e72:    1b0a        ..      SUBS     r2,r1,r4
        0x00005e74:    1e92        ..      SUBS     r2,r2,#2
        0x00005e76:    1928        (.      ADDS     r0,r5,r4
        0x00005e78:    7382        .s      STRB     r2,[r0,#0xe]
        0x00005e7a:    460a        .F      MOV      r2,r1
        0x00005e7c:    1c49        I.      ADDS     r1,r1,#1
        0x00005e7e:    9101        ..      STR      r1,[sp,#4]
        0x00005e80:    1952        R.      ADDS     r2,r2,r5
        0x00005e82:    1b09        ..      SUBS     r1,r1,r4
        0x00005e84:    320e        .2      ADDS     r2,r2,#0xe
        0x00005e86:    b2c9        ..      UXTB     r1,r1
        0x00005e88:    300e        .0      ADDS     r0,r0,#0xe
        0x00005e8a:    f7fffcb2    ....    BL       XorCalcurate ; 0x57f2
        0x00005e8e:    466b        kF      MOV      r3,sp
        0x00005e90:    7918        .y      LDRB     r0,[r3,#4]
        0x00005e92:    2240        @"      MOVS     r2,#0x40
        0x00005e94:    1c41        A.      ADDS     r1,r0,#1
        0x00005e96:    1940        @.      ADDS     r0,r0,r5
        0x00005e98:    b2c9        ..      UXTB     r1,r1
        0x00005e9a:    7382        .s      STRB     r2,[r0,#0xe]
        0x00005e9c:    1c48        H.      ADDS     r0,r1,#1
        0x00005e9e:    2230        0"      MOVS     r2,#0x30
        0x00005ea0:    1949        I.      ADDS     r1,r1,r5
        0x00005ea2:    b2c0        ..      UXTB     r0,r0
        0x00005ea4:    738a        .s      STRB     r2,[r1,#0xe]
        0x00005ea6:    4602        .F      MOV      r2,r0
        0x00005ea8:    1c40        @.      ADDS     r0,r0,#1
        0x00005eaa:    218f        .!      MOVS     r1,#0x8f
        0x00005eac:    1952        R.      ADDS     r2,r2,r5
        0x00005eae:    9001        ..      STR      r0,[sp,#4]
        0x00005eb0:    7391        .s      STRB     r1,[r2,#0xe]
        0x00005eb2:    300b        .0      ADDS     r0,r0,#0xb
        0x00005eb4:    70a8        .p      STRB     r0,[r5,#2]
        0x00005eb6:    2100        .!      MOVS     r1,#0
        0x00005eb8:    7069        ip      STRB     r1,[r5,#1]
        0x00005eba:    4a73        sJ      LDR      r2,[pc,#460] ; [0x6088] = 0x2000067f
        0x00005ebc:    3a9a        .:      SUBS     r2,r2,#0x9a
        0x00005ebe:    7191        .q      STRB     r1,[r2,#6]
        0x00005ec0:    3010        .0      ADDS     r0,r0,#0x10
        0x00005ec2:    71d0        .q      STRB     r0,[r2,#7]
        0x00005ec4:    f7fffcfa    ....    BL       SeqInc ; 0x58bc
        0x00005ec8:    2004        .       MOVS     r0,#4
        0x00005eca:    f7fffcf1    ....    BL       CmdSet ; 0x58b0
        0x00005ece:    f7fffc9e    ....    BL       CrcCalcurate ; 0x580e
        0x00005ed2:    b005        ..      ADD      sp,sp,#0x14
        0x00005ed4:    bdf0        ..      POP      {r4-r7,pc}
    TypeNextUdp
        0x00005ed6:    4603        .F      MOV      r3,r0
        0x00005ed8:    2004        .       MOVS     r0,#4
        0x00005eda:    2a00        .*      CMP      r2,#0
        0x00005edc:    d005        ..      BEQ      0x5eea ; TypeNextUdp + 20
        0x00005ede:    2b00        .+      CMP      r3,#0
        0x00005ee0:    d001        ..      BEQ      0x5ee6 ; TypeNextUdp + 16
        0x00005ee2:    2010        .       MOVS     r0,#0x10
        0x00005ee4:    4770        pG      BX       lr
        0x00005ee6:    2020                MOVS     r0,#0x20
        0x00005ee8:    4770        pG      BX       lr
        0x00005eea:    2900        .)      CMP      r1,#0
        0x00005eec:    d005        ..      BEQ      0x5efa ; TypeNextUdp + 36
        0x00005eee:    2b00        .+      CMP      r3,#0
        0x00005ef0:    d001        ..      BEQ      0x5ef6 ; TypeNextUdp + 32
        0x00005ef2:    2040        @       MOVS     r0,#0x40
        0x00005ef4:    4770        pG      BX       lr
        0x00005ef6:    2080        .       MOVS     r0,#0x80
        0x00005ef8:    4770        pG      BX       lr
        0x00005efa:    2b01        .+      CMP      r3,#1
        0x00005efc:    d0fc        ..      BEQ      0x5ef8 ; TypeNextUdp + 34
        0x00005efe:    2008        .       MOVS     r0,#8
        0x00005f00:    4770        pG      BX       lr
    UdpHandle
        0x00005f02:    b5f8        ..      PUSH     {r3-r7,lr}
        0x00005f04:    4f55        UO      LDR      r7,[pc,#340] ; [0x605c] = 0x2000001a
        0x00005f06:    7838        8x      LDRB     r0,[r7,#0]
        0x00005f08:    280c        .(      CMP      r0,#0xc
        0x00005f0a:    d072        r.      BEQ      0x5ff2 ; UdpHandle + 240
        0x00005f0c:    4860        `H      LDR      r0,[pc,#384] ; [0x6090] = 0x20000019
        0x00005f0e:    7800        .x      LDRB     r0,[r0,#0]
        0x00005f10:    2800        .(      CMP      r0,#0
        0x00005f12:    d06e        n.      BEQ      0x5ff2 ; UdpHandle + 240
        0x00005f14:    4e5b        [N      LDR      r6,[pc,#364] ; [0x6084] = 0x20000108
        0x00005f16:    4c5f        _L      LDR      r4,[pc,#380] ; [0x6094] = 0x2000001b
        0x00005f18:    3e0c        .>      SUBS     r6,r6,#0xc
        0x00005f1a:    7830        0x      LDRB     r0,[r6,#0]
        0x00005f1c:    2800        .(      CMP      r0,#0
        0x00005f1e:    d02b        +.      BEQ      0x5f78 ; UdpHandle + 118
        0x00005f20:    2000        .       MOVS     r0,#0
        0x00005f22:    7030        0p      STRB     r0,[r6,#0]
        0x00005f24:    f7fffc52    ..R.    BL       checkPacketFormat ; 0x57cc
        0x00005f28:    2800        .(      CMP      r0,#0
        0x00005f2a:    d025        %.      BEQ      0x5f78 ; UdpHandle + 118
        0x00005f2c:    4856        VH      LDR      r0,[pc,#344] ; [0x6088] = 0x2000067f
        0x00005f2e:    389a        .8      SUBS     r0,r0,#0x9a
        0x00005f30:    7b81        .{      LDRB     r1,[r0,#0xe]
        0x00005f32:    2900        .)      CMP      r1,#0
        0x00005f34:    d112        ..      BNE      0x5f5c ; UdpHandle + 90
        0x00005f36:    7bc1        .{      LDRB     r1,[r0,#0xf]
        0x00005f38:    2900        .)      CMP      r1,#0
        0x00005f3a:    d10f        ..      BNE      0x5f5c ; UdpHandle + 90
        0x00005f3c:    7c01        .|      LDRB     r1,[r0,#0x10]
        0x00005f3e:    2900        .)      CMP      r1,#0
        0x00005f40:    d10c        ..      BNE      0x5f5c ; UdpHandle + 90
        0x00005f42:    7c40        @|      LDRB     r0,[r0,#0x11]
        0x00005f44:    2800        .(      CMP      r0,#0
        0x00005f46:    d109        ..      BNE      0x5f5c ; UdpHandle + 90
        0x00005f48:    79b0        .y      LDRB     r0,[r6,#6]
        0x00005f4a:    2812        .(      CMP      r0,#0x12
        0x00005f4c:    d106        ..      BNE      0x5f5c ; UdpHandle + 90
        0x00005f4e:    494e        NI      LDR      r1,[pc,#312] ; [0x6088] = 0x2000067f
        0x00005f50:    2204        ."      MOVS     r2,#4
        0x00005f52:    3924        $9      SUBS     r1,r1,#0x24
        0x00005f54:    4608        .F      MOV      r0,r1
        0x00005f56:    3868        h8      SUBS     r0,r0,#0x68
        0x00005f58:    f000fac2    ....    BL       __aeabi_memcpy ; 0x64e0
        0x00005f5c:    f7fffc77    ..w.    BL       SetSendSigalFlag ; 0x584e
        0x00005f60:    4848        HH      LDR      r0,[pc,#288] ; [0x6084] = 0x20000108
        0x00005f62:    1f00        ..      SUBS     r0,r0,#4
        0x00005f64:    7800        .x      LDRB     r0,[r0,#0]
        0x00005f66:    07c0        ..      LSLS     r0,r0,#31
        0x00005f68:    d001        ..      BEQ      0x5f6e ; UdpHandle + 108
        0x00005f6a:    2001        .       MOVS     r0,#1
        0x00005f6c:    7130        0q      STRB     r0,[r6,#4]
        0x00005f6e:    7838        8x      LDRB     r0,[r7,#0]
        0x00005f70:    280d        .(      CMP      r0,#0xd
        0x00005f72:    d008        ..      BEQ      0x5f86 ; UdpHandle + 132
        0x00005f74:    2007        .       MOVS     r0,#7
        0x00005f76:    7020         p      STRB     r0,[r4,#0]
        0x00005f78:    4846        FH      LDR      r0,[pc,#280] ; [0x6094] = 0x2000001b
        0x00005f7a:    4c47        GL      LDR      r4,[pc,#284] ; [0x6098] = 0x2000002f
        0x00005f7c:    7800        .x      LDRB     r0,[r0,#0]
        0x00005f7e:    4d47        GM      LDR      r5,[pc,#284] ; [0x609c] = 0x20000030
        0x00005f80:    2806        .(      CMP      r0,#6
        0x00005f82:    d003        ..      BEQ      0x5f8c ; UdpHandle + 138
        0x00005f84:    e041        A.      B        0x600a ; UdpHandle + 264
        0x00005f86:    f7fdfc8d    ....    BL       EnterStandby ; 0x38a4
        0x00005f8a:    e7f5        ..      B        0x5f78 ; UdpHandle + 118
        0x00005f8c:    7970        py      LDRB     r0,[r6,#5]
        0x00005f8e:    2800        .(      CMP      r0,#0
        0x00005f90:    d13b        ;.      BNE      0x600a ; UdpHandle + 264
        0x00005f92:    493d        =I      LDR      r1,[pc,#244] ; [0x6088] = 0x2000067f
        0x00005f94:    3985        .9      SUBS     r1,r1,#0x85
        0x00005f96:    7848        Hx      LDRB     r0,[r1,#1]
        0x00005f98:    2803        .(      CMP      r0,#3
        0x00005f9a:    d215        ..      BCS      0x5fc8 ; UdpHandle + 198
        0x00005f9c:    1c40        @.      ADDS     r0,r0,#1
        0x00005f9e:    7048        Hp      STRB     r0,[r1,#1]
        0x00005fa0:    7930        0y      LDRB     r0,[r6,#4]
        0x00005fa2:    2801        .(      CMP      r0,#1
        0x00005fa4:    d10d        ..      BNE      0x5fc2 ; UdpHandle + 192
        0x00005fa6:    4f3e        >O      LDR      r7,[pc,#248] ; [0x60a0] = 0x20000018
        0x00005fa8:    7821        !x      LDRB     r1,[r4,#0]
        0x00005faa:    783a        :x      LDRB     r2,[r7,#0]
        0x00005fac:    7828        (x      LDRB     r0,[r5,#0]
        0x00005fae:    f7ffff92    ....    BL       TypeNextUdp ; 0x5ed6
        0x00005fb2:    79f1        .y      LDRB     r1,[r6,#7]
        0x00005fb4:    4288        .B      CMP      r0,r1
        0x00005fb6:    d004        ..      BEQ      0x5fc2 ; UdpHandle + 192
        0x00005fb8:    783a        :x      LDRB     r2,[r7,#0]
        0x00005fba:    7821        !x      LDRB     r1,[r4,#0]
        0x00005fbc:    7828        (x      LDRB     r0,[r5,#0]
        0x00005fbe:    f7fffda6    ....    BL       SIAEventPacketCreate ; 0x5b0e
        0x00005fc2:    f7fffd1b    ....    BL       UdpSend ; 0x59fc
        0x00005fc6:    e020         .      B        0x600a ; UdpHandle + 264
        0x00005fc8:    7932        2y      LDRB     r2,[r6,#4]
        0x00005fca:    2a00        .*      CMP      r2,#0
        0x00005fcc:    d106        ..      BNE      0x5fdc ; UdpHandle + 218
        0x00005fce:    2805        .(      CMP      r0,#5
        0x00005fd0:    d204        ..      BCS      0x5fdc ; UdpHandle + 218
        0x00005fd2:    1c40        @.      ADDS     r0,r0,#1
        0x00005fd4:    7048        Hp      STRB     r0,[r1,#1]
        0x00005fd6:    f7fffd11    ....    BL       UdpSend ; 0x59fc
        0x00005fda:    e016        ..      B        0x600a ; UdpHandle + 264
        0x00005fdc:    7838        8x      LDRB     r0,[r7,#0]
        0x00005fde:    280d        .(      CMP      r0,#0xd
        0x00005fe0:    d008        ..      BEQ      0x5ff4 ; UdpHandle + 242
        0x00005fe2:    2000        .       MOVS     r0,#0
        0x00005fe4:    7130        0q      STRB     r0,[r6,#4]
        0x00005fe6:    7230        0r      STRB     r0,[r6,#8]
        0x00005fe8:    7870        px      LDRB     r0,[r6,#1]
        0x00005fea:    2801        .(      CMP      r0,#1
        0x00005fec:    d005        ..      BEQ      0x5ffa ; UdpHandle + 248
        0x00005fee:    2001        .       MOVS     r0,#1
        0x00005ff0:    e004        ..      B        0x5ffc ; UdpHandle + 250
        0x00005ff2:    e025        %.      B        0x6040 ; UdpHandle + 318
        0x00005ff4:    f7fdfc56    ..V.    BL       EnterStandby ; 0x38a4
        0x00005ff8:    e007        ..      B        0x600a ; UdpHandle + 264
        0x00005ffa:    2000        .       MOVS     r0,#0
        0x00005ffc:    7070        pp      STRB     r0,[r6,#1]
        0x00005ffe:    f7fffd48    ..H.    BL       TXInitPacketCreate ; 0x5a92
        0x00006002:    2800        .(      CMP      r0,#0
        0x00006004:    d001        ..      BEQ      0x600a ; UdpHandle + 264
        0x00006006:    f7fffcf9    ....    BL       UdpSend ; 0x59fc
        0x0000600a:    4822        "H      LDR      r0,[pc,#136] ; [0x6094] = 0x2000001b
        0x0000600c:    7800        .x      LDRB     r0,[r0,#0]
        0x0000600e:    2807        .(      CMP      r0,#7
        0x00006010:    d116        ..      BNE      0x6040 ; UdpHandle + 318
        0x00006012:    481c        .H      LDR      r0,[pc,#112] ; [0x6084] = 0x20000108
        0x00006014:    1f00        ..      SUBS     r0,r0,#4
        0x00006016:    7800        .x      LDRB     r0,[r0,#0]
        0x00006018:    0781        ..      LSLS     r1,r0,#30
        0x0000601a:    d509        ..      BPL      0x6030 ; UdpHandle + 302
        0x0000601c:    0701        ..      LSLS     r1,r0,#28
        0x0000601e:    d402        ..      BMI      0x6026 ; UdpHandle + 292
        0x00006020:    7821        !x      LDRB     r1,[r4,#0]
        0x00006022:    2900        .)      CMP      r1,#0
        0x00006024:    d104        ..      BNE      0x6030 ; UdpHandle + 302
        0x00006026:    0740        @.      LSLS     r0,r0,#29
        0x00006028:    d40a        ..      BMI      0x6040 ; UdpHandle + 318
        0x0000602a:    7828        (x      LDRB     r0,[r5,#0]
        0x0000602c:    2800        .(      CMP      r0,#0
        0x0000602e:    d007        ..      BEQ      0x6040 ; UdpHandle + 318
        0x00006030:    481b        .H      LDR      r0,[pc,#108] ; [0x60a0] = 0x20000018
        0x00006032:    7821        !x      LDRB     r1,[r4,#0]
        0x00006034:    7802        .x      LDRB     r2,[r0,#0]
        0x00006036:    7828        (x      LDRB     r0,[r5,#0]
        0x00006038:    f7fffd69    ..i.    BL       SIAEventPacketCreate ; 0x5b0e
        0x0000603c:    f7fffcde    ....    BL       UdpSend ; 0x59fc
        0x00006040:    bdf8        ..      POP      {r3-r7,pc}
    udpParamInit
        0x00006042:    4810        .H      LDR      r0,[pc,#64] ; [0x6084] = 0x20000108
        0x00006044:    2100        .!      MOVS     r1,#0
        0x00006046:    380c        .8      SUBS     r0,r0,#0xc
        0x00006048:    7101        .q      STRB     r1,[r0,#4]
        0x0000604a:    7201        .r      STRB     r1,[r0,#8]
        0x0000604c:    7041        Ap      STRB     r1,[r0,#1]
        0x0000604e:    4770        pG      BX       lr
    $d
        0x00006050:    3030434f    OC00    DCD    808469327
        0x00006054:    00000000    ....    DCD    0
        0x00006058:    200000d4    ...     DCD    536871124
        0x0000605c:    2000001a    ...     DCD    536870938
        0x00006060:    00004155    UA..    DCD    16725
        0x00006064:    00005852    RX..    DCD    22610
        0x00006068:    00003939    99..    DCD    14649
        0x0000606c:    3054582f    /XT0    DCD    810833967
        0x00006070:    00000030    0...    DCD    48
        0x00006074:    676e656c    leng    DCD    1735288172
        0x00006078:    32206874    th 2    DCD    840984692
        0x0000607c:    0000003a    :...    DCD    58
        0x00006080:    00003030    00..    DCD    12336
        0x00006084:    20000108    ...     DCD    536871176
        0x00006088:    2000067f    ...     DCD    536872575
        0x0000608c:    00002a22    "*..    DCD    10786
        0x00006090:    20000019    ...     DCD    536870937
        0x00006094:    2000001b    ...     DCD    536870939
        0x00006098:    2000002f    /..     DCD    536870959
        0x0000609c:    20000030    0..     DCD    536870960
        0x000060a0:    20000018    ...     DCD    536870936
    $t
    ResendGpsSig
        0x000060a4:    4802        .H      LDR      r0,[pc,#8] ; [0x60b0] = 0x20000104
        0x000060a6:    22fb        ."      MOVS     r2,#0xfb
        0x000060a8:    7801        .x      LDRB     r1,[r0,#0]
        0x000060aa:    4011        .@      ANDS     r1,r1,r2
        0x000060ac:    7001        .p      STRB     r1,[r0,#0]
        0x000060ae:    e7ce        ..      B        0x604e ; udpParamInit + 12
    $d
        0x000060b0:    20000104    ...     DCD    536871172
    $t
    .text
    __c89vsnprintf
        0x000060b4:    b57c        |.      PUSH     {r2-r6,lr}
        0x000060b6:    461d        .F      MOV      r5,r3
        0x000060b8:    4616        .F      MOV      r6,r2
        0x000060ba:    000c        ..      MOVS     r4,r1
        0x000060bc:    9000        ..      STR      r0,[sp,#0]
        0x000060be:    d001        ..      BEQ      0x60c4 ; __c89vsnprintf + 16
        0x000060c0:    1900        ..      ADDS     r0,r0,r4
        0x000060c2:    1e40        @.      SUBS     r0,r0,#1
        0x000060c4:    4b08        .K      LDR      r3,[pc,#32] ; [0x60e8] = 0x841
        0x000060c6:    447b        {D      ADD      r3,r3,pc
        0x000060c8:    462a        *F      MOV      r2,r5
        0x000060ca:    4669        iF      MOV      r1,sp
        0x000060cc:    9001        ..      STR      r0,[sp,#4]
        0x000060ce:    4630        0F      MOV      r0,r6
        0x000060d0:    f000fc03    ....    BL       _printf_char_common ; 0x68da
        0x000060d4:    2c00        .,      CMP      r4,#0
        0x000060d6:    4605        .F      MOV      r5,r0
        0x000060d8:    d003        ..      BEQ      0x60e2 ; __c89vsnprintf + 46
        0x000060da:    4669        iF      MOV      r1,sp
        0x000060dc:    2000        .       MOVS     r0,#0
        0x000060de:    f000fc0f    ....    BL       _sputc ; 0x6900
        0x000060e2:    4628        (F      MOV      r0,r5
        0x000060e4:    bd7c        |.      POP      {r2-r6,pc}
    $d
        0x000060e6:    0000        ..      DCW    0
        0x000060e8:    00000841    A...    DCD    2113
    $t
    .text
    __2sprintf
        0x000060ec:    b40f        ..      PUSH     {r0-r3}
        0x000060ee:    b51c        ..      PUSH     {r2-r4,lr}
        0x000060f0:    4b08        .K      LDR      r3,[pc,#32] ; [0x6114] = 0x809
        0x000060f2:    aa06        ..      ADD      r2,sp,#0x18
        0x000060f4:    447b        {D      ADD      r3,r3,pc
        0x000060f6:    4669        iF      MOV      r1,sp
        0x000060f8:    9000        ..      STR      r0,[sp,#0]
        0x000060fa:    9805        ..      LDR      r0,[sp,#0x14]
        0x000060fc:    f000fbed    ....    BL       _printf_char_common ; 0x68da
        0x00006100:    4604        .F      MOV      r4,r0
        0x00006102:    2000        .       MOVS     r0,#0
        0x00006104:    4669        iF      MOV      r1,sp
        0x00006106:    f000fbfb    ....    BL       _sputc ; 0x6900
        0x0000610a:    4620         F      MOV      r0,r4
        0x0000610c:    bc1c        ..      POP      {r2-r4}
        0x0000610e:    bc08        ..      POP      {r3}
        0x00006110:    b004        ..      ADD      sp,sp,#0x10
        0x00006112:    4718        .G      BX       r3
    $d
        0x00006114:    00000809    ....    DCD    2057
    $t
    .text
    _printf_pre_padding
        0x00006118:    b570        p.      PUSH     {r4-r6,lr}
        0x0000611a:    4604        .F      MOV      r4,r0
        0x0000611c:    6985        .i      LDR      r5,[r0,#0x18]
        0x0000611e:    6800        .h      LDR      r0,[r0,#0]
        0x00006120:    06c1        ..      LSLS     r1,r0,#27
        0x00006122:    d501        ..      BPL      0x6128 ; _printf_pre_padding + 16
        0x00006124:    2630        0&      MOVS     r6,#0x30
        0x00006126:    e000        ..      B        0x612a ; _printf_pre_padding + 18
        0x00006128:    2620         &      MOVS     r6,#0x20
        0x0000612a:    07c0        ..      LSLS     r0,r0,#31
        0x0000612c:    d007        ..      BEQ      0x613e ; _printf_pre_padding + 38
        0x0000612e:    bd70        p.      POP      {r4-r6,pc}
        0x00006130:    6862        bh      LDR      r2,[r4,#4]
        0x00006132:    4630        0F      MOV      r0,r6
        0x00006134:    68a1        .h      LDR      r1,[r4,#8]
        0x00006136:    4790        .G      BLX      r2
        0x00006138:    6a20         j      LDR      r0,[r4,#0x20]
        0x0000613a:    1c40        @.      ADDS     r0,r0,#1
        0x0000613c:    6220         b      STR      r0,[r4,#0x20]
        0x0000613e:    1e6d        m.      SUBS     r5,r5,#1
        0x00006140:    d5f6        ..      BPL      0x6130 ; _printf_pre_padding + 24
        0x00006142:    bd70        p.      POP      {r4-r6,pc}
    _printf_post_padding
        0x00006144:    b570        p.      PUSH     {r4-r6,lr}
        0x00006146:    4604        .F      MOV      r4,r0
        0x00006148:    6985        .i      LDR      r5,[r0,#0x18]
        0x0000614a:    7800        .x      LDRB     r0,[r0,#0]
        0x0000614c:    07c0        ..      LSLS     r0,r0,#31
        0x0000614e:    d107        ..      BNE      0x6160 ; _printf_post_padding + 28
        0x00006150:    bd70        p.      POP      {r4-r6,pc}
        0x00006152:    6862        bh      LDR      r2,[r4,#4]
        0x00006154:    68a1        .h      LDR      r1,[r4,#8]
        0x00006156:    2020                MOVS     r0,#0x20
        0x00006158:    4790        .G      BLX      r2
        0x0000615a:    6a20         j      LDR      r0,[r4,#0x20]
        0x0000615c:    1c40        @.      ADDS     r0,r0,#1
        0x0000615e:    6220         b      STR      r0,[r4,#0x20]
        0x00006160:    1e6d        m.      SUBS     r5,r5,#1
        0x00006162:    d5f6        ..      BPL      0x6152 ; _printf_post_padding + 14
        0x00006164:    bd70        p.      POP      {r4-r6,pc}
        0x00006166:    0000        ..      MOVS     r0,r0
    .text
    _printf_int_dec
        0x00006168:    b5f7        ..      PUSH     {r0-r2,r4-r7,lr}
        0x0000616a:    2500        .%      MOVS     r5,#0
        0x0000616c:    2975        u)      CMP      r1,#0x75
        0x0000616e:    6810        .h      LDR      r0,[r2,#0]
        0x00006170:    9900        ..      LDR      r1,[sp,#0]
        0x00006172:    a614        ..      ADR      r6,{pc}+0x52 ; 0x61c4
        0x00006174:    d011        ..      BEQ      0x619a ; _printf_int_dec + 50
        0x00006176:    f000fb03    ....    BL       _printf_truncate_signed ; 0x6780
        0x0000617a:    2800        .(      CMP      r0,#0
        0x0000617c:    da02        ..      BGE      0x6184 ; _printf_int_dec + 28
        0x0000617e:    4240        @B      RSBS     r0,r0,#0
        0x00006180:    a611        ..      ADR      r6,{pc}+0x48 ; 0x61c8
        0x00006182:    e008        ..      B        0x6196 ; _printf_int_dec + 46
        0x00006184:    9900        ..      LDR      r1,[sp,#0]
        0x00006186:    6809        .h      LDR      r1,[r1,#0]
        0x00006188:    078a        ..      LSLS     r2,r1,#30
        0x0000618a:    d501        ..      BPL      0x6190 ; _printf_int_dec + 40
        0x0000618c:    a60f        ..      ADR      r6,{pc}+0x40 ; 0x61cc
        0x0000618e:    e002        ..      B        0x6196 ; _printf_int_dec + 46
        0x00006190:    0749        I.      LSLS     r1,r1,#29
        0x00006192:    d504        ..      BPL      0x619e ; _printf_int_dec + 54
        0x00006194:    a60e        ..      ADR      r6,{pc}+0x3c ; 0x61d0
        0x00006196:    2501        .%      MOVS     r5,#1
        0x00006198:    e001        ..      B        0x619e ; _printf_int_dec + 54
        0x0000619a:    f000fafa    ....    BL       _printf_truncate_unsigned ; 0x6792
        0x0000619e:    9f00        ..      LDR      r7,[sp,#0]
        0x000061a0:    2400        .$      MOVS     r4,#0
        0x000061a2:    3724        $7      ADDS     r7,r7,#0x24
        0x000061a4:    e004        ..      B        0x61b0 ; _printf_int_dec + 72
        0x000061a6:    f000fcd3    ....    BL       __rt_udiv10 ; 0x6b50
        0x000061aa:    3130        01      ADDS     r1,r1,#0x30
        0x000061ac:    5539        9U      STRB     r1,[r7,r4]
        0x000061ae:    1c64        d.      ADDS     r4,r4,#1
        0x000061b0:    2800        .(      CMP      r0,#0
        0x000061b2:    d1f8        ..      BNE      0x61a6 ; _printf_int_dec + 62
        0x000061b4:    462b        +F      MOV      r3,r5
        0x000061b6:    4632        2F      MOV      r2,r6
        0x000061b8:    4621        !F      MOV      r1,r4
        0x000061ba:    9800        ..      LDR      r0,[sp,#0]
        0x000061bc:    f000fb1b    ....    BL       _printf_int_common ; 0x67f6
        0x000061c0:    bdfe        ..      POP      {r1-r7,pc}
    $d
        0x000061c2:    0000        ..      DCW    0
        0x000061c4:    00000000    ....    DCD    0
        0x000061c8:    0000002d    -...    DCD    45
        0x000061cc:    0000002b    +...    DCD    43
        0x000061d0:    00000020     ...    DCD    32
    $t
    .text
    __printf
        0x000061d4:    b5f3        ..      PUSH     {r0,r1,r4-r7,lr}
        0x000061d6:    4604        .F      MOV      r4,r0
        0x000061d8:    2000        .       MOVS     r0,#0
        0x000061da:    b081        ..      SUB      sp,sp,#4
        0x000061dc:    6220         b      STR      r0,[r4,#0x20]
        0x000061de:    4620         F      MOV      r0,r4
        0x000061e0:    68e1        .h      LDR      r1,[r4,#0xc]
        0x000061e2:    4788        .G      BLX      r1
        0x000061e4:    2800        .(      CMP      r0,#0
        0x000061e6:    d072        r.      BEQ      0x62ce ; __printf + 250
        0x000061e8:    2825        %(      CMP      r0,#0x25
        0x000061ea:    d002        ..      BEQ      0x61f2 ; __printf + 30
        0x000061ec:    6862        bh      LDR      r2,[r4,#4]
        0x000061ee:    68a1        .h      LDR      r1,[r4,#8]
        0x000061f0:    e0ab        ..      B        0x634a ; __printf + 374
        0x000061f2:    4f59        YO      LDR      r7,[pc,#356] ; [0x6358] = 0x1842
        0x000061f4:    2600        .&      MOVS     r6,#0
        0x000061f6:    447f        .D      ADD      r7,r7,pc
        0x000061f8:    4620         F      MOV      r0,r4
        0x000061fa:    68e1        .h      LDR      r1,[r4,#0xc]
        0x000061fc:    4788        .G      BLX      r1
        0x000061fe:    2820         (      CMP      r0,#0x20
        0x00006200:    4605        .F      MOV      r5,r0
        0x00006202:    db08        ..      BLT      0x6216 ; __printf + 66
        0x00006204:    2d31        1-      CMP      r5,#0x31
        0x00006206:    d206        ..      BCS      0x6216 ; __printf + 66
        0x00006208:    1978        x.      ADDS     r0,r7,r5
        0x0000620a:    3820         8      SUBS     r0,r0,#0x20
        0x0000620c:    7800        .x      LDRB     r0,[r0,#0]
        0x0000620e:    2800        .(      CMP      r0,#0
        0x00006210:    d001        ..      BEQ      0x6216 ; __printf + 66
        0x00006212:    4306        .C      ORRS     r6,r6,r0
        0x00006214:    e7f0        ..      B        0x61f8 ; __printf + 36
        0x00006216:    07b0        ..      LSLS     r0,r6,#30
        0x00006218:    d501        ..      BPL      0x621e ; __printf + 74
        0x0000621a:    2004        .       MOVS     r0,#4
        0x0000621c:    4386        .C      BICS     r6,r6,r0
        0x0000621e:    2000        .       MOVS     r0,#0
        0x00006220:    61e0        .a      STR      r0,[r4,#0x1c]
        0x00006222:    4607        .F      MOV      r7,r0
        0x00006224:    61a0        .a      STR      r0,[r4,#0x18]
        0x00006226:    2d2a        *-      CMP      r5,#0x2a
        0x00006228:    d00a        ..      BEQ      0x6240 ; __printf + 108
        0x0000622a:    4628        (F      MOV      r0,r5
        0x0000622c:    f001faf6    ....    BL       _is_digit ; 0x781c
        0x00006230:    2800        .(      CMP      r0,#0
        0x00006232:    d027        '.      BEQ      0x6284 ; __printf + 176
        0x00006234:    3d30        0=      SUBS     r5,r5,#0x30
        0x00006236:    00b8        ..      LSLS     r0,r7,#2
        0x00006238:    1900        ..      ADDS     r0,r0,r4
        0x0000623a:    9000        ..      STR      r0,[sp,#0]
        0x0000623c:    6185        .a      STR      r5,[r0,#0x18]
        0x0000623e:    e019        ..      B        0x6274 ; __printf + 160
        0x00006240:    9802        ..      LDR      r0,[sp,#8]
        0x00006242:    00ba        ..      LSLS     r2,r7,#2
        0x00006244:    1912        ..      ADDS     r2,r2,r4
        0x00006246:    c802        ..      LDM      r0!,{r1}
        0x00006248:    6191        .a      STR      r1,[r2,#0x18]
        0x0000624a:    9002        ..      STR      r0,[sp,#8]
        0x0000624c:    4620         F      MOV      r0,r4
        0x0000624e:    68e1        .h      LDR      r1,[r4,#0xc]
        0x00006250:    4788        .G      BLX      r1
        0x00006252:    2f01        ./      CMP      r7,#1
        0x00006254:    4605        .F      MOV      r5,r0
        0x00006256:    d117        ..      BNE      0x6288 ; __printf + 180
        0x00006258:    69e0        .i      LDR      r0,[r4,#0x1c]
        0x0000625a:    2800        .(      CMP      r0,#0
        0x0000625c:    da1f        ..      BGE      0x629e ; __printf + 202
        0x0000625e:    2020                MOVS     r0,#0x20
        0x00006260:    4386        .C      BICS     r6,r6,r0
        0x00006262:    e01c        ..      B        0x629e ; __printf + 202
        0x00006264:    9800        ..      LDR      r0,[sp,#0]
        0x00006266:    210a        .!      MOVS     r1,#0xa
        0x00006268:    6980        .i      LDR      r0,[r0,#0x18]
        0x0000626a:    4348        HC      MULS     r0,r1,r0
        0x0000626c:    9900        ..      LDR      r1,[sp,#0]
        0x0000626e:    1940        @.      ADDS     r0,r0,r5
        0x00006270:    3830        08      SUBS     r0,r0,#0x30
        0x00006272:    6188        .a      STR      r0,[r1,#0x18]
        0x00006274:    4620         F      MOV      r0,r4
        0x00006276:    68e1        .h      LDR      r1,[r4,#0xc]
        0x00006278:    4788        .G      BLX      r1
        0x0000627a:    4605        .F      MOV      r5,r0
        0x0000627c:    f001face    ....    BL       _is_digit ; 0x781c
        0x00006280:    2800        .(      CMP      r0,#0
        0x00006282:    d1ef        ..      BNE      0x6264 ; __printf + 144
        0x00006284:    2f01        ./      CMP      r7,#1
        0x00006286:    d00a        ..      BEQ      0x629e ; __printf + 202
        0x00006288:    2d2e        .-      CMP      r5,#0x2e
        0x0000628a:    d108        ..      BNE      0x629e ; __printf + 202
        0x0000628c:    4620         F      MOV      r0,r4
        0x0000628e:    68e1        .h      LDR      r1,[r4,#0xc]
        0x00006290:    4788        .G      BLX      r1
        0x00006292:    4605        .F      MOV      r5,r0
        0x00006294:    2020                MOVS     r0,#0x20
        0x00006296:    4306        .C      ORRS     r6,r6,r0
        0x00006298:    1c7f        ..      ADDS     r7,r7,#1
        0x0000629a:    2f02        ./      CMP      r7,#2
        0x0000629c:    dbc3        ..      BLT      0x6226 ; __printf + 82
        0x0000629e:    69a0        .i      LDR      r0,[r4,#0x18]
        0x000062a0:    2800        .(      CMP      r0,#0
        0x000062a2:    da03        ..      BGE      0x62ac ; __printf + 216
        0x000062a4:    4240        @B      RSBS     r0,r0,#0
        0x000062a6:    61a0        .a      STR      r0,[r4,#0x18]
        0x000062a8:    2001        .       MOVS     r0,#1
        0x000062aa:    4306        .C      ORRS     r6,r6,r0
        0x000062ac:    07f0        ..      LSLS     r0,r6,#31
        0x000062ae:    d001        ..      BEQ      0x62b4 ; __printf + 224
        0x000062b0:    2010        .       MOVS     r0,#0x10
        0x000062b2:    4386        .C      BICS     r6,r6,r0
        0x000062b4:    2d6c        l-      CMP      r5,#0x6c
        0x000062b6:    d00b        ..      BEQ      0x62d0 ; __printf + 252
        0x000062b8:    2d68        h-      CMP      r5,#0x68
        0x000062ba:    d009        ..      BEQ      0x62d0 ; __printf + 252
        0x000062bc:    2d4c        L-      CMP      r5,#0x4c
        0x000062be:    d03c        <.      BEQ      0x633a ; __printf + 358
        0x000062c0:    2d6a        j-      CMP      r5,#0x6a
        0x000062c2:    d038        8.      BEQ      0x6336 ; __printf + 354
        0x000062c4:    2d74        t-      CMP      r5,#0x74
        0x000062c6:    d038        8.      BEQ      0x633a ; __printf + 358
        0x000062c8:    2d7a        z-      CMP      r5,#0x7a
        0x000062ca:    d036        6.      BEQ      0x633a ; __printf + 358
        0x000062cc:    e016        ..      B        0x62fc ; __printf + 296
        0x000062ce:    e040        @.      B        0x6352 ; __printf + 382
        0x000062d0:    68e1        .h      LDR      r1,[r4,#0xc]
        0x000062d2:    462f        /F      MOV      r7,r5
        0x000062d4:    4620         F      MOV      r0,r4
        0x000062d6:    4788        .G      BLX      r1
        0x000062d8:    42b8        .B      CMP      r0,r7
        0x000062da:    4605        .F      MOV      r5,r0
        0x000062dc:    d109        ..      BNE      0x62f2 ; __printf + 286
        0x000062de:    2f6c        l/      CMP      r7,#0x6c
        0x000062e0:    d029        ).      BEQ      0x6336 ; __printf + 354
        0x000062e2:    2001        .       MOVS     r0,#1
        0x000062e4:    0280        ..      LSLS     r0,r0,#10
        0x000062e6:    68e1        .h      LDR      r1,[r4,#0xc]
        0x000062e8:    4306        .C      ORRS     r6,r6,r0
        0x000062ea:    4620         F      MOV      r0,r4
        0x000062ec:    4788        .G      BLX      r1
        0x000062ee:    4605        .F      MOV      r5,r0
        0x000062f0:    e004        ..      B        0x62fc ; __printf + 296
        0x000062f2:    2f6c        l/      CMP      r7,#0x6c
        0x000062f4:    d01d        ..      BEQ      0x6332 ; __printf + 350
        0x000062f6:    20ff        .       MOVS     r0,#0xff
        0x000062f8:    3001        .0      ADDS     r0,#1
        0x000062fa:    4306        .C      ORRS     r6,r6,r0
        0x000062fc:    2d00        .-      CMP      r5,#0
        0x000062fe:    d028        (.      BEQ      0x6352 ; __printf + 382
        0x00006300:    4628        (F      MOV      r0,r5
        0x00006302:    3841        A8      SUBS     r0,r0,#0x41
        0x00006304:    2819        .(      CMP      r0,#0x19
        0x00006306:    d803        ..      BHI      0x6310 ; __printf + 316
        0x00006308:    2001        .       MOVS     r0,#1
        0x0000630a:    02c0        ..      LSLS     r0,r0,#11
        0x0000630c:    4306        .C      ORRS     r6,r6,r0
        0x0000630e:    3520         5      ADDS     r5,r5,#0x20
        0x00006310:    4620         F      MOV      r0,r4
        0x00006312:    6026        &`      STR      r6,[r4,#0]
        0x00006314:    4629        )F      MOV      r1,r5
        0x00006316:    9a02        ..      LDR      r2,[sp,#8]
        0x00006318:    4616        .F      MOV      r6,r2
        0x0000631a:    f7f9ff0f    ....    BL       _printf_percent ; 0x13c
        0x0000631e:    2800        .(      CMP      r0,#0
        0x00006320:    d010        ..      BEQ      0x6344 ; __printf + 368
        0x00006322:    2801        .(      CMP      r0,#1
        0x00006324:    d00b        ..      BEQ      0x633e ; __printf + 362
        0x00006326:    1df6        ..      ADDS     r6,r6,#7
        0x00006328:    08f0        ..      LSRS     r0,r6,#3
        0x0000632a:    00c0        ..      LSLS     r0,r0,#3
        0x0000632c:    3008        .0      ADDS     r0,r0,#8
        0x0000632e:    9002        ..      STR      r0,[sp,#8]
        0x00006330:    e755        U.      B        0x61de ; __printf + 10
        0x00006332:    2040        @       MOVS     r0,#0x40
        0x00006334:    e7e1        ..      B        0x62fa ; __printf + 294
        0x00006336:    2080        .       MOVS     r0,#0x80
        0x00006338:    e7d5        ..      B        0x62e6 ; __printf + 274
        0x0000633a:    2000        .       MOVS     r0,#0
        0x0000633c:    e7d3        ..      B        0x62e6 ; __printf + 274
        0x0000633e:    1d36        6.      ADDS     r6,r6,#4
        0x00006340:    9602        ..      STR      r6,[sp,#8]
        0x00006342:    e74c        L.      B        0x61de ; __printf + 10
        0x00006344:    6862        bh      LDR      r2,[r4,#4]
        0x00006346:    4628        (F      MOV      r0,r5
        0x00006348:    68a1        .h      LDR      r1,[r4,#8]
        0x0000634a:    4790        .G      BLX      r2
        0x0000634c:    6a20         j      LDR      r0,[r4,#0x20]
        0x0000634e:    1c40        @.      ADDS     r0,r0,#1
        0x00006350:    e744        D.      B        0x61dc ; __printf + 8
        0x00006352:    6a20         j      LDR      r0,[r4,#0x20]
        0x00006354:    bdfe        ..      POP      {r1-r7,pc}
    $d
        0x00006356:    0000        ..      DCW    0
        0x00006358:    00001842    B...    DCD    6210
    $t
    .text
    strchr
        0x0000635c:    1e40        @.      SUBS     r0,r0,#1
        0x0000635e:    b2ca        ..      UXTB     r2,r1
        0x00006360:    1c40        @.      ADDS     r0,r0,#1
        0x00006362:    7801        .x      LDRB     r1,[r0,#0]
        0x00006364:    428a        .B      CMP      r2,r1
        0x00006366:    d002        ..      BEQ      0x636e ; strchr + 18
        0x00006368:    2900        .)      CMP      r1,#0
        0x0000636a:    d1f9        ..      BNE      0x6360 ; strchr + 4
        0x0000636c:    2000        .       MOVS     r0,#0
        0x0000636e:    4770        pG      BX       lr
    .text
    strstr
        0x00006370:    b530        0.      PUSH     {r4,r5,lr}
        0x00006372:    4605        .F      MOV      r5,r0
        0x00006374:    460b        .F      MOV      r3,r1
        0x00006376:    462a        *F      MOV      r2,r5
        0x00006378:    781c        .x      LDRB     r4,[r3,#0]
        0x0000637a:    7810        .x      LDRB     r0,[r2,#0]
        0x0000637c:    1c52        R.      ADDS     r2,r2,#1
        0x0000637e:    1c5b        [.      ADDS     r3,r3,#1
        0x00006380:    2800        .(      CMP      r0,#0
        0x00006382:    d001        ..      BEQ      0x6388 ; strstr + 24
        0x00006384:    42a0        .B      CMP      r0,r4
        0x00006386:    d0f7        ..      BEQ      0x6378 ; strstr + 8
        0x00006388:    2c00        .,      CMP      r4,#0
        0x0000638a:    d003        ..      BEQ      0x6394 ; strstr + 36
        0x0000638c:    2800        .(      CMP      r0,#0
        0x0000638e:    d002        ..      BEQ      0x6396 ; strstr + 38
        0x00006390:    1c6d        m.      ADDS     r5,r5,#1
        0x00006392:    e7ef        ..      B        0x6374 ; strstr + 4
        0x00006394:    4628        (F      MOV      r0,r5
        0x00006396:    bd30        0.      POP      {r4,r5,pc}
    .text
    strcpy
        0x00006398:    4603        .F      MOV      r3,r0
        0x0000639a:    b570        p.      PUSH     {r4-r6,lr}
        0x0000639c:    4602        .F      MOV      r2,r0
        0x0000639e:    430b        .C      ORRS     r3,r3,r1
        0x000063a0:    079b        ..      LSLS     r3,r3,#30
        0x000063a2:    d10f        ..      BNE      0x63c4 ; strcpy + 44
        0x000063a4:    4c0e        .L      LDR      r4,[pc,#56] ; [0x63e0] = 0x1010101
        0x000063a6:    01e6        ..      LSLS     r6,r4,#7
        0x000063a8:    e000        ..      B        0x63ac ; strcpy + 20
        0x000063aa:    c208        ..      STM      r2!,{r3}
        0x000063ac:    c908        ..      LDM      r1!,{r3}
        0x000063ae:    1b1d        ..      SUBS     r5,r3,r4
        0x000063b0:    439d        .C      BICS     r5,r5,r3
        0x000063b2:    4235        5B      TST      r5,r6
        0x000063b4:    d0f9        ..      BEQ      0x63aa ; strcpy + 18
        0x000063b6:    b2d9        ..      UXTB     r1,r3
        0x000063b8:    7011        .p      STRB     r1,[r2,#0]
        0x000063ba:    1c52        R.      ADDS     r2,r2,#1
        0x000063bc:    2900        .)      CMP      r1,#0
        0x000063be:    d00d        ..      BEQ      0x63dc ; strcpy + 68
        0x000063c0:    0a1b        ..      LSRS     r3,r3,#8
        0x000063c2:    e7f8        ..      B        0x63b6 ; strcpy + 30
        0x000063c4:    780b        .x      LDRB     r3,[r1,#0]
        0x000063c6:    1c49        I.      ADDS     r1,r1,#1
        0x000063c8:    7013        .p      STRB     r3,[r2,#0]
        0x000063ca:    1c52        R.      ADDS     r2,r2,#1
        0x000063cc:    2b00        .+      CMP      r3,#0
        0x000063ce:    d005        ..      BEQ      0x63dc ; strcpy + 68
        0x000063d0:    780b        .x      LDRB     r3,[r1,#0]
        0x000063d2:    1c49        I.      ADDS     r1,r1,#1
        0x000063d4:    7013        .p      STRB     r3,[r2,#0]
        0x000063d6:    1c52        R.      ADDS     r2,r2,#1
        0x000063d8:    2b00        .+      CMP      r3,#0
        0x000063da:    d1f3        ..      BNE      0x63c4 ; strcpy + 44
        0x000063dc:    bd70        p.      POP      {r4-r6,pc}
    $d
        0x000063de:    0000        ..      DCW    0
        0x000063e0:    01010101    ....    DCD    16843009
    $t
    .text
    strlen
        0x000063e4:    b530        0.      PUSH     {r4,r5,lr}
        0x000063e6:    1c44        D.      ADDS     r4,r0,#1
        0x000063e8:    e003        ..      B        0x63f2 ; strlen + 14
        0x000063ea:    7801        .x      LDRB     r1,[r0,#0]
        0x000063ec:    1c40        @.      ADDS     r0,r0,#1
        0x000063ee:    2900        .)      CMP      r1,#0
        0x000063f0:    d00d        ..      BEQ      0x640e ; strlen + 42
        0x000063f2:    0781        ..      LSLS     r1,r0,#30
        0x000063f4:    d1f9        ..      BNE      0x63ea ; strlen + 6
        0x000063f6:    4b0b        .K      LDR      r3,[pc,#44] ; [0x6424] = 0x1010101
        0x000063f8:    01dd        ..      LSLS     r5,r3,#7
        0x000063fa:    c804        ..      LDM      r0!,{r2}
        0x000063fc:    1ad1        ..      SUBS     r1,r2,r3
        0x000063fe:    4391        .C      BICS     r1,r1,r2
        0x00006400:    4029        )@      ANDS     r1,r1,r5
        0x00006402:    d0fa        ..      BEQ      0x63fa ; strlen + 22
        0x00006404:    1b00        ..      SUBS     r0,r0,r4
        0x00006406:    060a        ..      LSLS     r2,r1,#24
        0x00006408:    d003        ..      BEQ      0x6412 ; strlen + 46
        0x0000640a:    1ec0        ..      SUBS     r0,r0,#3
        0x0000640c:    bd30        0.      POP      {r4,r5,pc}
        0x0000640e:    1b00        ..      SUBS     r0,r0,r4
        0x00006410:    bd30        0.      POP      {r4,r5,pc}
        0x00006412:    040a        ..      LSLS     r2,r1,#16
        0x00006414:    d001        ..      BEQ      0x641a ; strlen + 54
        0x00006416:    1e80        ..      SUBS     r0,r0,#2
        0x00006418:    bd30        0.      POP      {r4,r5,pc}
        0x0000641a:    0209        ..      LSLS     r1,r1,#8
        0x0000641c:    d0fc        ..      BEQ      0x6418 ; strlen + 52
        0x0000641e:    1e40        @.      SUBS     r0,r0,#1
        0x00006420:    bd30        0.      POP      {r4,r5,pc}
    $d
        0x00006422:    0000        ..      DCW    0
        0x00006424:    01010101    ....    DCD    16843009
    $t
    .text
    strncmp
        0x00006428:    4603        .F      MOV      r3,r0
        0x0000642a:    b5f0        ..      PUSH     {r4-r7,lr}
        0x0000642c:    430b        .C      ORRS     r3,r3,r1
        0x0000642e:    079b        ..      LSLS     r3,r3,#30
        0x00006430:    d12d        -.      BNE      0x648e ; strncmp + 102
        0x00006432:    4d24        $M      LDR      r5,[pc,#144] ; [0x64c4] = 0x1010101
        0x00006434:    01ef        ..      LSLS     r7,r5,#7
        0x00006436:    2a04        .*      CMP      r2,#4
        0x00006438:    d329        ).      BCC      0x648e ; strncmp + 102
        0x0000643a:    c808        ..      LDM      r0!,{r3}
        0x0000643c:    c910        ..      LDM      r1!,{r4}
        0x0000643e:    1f12        ..      SUBS     r2,r2,#4
        0x00006440:    1b5e        ^.      SUBS     r6,r3,r5
        0x00006442:    439e        .C      BICS     r6,r6,r3
        0x00006444:    403e        >@      ANDS     r6,r6,r7
        0x00006446:    d017        ..      BEQ      0x6478 ; strncmp + 80
        0x00006448:    b2d8        ..      UXTB     r0,r3
        0x0000644a:    b2e1        ..      UXTB     r1,r4
        0x0000644c:    1a40        @.      SUBS     r0,r0,r1
        0x0000644e:    0631        1.      LSLS     r1,r6,#24
        0x00006450:    4301        .C      ORRS     r1,r1,r0
        0x00006452:    d110        ..      BNE      0x6476 ; strncmp + 78
        0x00006454:    b298        ..      UXTH     r0,r3
        0x00006456:    b2a1        ..      UXTH     r1,r4
        0x00006458:    1a40        @.      SUBS     r0,r0,r1
        0x0000645a:    0431        1.      LSLS     r1,r6,#16
        0x0000645c:    4301        .C      ORRS     r1,r1,r0
        0x0000645e:    d10a        ..      BNE      0x6476 ; strncmp + 78
        0x00006460:    0218        ..      LSLS     r0,r3,#8
        0x00006462:    0221        !.      LSLS     r1,r4,#8
        0x00006464:    0a00        ..      LSRS     r0,r0,#8
        0x00006466:    0a09        ..      LSRS     r1,r1,#8
        0x00006468:    1a40        @.      SUBS     r0,r0,r1
        0x0000646a:    0231        1.      LSLS     r1,r6,#8
        0x0000646c:    4301        .C      ORRS     r1,r1,r0
        0x0000646e:    d102        ..      BNE      0x6476 ; strncmp + 78
        0x00006470:    0e18        ..      LSRS     r0,r3,#24
        0x00006472:    0e21        !.      LSRS     r1,r4,#24
        0x00006474:    1a40        @.      SUBS     r0,r0,r1
        0x00006476:    bdf0        ..      POP      {r4-r7,pc}
        0x00006478:    42a3        .B      CMP      r3,r4
        0x0000647a:    d0dc        ..      BEQ      0x6436 ; strncmp + 14
        0x0000647c:    ba18        ..      REV      r0,r3
        0x0000647e:    ba21        !.      REV      r1,r4
        0x00006480:    4288        .B      CMP      r0,r1
        0x00006482:    d901        ..      BLS      0x6488 ; strncmp + 96
        0x00006484:    2001        .       MOVS     r0,#1
        0x00006486:    bdf0        ..      POP      {r4-r7,pc}
        0x00006488:    2000        .       MOVS     r0,#0
        0x0000648a:    43c0        .C      MVNS     r0,r0
        0x0000648c:    bdf0        ..      POP      {r4-r7,pc}
        0x0000648e:    2a00        .*      CMP      r2,#0
        0x00006490:    d101        ..      BNE      0x6496 ; strncmp + 110
        0x00006492:    2000        .       MOVS     r0,#0
        0x00006494:    bdf0        ..      POP      {r4-r7,pc}
        0x00006496:    7803        .x      LDRB     r3,[r0,#0]
        0x00006498:    780c        .x      LDRB     r4,[r1,#0]
        0x0000649a:    1c40        @.      ADDS     r0,r0,#1
        0x0000649c:    1c49        I.      ADDS     r1,r1,#1
        0x0000649e:    2b00        .+      CMP      r3,#0
        0x000064a0:    d00d        ..      BEQ      0x64be ; strncmp + 150
        0x000064a2:    42a3        .B      CMP      r3,r4
        0x000064a4:    d10b        ..      BNE      0x64be ; strncmp + 150
        0x000064a6:    1e52        R.      SUBS     r2,r2,#1
        0x000064a8:    d009        ..      BEQ      0x64be ; strncmp + 150
        0x000064aa:    7803        .x      LDRB     r3,[r0,#0]
        0x000064ac:    780c        .x      LDRB     r4,[r1,#0]
        0x000064ae:    1c40        @.      ADDS     r0,r0,#1
        0x000064b0:    1c49        I.      ADDS     r1,r1,#1
        0x000064b2:    2b00        .+      CMP      r3,#0
        0x000064b4:    d003        ..      BEQ      0x64be ; strncmp + 150
        0x000064b6:    42a3        .B      CMP      r3,r4
        0x000064b8:    d101        ..      BNE      0x64be ; strncmp + 150
        0x000064ba:    1e52        R.      SUBS     r2,r2,#1
        0x000064bc:    d1eb        ..      BNE      0x6496 ; strncmp + 110
        0x000064be:    1b18        ..      SUBS     r0,r3,r4
        0x000064c0:    bdf0        ..      POP      {r4-r7,pc}
    $d
        0x000064c2:    0000        ..      DCW    0
        0x000064c4:    01010101    ....    DCD    16843009
    $t
    .text
    strcat
        0x000064c8:    1e42        B.      SUBS     r2,r0,#1
        0x000064ca:    1c52        R.      ADDS     r2,r2,#1
        0x000064cc:    7813        .x      LDRB     r3,[r2,#0]
        0x000064ce:    2b00        .+      CMP      r3,#0
        0x000064d0:    d1fb        ..      BNE      0x64ca ; strcat + 2
        0x000064d2:    780b        .x      LDRB     r3,[r1,#0]
        0x000064d4:    1c49        I.      ADDS     r1,r1,#1
        0x000064d6:    7013        .p      STRB     r3,[r2,#0]
        0x000064d8:    1c52        R.      ADDS     r2,r2,#1
        0x000064da:    2b00        .+      CMP      r3,#0
        0x000064dc:    d1f9        ..      BNE      0x64d2 ; strcat + 10
        0x000064de:    4770        pG      BX       lr
    .text
    __aeabi_memcpy
    __rt_memcpy
        0x000064e0:    b5f8        ..      PUSH     {r3-r7,lr}
        0x000064e2:    2a04        .*      CMP      r2,#4
        0x000064e4:    d32c        ,.      BCC      0x6540 ; __aeabi_memcpy + 96
        0x000064e6:    0783        ..      LSLS     r3,r0,#30
        0x000064e8:    d012        ..      BEQ      0x6510 ; __aeabi_memcpy + 48
        0x000064ea:    780b        .x      LDRB     r3,[r1,#0]
        0x000064ec:    1c49        I.      ADDS     r1,r1,#1
        0x000064ee:    7003        .p      STRB     r3,[r0,#0]
        0x000064f0:    1c40        @.      ADDS     r0,r0,#1
        0x000064f2:    1e52        R.      SUBS     r2,r2,#1
        0x000064f4:    0783        ..      LSLS     r3,r0,#30
        0x000064f6:    d00b        ..      BEQ      0x6510 ; __aeabi_memcpy + 48
        0x000064f8:    780b        .x      LDRB     r3,[r1,#0]
        0x000064fa:    1c49        I.      ADDS     r1,r1,#1
        0x000064fc:    7003        .p      STRB     r3,[r0,#0]
        0x000064fe:    1c40        @.      ADDS     r0,r0,#1
        0x00006500:    1e52        R.      SUBS     r2,r2,#1
        0x00006502:    0783        ..      LSLS     r3,r0,#30
        0x00006504:    d004        ..      BEQ      0x6510 ; __aeabi_memcpy + 48
        0x00006506:    780b        .x      LDRB     r3,[r1,#0]
        0x00006508:    1c49        I.      ADDS     r1,r1,#1
        0x0000650a:    7003        .p      STRB     r3,[r0,#0]
        0x0000650c:    1c40        @.      ADDS     r0,r0,#1
        0x0000650e:    1e52        R.      SUBS     r2,r2,#1
        0x00006510:    078b        ..      LSLS     r3,r1,#30
        0x00006512:    0f9b        ..      LSRS     r3,r3,#30
        0x00006514:    d005        ..      BEQ      0x6522 ; __aeabi_memcpy + 66
        0x00006516:    1ac9        ..      SUBS     r1,r1,r3
        0x00006518:    00df        ..      LSLS     r7,r3,#3
        0x0000651a:    2320         #      MOVS     r3,#0x20
        0x0000651c:    1bde        ..      SUBS     r6,r3,r7
        0x0000651e:    c908        ..      LDM      r1!,{r3}
        0x00006520:    e00a        ..      B        0x6538 ; __aeabi_memcpy + 88
        0x00006522:    f7f9fe9f    ....    BL       __aeabi_memcpy4 ; 0x264
        0x00006526:    bdf8        ..      POP      {r3-r7,pc}
        0x00006528:    461d        .F      MOV      r5,r3
        0x0000652a:    c908        ..      LDM      r1!,{r3}
        0x0000652c:    40fd        .@      LSRS     r5,r5,r7
        0x0000652e:    461c        .F      MOV      r4,r3
        0x00006530:    40b4        .@      LSLS     r4,r4,r6
        0x00006532:    432c        ,C      ORRS     r4,r4,r5
        0x00006534:    c010        ..      STM      r0!,{r4}
        0x00006536:    1f12        ..      SUBS     r2,r2,#4
        0x00006538:    2a04        .*      CMP      r2,#4
        0x0000653a:    d2f5        ..      BCS      0x6528 ; __aeabi_memcpy + 72
        0x0000653c:    08f3        ..      LSRS     r3,r6,#3
        0x0000653e:    1ac9        ..      SUBS     r1,r1,r3
        0x00006540:    1e52        R.      SUBS     r2,r2,#1
        0x00006542:    d4f0        ..      BMI      0x6526 ; __aeabi_memcpy + 70
        0x00006544:    780b        .x      LDRB     r3,[r1,#0]
        0x00006546:    1c49        I.      ADDS     r1,r1,#1
        0x00006548:    7003        .p      STRB     r3,[r0,#0]
        0x0000654a:    1c40        @.      ADDS     r0,r0,#1
        0x0000654c:    1e52        R.      SUBS     r2,r2,#1
        0x0000654e:    d4ea        ..      BMI      0x6526 ; __aeabi_memcpy + 70
        0x00006550:    780b        .x      LDRB     r3,[r1,#0]
        0x00006552:    1c49        I.      ADDS     r1,r1,#1
        0x00006554:    7003        .p      STRB     r3,[r0,#0]
        0x00006556:    1c40        @.      ADDS     r0,r0,#1
        0x00006558:    1e52        R.      SUBS     r2,r2,#1
        0x0000655a:    d4e4        ..      BMI      0x6526 ; __aeabi_memcpy + 70
        0x0000655c:    7809        .x      LDRB     r1,[r1,#0]
        0x0000655e:    7001        .p      STRB     r1,[r0,#0]
        0x00006560:    bdf8        ..      POP      {r3-r7,pc}
    .text
    __aeabi_memset
        0x00006562:    b2d2        ..      UXTB     r2,r2
        0x00006564:    b510        ..      PUSH     {r4,lr}
        0x00006566:    0213        ..      LSLS     r3,r2,#8
        0x00006568:    189a        ..      ADDS     r2,r3,r2
        0x0000656a:    0413        ..      LSLS     r3,r2,#16
        0x0000656c:    189a        ..      ADDS     r2,r3,r2
        0x0000656e:    f000f80e    ....    BL       _memset ; 0x658e
        0x00006572:    bd10        ..      POP      {r4,pc}
    .text
    _memset_w
        0x00006574:    e001        ..      B        0x657a ; _memset_w + 6
        0x00006576:    c004        ..      STM      r0!,{r2}
        0x00006578:    1f09        ..      SUBS     r1,r1,#4
        0x0000657a:    2904        .)      CMP      r1,#4
        0x0000657c:    d2fb        ..      BCS      0x6576 ; _memset_w + 2
        0x0000657e:    078b        ..      LSLS     r3,r1,#30
        0x00006580:    d501        ..      BPL      0x6586 ; _memset_w + 18
        0x00006582:    8002        ..      STRH     r2,[r0,#0]
        0x00006584:    1c80        ..      ADDS     r0,r0,#2
        0x00006586:    07c9        ..      LSLS     r1,r1,#31
        0x00006588:    d000        ..      BEQ      0x658c ; _memset_w + 24
        0x0000658a:    7002        .p      STRB     r2,[r0,#0]
        0x0000658c:    4770        pG      BX       lr
    _memset
        0x0000658e:    2900        .)      CMP      r1,#0
        0x00006590:    d00b        ..      BEQ      0x65aa ; _memset + 28
        0x00006592:    07c3        ..      LSLS     r3,r0,#31
        0x00006594:    d002        ..      BEQ      0x659c ; _memset + 14
        0x00006596:    7002        .p      STRB     r2,[r0,#0]
        0x00006598:    1c40        @.      ADDS     r0,r0,#1
        0x0000659a:    1e49        I.      SUBS     r1,r1,#1
        0x0000659c:    2902        .)      CMP      r1,#2
        0x0000659e:    d304        ..      BCC      0x65aa ; _memset + 28
        0x000065a0:    0783        ..      LSLS     r3,r0,#30
        0x000065a2:    d502        ..      BPL      0x65aa ; _memset + 28
        0x000065a4:    8002        ..      STRH     r2,[r0,#0]
        0x000065a6:    1c80        ..      ADDS     r0,r0,#2
        0x000065a8:    1e89        ..      SUBS     r1,r1,#2
        0x000065aa:    e7e3        ..      B        _memset_w ; 0x6574
    __aeabi_memclr
    __rt_memclr
        0x000065ac:    2200        ."      MOVS     r2,#0
        0x000065ae:    e7ee        ..      B        _memset ; 0x658e
    __aeabi_memclr4
    __aeabi_memclr8
    __rt_memclr_w
        0x000065b0:    2200        ."      MOVS     r2,#0
        0x000065b2:    e7df        ..      B        _memset_w ; 0x6574
    .text
    strncpy
        0x000065b4:    b5f8        ..      PUSH     {r3-r7,lr}
        0x000065b6:    4607        .F      MOV      r7,r0
        0x000065b8:    460b        .F      MOV      r3,r1
        0x000065ba:    4639        9F      MOV      r1,r7
        0x000065bc:    4319        .C      ORRS     r1,r1,r3
        0x000065be:    0789        ..      LSLS     r1,r1,#30
        0x000065c0:    d113        ..      BNE      0x65ea ; strncpy + 54
        0x000065c2:    4c16        .L      LDR      r4,[pc,#88] ; [0x661c] = 0x1010101
        0x000065c4:    01e6        ..      LSLS     r6,r4,#7
        0x000065c6:    2a04        .*      CMP      r2,#4
        0x000065c8:    d30f        ..      BCC      0x65ea ; strncpy + 54
        0x000065ca:    cb02        ..      LDM      r3!,{r1}
        0x000065cc:    1b0d        ..      SUBS     r5,r1,r4
        0x000065ce:    438d        .C      BICS     r5,r5,r1
        0x000065d0:    4235        5B      TST      r5,r6
        0x000065d2:    d102        ..      BNE      0x65da ; strncpy + 38
        0x000065d4:    c002        ..      STM      r0!,{r1}
        0x000065d6:    1f12        ..      SUBS     r2,r2,#4
        0x000065d8:    e7f5        ..      B        0x65c6 ; strncpy + 18
        0x000065da:    b2cb        ..      UXTB     r3,r1
        0x000065dc:    7003        .p      STRB     r3,[r0,#0]
        0x000065de:    1e52        R.      SUBS     r2,r2,#1
        0x000065e0:    1c40        @.      ADDS     r0,r0,#1
        0x000065e2:    2b00        .+      CMP      r3,#0
        0x000065e4:    d013        ..      BEQ      0x660e ; strncpy + 90
        0x000065e6:    0a09        ..      LSRS     r1,r1,#8
        0x000065e8:    e7f7        ..      B        0x65da ; strncpy + 38
        0x000065ea:    2a00        .*      CMP      r2,#0
        0x000065ec:    d014        ..      BEQ      0x6618 ; strncpy + 100
        0x000065ee:    7819        .x      LDRB     r1,[r3,#0]
        0x000065f0:    1e52        R.      SUBS     r2,r2,#1
        0x000065f2:    1c5b        [.      ADDS     r3,r3,#1
        0x000065f4:    7001        .p      STRB     r1,[r0,#0]
        0x000065f6:    1c40        @.      ADDS     r0,r0,#1
        0x000065f8:    2900        .)      CMP      r1,#0
        0x000065fa:    d008        ..      BEQ      0x660e ; strncpy + 90
        0x000065fc:    2a00        .*      CMP      r2,#0
        0x000065fe:    d00b        ..      BEQ      0x6618 ; strncpy + 100
        0x00006600:    7819        .x      LDRB     r1,[r3,#0]
        0x00006602:    1e52        R.      SUBS     r2,r2,#1
        0x00006604:    1c5b        [.      ADDS     r3,r3,#1
        0x00006606:    7001        .p      STRB     r1,[r0,#0]
        0x00006608:    1c40        @.      ADDS     r0,r0,#1
        0x0000660a:    2900        .)      CMP      r1,#0
        0x0000660c:    d1ed        ..      BNE      0x65ea ; strncpy + 54
        0x0000660e:    2a00        .*      CMP      r2,#0
        0x00006610:    d002        ..      BEQ      0x6618 ; strncpy + 100
        0x00006612:    4611        .F      MOV      r1,r2
        0x00006614:    f7ffffca    ....    BL       __aeabi_memclr ; 0x65ac
        0x00006618:    4638        8F      MOV      r0,r7
        0x0000661a:    bdf8        ..      POP      {r3-r7,pc}
    $d
        0x0000661c:    01010101    ....    DCD    16843009
    $t
    .text
    __aeabi_uidiv
    __aeabi_uidivmod
        0x00006620:    2200        ."      MOVS     r2,#0
        0x00006622:    0903        ..      LSRS     r3,r0,#4
        0x00006624:    428b        .B      CMP      r3,r1
        0x00006626:    d32c        ,.      BCC      0x6682 ; __aeabi_idiv + 78
        0x00006628:    0a03        ..      LSRS     r3,r0,#8
        0x0000662a:    428b        .B      CMP      r3,r1
        0x0000662c:    d311        ..      BCC      0x6652 ; __aeabi_idiv + 30
        0x0000662e:    2300        .#      MOVS     r3,#0
        0x00006630:    469c        .F      MOV      r12,r3
        0x00006632:    e04e        N.      B        0x66d2 ; __aeabi_idiv + 158
    __aeabi_idiv
    __aeabi_idivmod
        0x00006634:    4603        .F      MOV      r3,r0
        0x00006636:    430b        .C      ORRS     r3,r3,r1
        0x00006638:    d43c        <.      BMI      0x66b4 ; __aeabi_idiv + 128
        0x0000663a:    2200        ."      MOVS     r2,#0
        0x0000663c:    0843        C.      LSRS     r3,r0,#1
        0x0000663e:    428b        .B      CMP      r3,r1
        0x00006640:    d331        1.      BCC      0x66a6 ; __aeabi_idiv + 114
        0x00006642:    0903        ..      LSRS     r3,r0,#4
        0x00006644:    428b        .B      CMP      r3,r1
        0x00006646:    d31c        ..      BCC      0x6682 ; __aeabi_idiv + 78
        0x00006648:    0a03        ..      LSRS     r3,r0,#8
        0x0000664a:    428b        .B      CMP      r3,r1
        0x0000664c:    d301        ..      BCC      0x6652 ; __aeabi_idiv + 30
        0x0000664e:    4694        .F      MOV      r12,r2
        0x00006650:    e03f        ?.      B        0x66d2 ; __aeabi_idiv + 158
        0x00006652:    09c3        ..      LSRS     r3,r0,#7
        0x00006654:    428b        .B      CMP      r3,r1
        0x00006656:    d301        ..      BCC      0x665c ; __aeabi_idiv + 40
        0x00006658:    01cb        ..      LSLS     r3,r1,#7
        0x0000665a:    1ac0        ..      SUBS     r0,r0,r3
        0x0000665c:    4152        RA      ADCS     r2,r2,r2
        0x0000665e:    0983        ..      LSRS     r3,r0,#6
        0x00006660:    428b        .B      CMP      r3,r1
        0x00006662:    d301        ..      BCC      0x6668 ; __aeabi_idiv + 52
        0x00006664:    018b        ..      LSLS     r3,r1,#6
        0x00006666:    1ac0        ..      SUBS     r0,r0,r3
        0x00006668:    4152        RA      ADCS     r2,r2,r2
        0x0000666a:    0943        C.      LSRS     r3,r0,#5
        0x0000666c:    428b        .B      CMP      r3,r1
        0x0000666e:    d301        ..      BCC      0x6674 ; __aeabi_idiv + 64
        0x00006670:    014b        K.      LSLS     r3,r1,#5
        0x00006672:    1ac0        ..      SUBS     r0,r0,r3
        0x00006674:    4152        RA      ADCS     r2,r2,r2
        0x00006676:    0903        ..      LSRS     r3,r0,#4
        0x00006678:    428b        .B      CMP      r3,r1
        0x0000667a:    d301        ..      BCC      0x6680 ; __aeabi_idiv + 76
        0x0000667c:    010b        ..      LSLS     r3,r1,#4
        0x0000667e:    1ac0        ..      SUBS     r0,r0,r3
        0x00006680:    4152        RA      ADCS     r2,r2,r2
        0x00006682:    08c3        ..      LSRS     r3,r0,#3
        0x00006684:    428b        .B      CMP      r3,r1
        0x00006686:    d301        ..      BCC      0x668c ; __aeabi_idiv + 88
        0x00006688:    00cb        ..      LSLS     r3,r1,#3
        0x0000668a:    1ac0        ..      SUBS     r0,r0,r3
        0x0000668c:    4152        RA      ADCS     r2,r2,r2
        0x0000668e:    0883        ..      LSRS     r3,r0,#2
        0x00006690:    428b        .B      CMP      r3,r1
        0x00006692:    d301        ..      BCC      0x6698 ; __aeabi_idiv + 100
        0x00006694:    008b        ..      LSLS     r3,r1,#2
        0x00006696:    1ac0        ..      SUBS     r0,r0,r3
        0x00006698:    4152        RA      ADCS     r2,r2,r2
        0x0000669a:    0843        C.      LSRS     r3,r0,#1
        0x0000669c:    428b        .B      CMP      r3,r1
        0x0000669e:    d301        ..      BCC      0x66a4 ; __aeabi_idiv + 112
        0x000066a0:    004b        K.      LSLS     r3,r1,#1
        0x000066a2:    1ac0        ..      SUBS     r0,r0,r3
        0x000066a4:    4152        RA      ADCS     r2,r2,r2
        0x000066a6:    1a41        A.      SUBS     r1,r0,r1
        0x000066a8:    d200        ..      BCS      0x66ac ; __aeabi_idiv + 120
        0x000066aa:    4601        .F      MOV      r1,r0
        0x000066ac:    4152        RA      ADCS     r2,r2,r2
        0x000066ae:    4610        .F      MOV      r0,r2
        0x000066b0:    4770        pG      BX       lr
        0x000066b2:    e05d        ].      B        0x6770 ; __aeabi_idiv + 316
        0x000066b4:    0fca        ..      LSRS     r2,r1,#31
        0x000066b6:    d000        ..      BEQ      0x66ba ; __aeabi_idiv + 134
        0x000066b8:    4249        IB      RSBS     r1,r1,#0
        0x000066ba:    1003        ..      ASRS     r3,r0,#32
        0x000066bc:    d300        ..      BCC      0x66c0 ; __aeabi_idiv + 140
        0x000066be:    4240        @B      RSBS     r0,r0,#0
        0x000066c0:    4053        S@      EORS     r3,r3,r2
        0x000066c2:    2200        ."      MOVS     r2,#0
        0x000066c4:    469c        .F      MOV      r12,r3
        0x000066c6:    0903        ..      LSRS     r3,r0,#4
        0x000066c8:    428b        .B      CMP      r3,r1
        0x000066ca:    d32d        -.      BCC      0x6728 ; __aeabi_idiv + 244
        0x000066cc:    0a03        ..      LSRS     r3,r0,#8
        0x000066ce:    428b        .B      CMP      r3,r1
        0x000066d0:    d312        ..      BCC      0x66f8 ; __aeabi_idiv + 196
        0x000066d2:    22fc        ."      MOVS     r2,#0xfc
        0x000066d4:    0189        ..      LSLS     r1,r1,#6
        0x000066d6:    ba12        ..      REV      r2,r2
        0x000066d8:    0a03        ..      LSRS     r3,r0,#8
        0x000066da:    428b        .B      CMP      r3,r1
        0x000066dc:    d30c        ..      BCC      0x66f8 ; __aeabi_idiv + 196
        0x000066de:    0189        ..      LSLS     r1,r1,#6
        0x000066e0:    1192        ..      ASRS     r2,r2,#6
        0x000066e2:    428b        .B      CMP      r3,r1
        0x000066e4:    d308        ..      BCC      0x66f8 ; __aeabi_idiv + 196
        0x000066e6:    0189        ..      LSLS     r1,r1,#6
        0x000066e8:    1192        ..      ASRS     r2,r2,#6
        0x000066ea:    428b        .B      CMP      r3,r1
        0x000066ec:    d304        ..      BCC      0x66f8 ; __aeabi_idiv + 196
        0x000066ee:    0189        ..      LSLS     r1,r1,#6
        0x000066f0:    d03a        :.      BEQ      0x6768 ; __aeabi_idiv + 308
        0x000066f2:    1192        ..      ASRS     r2,r2,#6
        0x000066f4:    e000        ..      B        0x66f8 ; __aeabi_idiv + 196
        0x000066f6:    0989        ..      LSRS     r1,r1,#6
        0x000066f8:    09c3        ..      LSRS     r3,r0,#7
        0x000066fa:    428b        .B      CMP      r3,r1
        0x000066fc:    d301        ..      BCC      0x6702 ; __aeabi_idiv + 206
        0x000066fe:    01cb        ..      LSLS     r3,r1,#7
        0x00006700:    1ac0        ..      SUBS     r0,r0,r3
        0x00006702:    4152        RA      ADCS     r2,r2,r2
        0x00006704:    0983        ..      LSRS     r3,r0,#6
        0x00006706:    428b        .B      CMP      r3,r1
        0x00006708:    d301        ..      BCC      0x670e ; __aeabi_idiv + 218
        0x0000670a:    018b        ..      LSLS     r3,r1,#6
        0x0000670c:    1ac0        ..      SUBS     r0,r0,r3
        0x0000670e:    4152        RA      ADCS     r2,r2,r2
        0x00006710:    0943        C.      LSRS     r3,r0,#5
        0x00006712:    428b        .B      CMP      r3,r1
        0x00006714:    d301        ..      BCC      0x671a ; __aeabi_idiv + 230
        0x00006716:    014b        K.      LSLS     r3,r1,#5
        0x00006718:    1ac0        ..      SUBS     r0,r0,r3
        0x0000671a:    4152        RA      ADCS     r2,r2,r2
        0x0000671c:    0903        ..      LSRS     r3,r0,#4
        0x0000671e:    428b        .B      CMP      r3,r1
        0x00006720:    d301        ..      BCC      0x6726 ; __aeabi_idiv + 242
        0x00006722:    010b        ..      LSLS     r3,r1,#4
        0x00006724:    1ac0        ..      SUBS     r0,r0,r3
        0x00006726:    4152        RA      ADCS     r2,r2,r2
        0x00006728:    08c3        ..      LSRS     r3,r0,#3
        0x0000672a:    428b        .B      CMP      r3,r1
        0x0000672c:    d301        ..      BCC      0x6732 ; __aeabi_idiv + 254
        0x0000672e:    00cb        ..      LSLS     r3,r1,#3
        0x00006730:    1ac0        ..      SUBS     r0,r0,r3
        0x00006732:    4152        RA      ADCS     r2,r2,r2
        0x00006734:    0883        ..      LSRS     r3,r0,#2
        0x00006736:    428b        .B      CMP      r3,r1
        0x00006738:    d301        ..      BCC      0x673e ; __aeabi_idiv + 266
        0x0000673a:    008b        ..      LSLS     r3,r1,#2
        0x0000673c:    1ac0        ..      SUBS     r0,r0,r3
        0x0000673e:    4152        RA      ADCS     r2,r2,r2
        0x00006740:    d2d9        ..      BCS      0x66f6 ; __aeabi_idiv + 194
        0x00006742:    0843        C.      LSRS     r3,r0,#1
        0x00006744:    428b        .B      CMP      r3,r1
        0x00006746:    d301        ..      BCC      0x674c ; __aeabi_idiv + 280
        0x00006748:    004b        K.      LSLS     r3,r1,#1
        0x0000674a:    1ac0        ..      SUBS     r0,r0,r3
        0x0000674c:    4152        RA      ADCS     r2,r2,r2
        0x0000674e:    1a41        A.      SUBS     r1,r0,r1
        0x00006750:    d200        ..      BCS      0x6754 ; __aeabi_idiv + 288
        0x00006752:    4601        .F      MOV      r1,r0
        0x00006754:    4663        cF      MOV      r3,r12
        0x00006756:    4152        RA      ADCS     r2,r2,r2
        0x00006758:    105b        [.      ASRS     r3,r3,#1
        0x0000675a:    4610        .F      MOV      r0,r2
        0x0000675c:    d301        ..      BCC      0x6762 ; __aeabi_idiv + 302
        0x0000675e:    4240        @B      RSBS     r0,r0,#0
        0x00006760:    2b00        .+      CMP      r3,#0
        0x00006762:    d500        ..      BPL      0x6766 ; __aeabi_idiv + 306
        0x00006764:    4249        IB      RSBS     r1,r1,#0
        0x00006766:    4770        pG      BX       lr
        0x00006768:    4663        cF      MOV      r3,r12
        0x0000676a:    105b        [.      ASRS     r3,r3,#1
        0x0000676c:    d300        ..      BCC      0x6770 ; __aeabi_idiv + 316
        0x0000676e:    4240        @B      RSBS     r0,r0,#0
        0x00006770:    b501        ..      PUSH     {r0,lr}
        0x00006772:    2000        .       MOVS     r0,#0
        0x00006774:    46c0        .F      MOV      r8,r8
        0x00006776:    46c0        .F      MOV      r8,r8
        0x00006778:    bd02        ..      POP      {r1,pc}
    .text
    __use_two_region_memory
        0x0000677a:    4770        pG      BX       lr
    __rt_heap_escrow$2region
        0x0000677c:    4770        pG      BX       lr
    __rt_heap_expand$2region
        0x0000677e:    4770        pG      BX       lr
    .text
    _printf_truncate_signed
        0x00006780:    6809        .h      LDR      r1,[r1,#0]
        0x00006782:    054a        J.      LSLS     r2,r1,#21
        0x00006784:    d501        ..      BPL      0x678a ; _printf_truncate_signed + 10
        0x00006786:    b240        @.      SXTB     r0,r0
        0x00006788:    4770        pG      BX       lr
        0x0000678a:    05c9        ..      LSLS     r1,r1,#23
        0x0000678c:    d5fc        ..      BPL      0x6788 ; _printf_truncate_signed + 8
        0x0000678e:    b200        ..      SXTH     r0,r0
        0x00006790:    4770        pG      BX       lr
    _printf_truncate_unsigned
        0x00006792:    6809        .h      LDR      r1,[r1,#0]
        0x00006794:    054a        J.      LSLS     r2,r1,#21
        0x00006796:    d501        ..      BPL      0x679c ; _printf_truncate_unsigned + 10
        0x00006798:    b2c0        ..      UXTB     r0,r0
        0x0000679a:    4770        pG      BX       lr
        0x0000679c:    05c9        ..      LSLS     r1,r1,#23
        0x0000679e:    d5fc        ..      BPL      0x679a ; _printf_truncate_unsigned + 8
        0x000067a0:    b280        ..      UXTH     r0,r0
        0x000067a2:    4770        pG      BX       lr
    .text
    _printf_str
        0x000067a4:    b570        p.      PUSH     {r4-r6,lr}
        0x000067a6:    460c        .F      MOV      r4,r1
        0x000067a8:    4605        .F      MOV      r5,r0
        0x000067aa:    2a01        .*      CMP      r2,#1
        0x000067ac:    d005        ..      BEQ      0x67ba ; _printf_str + 22
        0x000067ae:    7828        (x      LDRB     r0,[r5,#0]
        0x000067b0:    0680        ..      LSLS     r0,r0,#26
        0x000067b2:    d500        ..      BPL      0x67b6 ; _printf_str + 18
        0x000067b4:    69ea        .i      LDR      r2,[r5,#0x1c]
        0x000067b6:    2300        .#      MOVS     r3,#0
        0x000067b8:    e002        ..      B        0x67c0 ; _printf_str + 28
        0x000067ba:    2301        .#      MOVS     r3,#1
        0x000067bc:    e005        ..      B        0x67ca ; _printf_str + 38
        0x000067be:    1c5b        [.      ADDS     r3,r3,#1
        0x000067c0:    4293        .B      CMP      r3,r2
        0x000067c2:    d202        ..      BCS      0x67ca ; _printf_str + 38
        0x000067c4:    5ce0        .\      LDRB     r0,[r4,r3]
        0x000067c6:    2800        .(      CMP      r0,#0
        0x000067c8:    d1f9        ..      BNE      0x67be ; _printf_str + 26
        0x000067ca:    69a8        .i      LDR      r0,[r5,#0x18]
        0x000067cc:    18e6        ..      ADDS     r6,r4,r3
        0x000067ce:    1ac0        ..      SUBS     r0,r0,r3
        0x000067d0:    61a8        .a      STR      r0,[r5,#0x18]
        0x000067d2:    6a28        (j      LDR      r0,[r5,#0x20]
        0x000067d4:    18c0        ..      ADDS     r0,r0,r3
        0x000067d6:    6228        (b      STR      r0,[r5,#0x20]
        0x000067d8:    4628        (F      MOV      r0,r5
        0x000067da:    f7fffc9d    ....    BL       _printf_pre_padding ; 0x6118
        0x000067de:    e004        ..      B        0x67ea ; _printf_str + 70
        0x000067e0:    686a        jh      LDR      r2,[r5,#4]
        0x000067e2:    7820         x      LDRB     r0,[r4,#0]
        0x000067e4:    68a9        .h      LDR      r1,[r5,#8]
        0x000067e6:    1c64        d.      ADDS     r4,r4,#1
        0x000067e8:    4790        .G      BLX      r2
        0x000067ea:    42b4        .B      CMP      r4,r6
        0x000067ec:    d3f8        ..      BCC      0x67e0 ; _printf_str + 60
        0x000067ee:    4628        (F      MOV      r0,r5
        0x000067f0:    f7fffca8    ....    BL       _printf_post_padding ; 0x6144
        0x000067f4:    bd70        p.      POP      {r4-r6,pc}
    .text
    _printf_int_common
        0x000067f6:    b5ff        ..      PUSH     {r0-r7,lr}
        0x000067f8:    4604        .F      MOV      r4,r0
        0x000067fa:    460d        .F      MOV      r5,r1
        0x000067fc:    b081        ..      SUB      sp,sp,#4
        0x000067fe:    3024        $0      ADDS     r0,r0,#0x24
        0x00006800:    9000        ..      STR      r0,[sp,#0]
        0x00006802:    6821        !h      LDR      r1,[r4,#0]
        0x00006804:    0688        ..      LSLS     r0,r1,#26
        0x00006806:    d504        ..      BPL      0x6812 ; _printf_int_common + 28
        0x00006808:    2210        ."      MOVS     r2,#0x10
        0x0000680a:    69e0        .i      LDR      r0,[r4,#0x1c]
        0x0000680c:    4391        .C      BICS     r1,r1,r2
        0x0000680e:    6021        !`      STR      r1,[r4,#0]
        0x00006810:    e000        ..      B        0x6814 ; _printf_int_common + 30
        0x00006812:    2001        .       MOVS     r0,#1
        0x00006814:    42a8        .B      CMP      r0,r5
        0x00006816:    dd01        ..      BLE      0x681c ; _printf_int_common + 38
        0x00006818:    1b47        G.      SUBS     r7,r0,r5
        0x0000681a:    e000        ..      B        0x681e ; _printf_int_common + 40
        0x0000681c:    2700        .'      MOVS     r7,#0
        0x0000681e:    9804        ..      LDR      r0,[sp,#0x10]
        0x00006820:    69a1        .i      LDR      r1,[r4,#0x18]
        0x00006822:    197a        z.      ADDS     r2,r7,r5
        0x00006824:    1810        ..      ADDS     r0,r2,r0
        0x00006826:    1a08        ..      SUBS     r0,r1,r0
        0x00006828:    61a0        .a      STR      r0,[r4,#0x18]
        0x0000682a:    7820         x      LDRB     r0,[r4,#0]
        0x0000682c:    06c0        ..      LSLS     r0,r0,#27
        0x0000682e:    d402        ..      BMI      0x6836 ; _printf_int_common + 64
        0x00006830:    4620         F      MOV      r0,r4
        0x00006832:    f7fffc71    ..q.    BL       _printf_pre_padding ; 0x6118
        0x00006836:    2600        .&      MOVS     r6,#0
        0x00006838:    e008        ..      B        0x684c ; _printf_int_common + 86
        0x0000683a:    9803        ..      LDR      r0,[sp,#0xc]
        0x0000683c:    6862        bh      LDR      r2,[r4,#4]
        0x0000683e:    68a1        .h      LDR      r1,[r4,#8]
        0x00006840:    5d80        .]      LDRB     r0,[r0,r6]
        0x00006842:    4790        .G      BLX      r2
        0x00006844:    6a20         j      LDR      r0,[r4,#0x20]
        0x00006846:    1c40        @.      ADDS     r0,r0,#1
        0x00006848:    1c76        v.      ADDS     r6,r6,#1
        0x0000684a:    6220         b      STR      r0,[r4,#0x20]
        0x0000684c:    9804        ..      LDR      r0,[sp,#0x10]
        0x0000684e:    4286        .B      CMP      r6,r0
        0x00006850:    dbf3        ..      BLT      0x683a ; _printf_int_common + 68
        0x00006852:    7820         x      LDRB     r0,[r4,#0]
        0x00006854:    06c0        ..      LSLS     r0,r0,#27
        0x00006856:    d50a        ..      BPL      0x686e ; _printf_int_common + 120
        0x00006858:    4620         F      MOV      r0,r4
        0x0000685a:    f7fffc5d    ..].    BL       _printf_pre_padding ; 0x6118
        0x0000685e:    e006        ..      B        0x686e ; _printf_int_common + 120
        0x00006860:    6862        bh      LDR      r2,[r4,#4]
        0x00006862:    68a1        .h      LDR      r1,[r4,#8]
        0x00006864:    2030        0       MOVS     r0,#0x30
        0x00006866:    4790        .G      BLX      r2
        0x00006868:    6a20         j      LDR      r0,[r4,#0x20]
        0x0000686a:    1c40        @.      ADDS     r0,r0,#1
        0x0000686c:    6220         b      STR      r0,[r4,#0x20]
        0x0000686e:    4638        8F      MOV      r0,r7
        0x00006870:    1e7f        ..      SUBS     r7,r7,#1
        0x00006872:    2800        .(      CMP      r0,#0
        0x00006874:    dcf4        ..      BGT      0x6860 ; _printf_int_common + 106
        0x00006876:    e007        ..      B        0x6888 ; _printf_int_common + 146
        0x00006878:    9800        ..      LDR      r0,[sp,#0]
        0x0000687a:    6862        bh      LDR      r2,[r4,#4]
        0x0000687c:    68a1        .h      LDR      r1,[r4,#8]
        0x0000687e:    5d40        @]      LDRB     r0,[r0,r5]
        0x00006880:    4790        .G      BLX      r2
        0x00006882:    6a20         j      LDR      r0,[r4,#0x20]
        0x00006884:    1c40        @.      ADDS     r0,r0,#1
        0x00006886:    6220         b      STR      r0,[r4,#0x20]
        0x00006888:    4628        (F      MOV      r0,r5
        0x0000688a:    1e6d        m.      SUBS     r5,r5,#1
        0x0000688c:    2800        .(      CMP      r0,#0
        0x0000688e:    dcf3        ..      BGT      0x6878 ; _printf_int_common + 130
        0x00006890:    4620         F      MOV      r0,r4
        0x00006892:    f7fffc57    ..W.    BL       _printf_post_padding ; 0x6144
        0x00006896:    7820         x      LDRB     r0,[r4,#0]
        0x00006898:    0600        ..      LSLS     r0,r0,#24
        0x0000689a:    d502        ..      BPL      0x68a2 ; _printf_int_common + 172
        0x0000689c:    2002        .       MOVS     r0,#2
        0x0000689e:    b005        ..      ADD      sp,sp,#0x14
        0x000068a0:    bdf0        ..      POP      {r4-r7,pc}
        0x000068a2:    2001        .       MOVS     r0,#1
        0x000068a4:    e7fb        ..      B        0x689e ; _printf_int_common + 168
    .text
    _printf_charcount
        0x000068a6:    6811        .h      LDR      r1,[r2,#0]
        0x000068a8:    6802        .h      LDR      r2,[r0,#0]
        0x000068aa:    6a00        .j      LDR      r0,[r0,#0x20]
        0x000068ac:    0553        S.      LSLS     r3,r2,#21
        0x000068ae:    d501        ..      BPL      0x68b4 ; _printf_charcount + 14
        0x000068b0:    7008        .p      STRB     r0,[r1,#0]
        0x000068b2:    e00a        ..      B        0x68ca ; _printf_charcount + 36
        0x000068b4:    05d3        ..      LSLS     r3,r2,#23
        0x000068b6:    d501        ..      BPL      0x68bc ; _printf_charcount + 22
        0x000068b8:    8008        ..      STRH     r0,[r1,#0]
        0x000068ba:    e006        ..      B        0x68ca ; _printf_charcount + 36
        0x000068bc:    0613        ..      LSLS     r3,r2,#24
        0x000068be:    d502        ..      BPL      0x68c6 ; _printf_charcount + 32
        0x000068c0:    17c2        ..      ASRS     r2,r0,#31
        0x000068c2:    c105        ..      STM      r1!,{r0,r2}
        0x000068c4:    e001        ..      B        0x68ca ; _printf_charcount + 36
        0x000068c6:    0652        R.      LSLS     r2,r2,#25
        0x000068c8:    6008        .`      STR      r0,[r1,#0]
        0x000068ca:    2001        .       MOVS     r0,#1
        0x000068cc:    4770        pG      BX       lr
        0x000068ce:    0000        ..      MOVS     r0,r0
    .text
    _printf_input_char
        0x000068d0:    6901        .i      LDR      r1,[r0,#0x10]
        0x000068d2:    1c4a        J.      ADDS     r2,r1,#1
        0x000068d4:    6102        .a      STR      r2,[r0,#0x10]
        0x000068d6:    7808        .x      LDRB     r0,[r1,#0]
        0x000068d8:    4770        pG      BX       lr
    _printf_char_common
        0x000068da:    b500        ..      PUSH     {lr}
        0x000068dc:    b08f        ..      SUB      sp,sp,#0x3c
        0x000068de:    9102        ..      STR      r1,[sp,#8]
        0x000068e0:    2100        .!      MOVS     r1,#0
        0x000068e2:    9105        ..      STR      r1,[sp,#0x14]
        0x000068e4:    4905        .I      LDR      r1,[pc,#20] ; [0x68fc] = 0xffffffe5
        0x000068e6:    9301        ..      STR      r3,[sp,#4]
        0x000068e8:    4479        yD      ADD      r1,r1,pc
        0x000068ea:    9103        ..      STR      r1,[sp,#0xc]
        0x000068ec:    4611        .F      MOV      r1,r2
        0x000068ee:    9004        ..      STR      r0,[sp,#0x10]
        0x000068f0:    4668        hF      MOV      r0,sp
        0x000068f2:    f7fffc6f    ..o.    BL       __printf ; 0x61d4
        0x000068f6:    b00f        ..      ADD      sp,sp,#0x3c
        0x000068f8:    bd00        ..      POP      {pc}
    $d
        0x000068fa:    0000        ..      DCW    0
        0x000068fc:    ffffffe5    ....    DCD    4294967269
    $t
    .text
    _sputc
        0x00006900:    680a        .h      LDR      r2,[r1,#0]
        0x00006902:    7010        .p      STRB     r0,[r2,#0]
        0x00006904:    1c52        R.      ADDS     r2,r2,#1
        0x00006906:    600a        .`      STR      r2,[r1,#0]
        0x00006908:    4770        pG      BX       lr
    .text
    _snputc
        0x0000690a:    684b        Kh      LDR      r3,[r1,#4]
        0x0000690c:    680a        .h      LDR      r2,[r1,#0]
        0x0000690e:    429a        .B      CMP      r2,r3
        0x00006910:    d202        ..      BCS      0x6918 ; _snputc + 14
        0x00006912:    1c53        S.      ADDS     r3,r2,#1
        0x00006914:    600b        .`      STR      r3,[r1,#0]
        0x00006916:    7010        .p      STRB     r0,[r2,#0]
        0x00006918:    4770        pG      BX       lr
        0x0000691a:    0000        ..      MOVS     r0,r0
    .text
    _printf_wctomb
        0x0000691c:    b5f7        ..      PUSH     {r0-r2,r4-r7,lr}
        0x0000691e:    4615        .F      MOV      r5,r2
        0x00006920:    4604        .F      MOV      r4,r0
        0x00006922:    b086        ..      SUB      sp,sp,#0x18
        0x00006924:    492b        +I      LDR      r1,[pc,#172] ; [0x69d4] = 0x1126
        0x00006926:    4479        yD      ADD      r1,r1,pc
        0x00006928:    2700        .'      MOVS     r7,#0
        0x0000692a:    c903        ..      LDM      r1,{r0,r1}
        0x0000692c:    463e        >F      MOV      r6,r7
        0x0000692e:    9000        ..      STR      r0,[sp,#0]
        0x00006930:    9101        ..      STR      r1,[sp,#4]
        0x00006932:    e011        ..      B        0x6958 ; _printf_wctomb + 60
        0x00006934:    9807        ..      LDR      r0,[sp,#0x1c]
        0x00006936:    466a        jF      MOV      r2,sp
        0x00006938:    0071        q.      LSLS     r1,r6,#1
        0x0000693a:    5a41        AZ      LDRH     r1,[r0,r1]
        0x0000693c:    a802        ..      ADD      r0,sp,#8
        0x0000693e:    f000fb91    ....    BL       _wcrtomb ; 0x7064
        0x00006942:    1c41        A.      ADDS     r1,r0,#1
        0x00006944:    d007        ..      BEQ      0x6956 ; _printf_wctomb + 58
        0x00006946:    7821        !x      LDRB     r1,[r4,#0]
        0x00006948:    0689        ..      LSLS     r1,r1,#26
        0x0000694a:    d503        ..      BPL      0x6954 ; _printf_wctomb + 56
        0x0000694c:    69e2        .i      LDR      r2,[r4,#0x1c]
        0x0000694e:    1839        9.      ADDS     r1,r7,r0
        0x00006950:    4291        .B      CMP      r1,r2
        0x00006952:    d80e        ..      BHI      0x6972 ; _printf_wctomb + 86
        0x00006954:    183f        ?.      ADDS     r7,r7,r0
        0x00006956:    1c76        v.      ADDS     r6,r6,#1
        0x00006958:    7820         x      LDRB     r0,[r4,#0]
        0x0000695a:    0680        ..      LSLS     r0,r0,#26
        0x0000695c:    d502        ..      BPL      0x6964 ; _printf_wctomb + 72
        0x0000695e:    69e0        .i      LDR      r0,[r4,#0x1c]
        0x00006960:    42b8        .B      CMP      r0,r7
        0x00006962:    dd06        ..      BLE      0x6972 ; _printf_wctomb + 86
        0x00006964:    42ae        .B      CMP      r6,r5
        0x00006966:    dbe5        ..      BLT      0x6934 ; _printf_wctomb + 24
        0x00006968:    9807        ..      LDR      r0,[sp,#0x1c]
        0x0000696a:    0071        q.      LSLS     r1,r6,#1
        0x0000696c:    5a40        @Z      LDRH     r0,[r0,r1]
        0x0000696e:    2800        .(      CMP      r0,#0
        0x00006970:    d1e0        ..      BNE      0x6934 ; _printf_wctomb + 24
        0x00006972:    69a0        .i      LDR      r0,[r4,#0x18]
        0x00006974:    1bc0        ..      SUBS     r0,r0,r7
        0x00006976:    61a0        .a      STR      r0,[r4,#0x18]
        0x00006978:    4620         F      MOV      r0,r4
        0x0000697a:    f7fffbcd    ....    BL       _printf_pre_padding ; 0x6118
        0x0000697e:    4915        .I      LDR      r1,[pc,#84] ; [0x69d4] = 0x1126
        0x00006980:    4479        yD      ADD      r1,r1,pc
        0x00006982:    395a        Z9      SUBS     r1,r1,#0x5a
        0x00006984:    c903        ..      LDM      r1,{r0,r1}
        0x00006986:    9000        ..      STR      r0,[sp,#0]
        0x00006988:    2000        .       MOVS     r0,#0
        0x0000698a:    9101        ..      STR      r1,[sp,#4]
        0x0000698c:    e016        ..      B        0x69bc ; _printf_wctomb + 160
        0x0000698e:    0041        A.      LSLS     r1,r0,#1
        0x00006990:    466a        jF      MOV      r2,sp
        0x00006992:    9807        ..      LDR      r0,[sp,#0x1c]
        0x00006994:    5a41        AZ      LDRH     r1,[r0,r1]
        0x00006996:    a802        ..      ADD      r0,sp,#8
        0x00006998:    f000fb64    ..d.    BL       _wcrtomb ; 0x7064
        0x0000699c:    9005        ..      STR      r0,[sp,#0x14]
        0x0000699e:    1c40        @.      ADDS     r0,r0,#1
        0x000069a0:    d00a        ..      BEQ      0x69b8 ; _printf_wctomb + 156
        0x000069a2:    2500        .%      MOVS     r5,#0
        0x000069a4:    e005        ..      B        0x69b2 ; _printf_wctomb + 150
        0x000069a6:    6862        bh      LDR      r2,[r4,#4]
        0x000069a8:    a802        ..      ADD      r0,sp,#8
        0x000069aa:    68a1        .h      LDR      r1,[r4,#8]
        0x000069ac:    5d40        @]      LDRB     r0,[r0,r5]
        0x000069ae:    4790        .G      BLX      r2
        0x000069b0:    1c6d        m.      ADDS     r5,r5,#1
        0x000069b2:    9805        ..      LDR      r0,[sp,#0x14]
        0x000069b4:    4285        .B      CMP      r5,r0
        0x000069b6:    d3f6        ..      BCC      0x69a6 ; _printf_wctomb + 138
        0x000069b8:    9804        ..      LDR      r0,[sp,#0x10]
        0x000069ba:    1c40        @.      ADDS     r0,r0,#1
        0x000069bc:    42b0        .B      CMP      r0,r6
        0x000069be:    9004        ..      STR      r0,[sp,#0x10]
        0x000069c0:    dbe5        ..      BLT      0x698e ; _printf_wctomb + 114
        0x000069c2:    6a20         j      LDR      r0,[r4,#0x20]
        0x000069c4:    19c0        ..      ADDS     r0,r0,r7
        0x000069c6:    6220         b      STR      r0,[r4,#0x20]
        0x000069c8:    4620         F      MOV      r0,r4
        0x000069ca:    f7fffbbb    ....    BL       _printf_post_padding ; 0x6144
        0x000069ce:    b009        ..      ADD      sp,sp,#0x24
        0x000069d0:    bdf0        ..      POP      {r4-r7,pc}
    $d
        0x000069d2:    0000        ..      DCW    0
        0x000069d4:    00001126    &...    DCD    4390
    $t
    .text
    _printf_longlong_dec
        0x000069d8:    b5f7        ..      PUSH     {r0-r2,r4-r7,lr}
        0x000069da:    1dd2        ..      ADDS     r2,r2,#7
        0x000069dc:    2500        .%      MOVS     r5,#0
        0x000069de:    08d2        ..      LSRS     r2,r2,#3
        0x000069e0:    a615        ..      ADR      r6,{pc}+0x58 ; 0x6a38
        0x000069e2:    00d2        ..      LSLS     r2,r2,#3
        0x000069e4:    29f5        .)      CMP      r1,#0xf5
        0x000069e6:    ca05        ..      LDM      r2,{r0,r2}
        0x000069e8:    d011        ..      BEQ      0x6a0e ; _printf_longlong_dec + 54
        0x000069ea:    2a00        .*      CMP      r2,#0
        0x000069ec:    da05        ..      BGE      0x69fa ; _printf_longlong_dec + 34
        0x000069ee:    2100        .!      MOVS     r1,#0
        0x000069f0:    4240        @B      RSBS     r0,r0,#0
        0x000069f2:    4191        .A      SBCS     r1,r1,r2
        0x000069f4:    a611        ..      ADR      r6,{pc}+0x48 ; 0x6a3c
        0x000069f6:    460a        .F      MOV      r2,r1
        0x000069f8:    e008        ..      B        0x6a0c ; _printf_longlong_dec + 52
        0x000069fa:    9900        ..      LDR      r1,[sp,#0]
        0x000069fc:    6809        .h      LDR      r1,[r1,#0]
        0x000069fe:    078b        ..      LSLS     r3,r1,#30
        0x00006a00:    d501        ..      BPL      0x6a06 ; _printf_longlong_dec + 46
        0x00006a02:    a60f        ..      ADR      r6,{pc}+0x3e ; 0x6a40
        0x00006a04:    e002        ..      B        0x6a0c ; _printf_longlong_dec + 52
        0x00006a06:    0749        I.      LSLS     r1,r1,#29
        0x00006a08:    d501        ..      BPL      0x6a0e ; _printf_longlong_dec + 54
        0x00006a0a:    a60e        ..      ADR      r6,{pc}+0x3a ; 0x6a44
        0x00006a0c:    2501        .%      MOVS     r5,#1
        0x00006a0e:    4611        .F      MOV      r1,r2
        0x00006a10:    9f00        ..      LDR      r7,[sp,#0]
        0x00006a12:    2400        .$      MOVS     r4,#0
        0x00006a14:    3724        $7      ADDS     r7,r7,#0x24
        0x00006a16:    e004        ..      B        0x6a22 ; _printf_longlong_dec + 74
        0x00006a18:    f000f8ae    ....    BL       _ll_udiv10 ; 0x6b78
        0x00006a1c:    3230        02      ADDS     r2,r2,#0x30
        0x00006a1e:    553a        :U      STRB     r2,[r7,r4]
        0x00006a20:    1c64        d.      ADDS     r4,r4,#1
        0x00006a22:    4602        .F      MOV      r2,r0
        0x00006a24:    430a        .C      ORRS     r2,r2,r1
        0x00006a26:    d1f7        ..      BNE      0x6a18 ; _printf_longlong_dec + 64
        0x00006a28:    462b        +F      MOV      r3,r5
        0x00006a2a:    4632        2F      MOV      r2,r6
        0x00006a2c:    4621        !F      MOV      r1,r4
        0x00006a2e:    9800        ..      LDR      r0,[sp,#0]
        0x00006a30:    f7fffee1    ....    BL       _printf_int_common ; 0x67f6
        0x00006a34:    bdfe        ..      POP      {r1-r7,pc}
    $d
        0x00006a36:    0000        ..      DCW    0
        0x00006a38:    00000000    ....    DCD    0
        0x00006a3c:    0000002d    -...    DCD    45
        0x00006a40:    0000002b    +...    DCD    43
        0x00006a44:    00000020     ...    DCD    32
    $t
    .text
    _printf_longlong_oct_internal
    _printf_longlong_oct
        0x00006a48:    b570        p.      PUSH     {r4-r6,lr}
        0x00006a4a:    4604        .F      MOV      r4,r0
        0x00006a4c:    2100        .!      MOVS     r1,#0
        0x00006a4e:    3424        $4      ADDS     r4,r4,#0x24
        0x00006a50:    e008        ..      B        0x6a64 ; _printf_longlong_oct_internal + 28
        0x00006a52:    0755        U.      LSLS     r5,r2,#29
        0x00006a54:    08d2        ..      LSRS     r2,r2,#3
        0x00006a56:    0f6d        m.      LSRS     r5,r5,#29
        0x00006a58:    3530        05      ADDS     r5,r5,#0x30
        0x00006a5a:    5465        eT      STRB     r5,[r4,r1]
        0x00006a5c:    075d        ].      LSLS     r5,r3,#29
        0x00006a5e:    1c49        I.      ADDS     r1,r1,#1
        0x00006a60:    432a        *C      ORRS     r2,r2,r5
        0x00006a62:    08db        ..      LSRS     r3,r3,#3
        0x00006a64:    4615        .F      MOV      r5,r2
        0x00006a66:    431d        .C      ORRS     r5,r5,r3
        0x00006a68:    d1f3        ..      BNE      0x6a52 ; _printf_longlong_oct_internal + 10
        0x00006a6a:    6804        .h      LDR      r4,[r0,#0]
        0x00006a6c:    2300        .#      MOVS     r3,#0
        0x00006a6e:    a210        ..      ADR      r2,{pc}+0x42 ; 0x6ab0
        0x00006a70:    0725        %.      LSLS     r5,r4,#28
        0x00006a72:    d508        ..      BPL      0x6a86 ; _printf_longlong_oct_internal + 62
        0x00006a74:    2520         %      MOVS     r5,#0x20
        0x00006a76:    402c        ,@      ANDS     r4,r4,r5
        0x00006a78:    430c        .C      ORRS     r4,r4,r1
        0x00006a7a:    d004        ..      BEQ      0x6a86 ; _printf_longlong_oct_internal + 62
        0x00006a7c:    69c4        .i      LDR      r4,[r0,#0x1c]
        0x00006a7e:    2301        .#      MOVS     r3,#1
        0x00006a80:    a20c        ..      ADR      r2,{pc}+0x34 ; 0x6ab4
        0x00006a82:    1e64        d.      SUBS     r4,r4,#1
        0x00006a84:    61c4        .a      STR      r4,[r0,#0x1c]
        0x00006a86:    f7fffeb6    ....    BL       _printf_int_common ; 0x67f6
        0x00006a8a:    bd70        p.      POP      {r4-r6,pc}
    _printf_int_oct
        0x00006a8c:    b510        ..      PUSH     {r4,lr}
        0x00006a8e:    4604        .F      MOV      r4,r0
        0x00006a90:    4621        !F      MOV      r1,r4
        0x00006a92:    6810        .h      LDR      r0,[r2,#0]
        0x00006a94:    f7fffe7d    ..}.    BL       _printf_truncate_unsigned ; 0x6792
        0x00006a98:    2300        .#      MOVS     r3,#0
        0x00006a9a:    4602        .F      MOV      r2,r0
        0x00006a9c:    4620         F      MOV      r0,r4
        0x00006a9e:    f7ffffd3    ....    BL       _printf_longlong_oct_internal ; 0x6a48
        0x00006aa2:    bd10        ..      POP      {r4,pc}
    _printf_ll_oct
        0x00006aa4:    1dd2        ..      ADDS     r2,r2,#7
        0x00006aa6:    08d1        ..      LSRS     r1,r2,#3
        0x00006aa8:    00c9        ..      LSLS     r1,r1,#3
        0x00006aaa:    c90c        ..      LDM      r1!,{r2,r3}
        0x00006aac:    e7cc        ..      B        _printf_longlong_oct_internal ; 0x6a48
    $d
        0x00006aae:    0000        ..      DCW    0
        0x00006ab0:    00000000    ....    DCD    0
        0x00006ab4:    00000030    0...    DCD    48
    $t
    .text
    _printf_hex_common
    _printf_longlong_hex
        0x00006ab8:    b5f8        ..      PUSH     {r3-r7,lr}
        0x00006aba:    460f        .F      MOV      r7,r1
        0x00006abc:    8801        ..      LDRH     r1,[r0,#0]
        0x00006abe:    0509        ..      LSLS     r1,r1,#20
        0x00006ac0:    d502        ..      BPL      0x6ac8 ; _printf_hex_common + 16
        0x00006ac2:    4c22        "L      LDR      r4,[pc,#136] ; [0x6b4c] = 0xf90
        0x00006ac4:    447c        |D      ADD      r4,r4,pc
        0x00006ac6:    e002        ..      B        0x6ace ; _printf_hex_common + 22
        0x00006ac8:    4c20         L      LDR      r4,[pc,#128] ; [0x6b4c] = 0xf90
        0x00006aca:    447c        |D      ADD      r4,r4,pc
        0x00006acc:    340e        .4      ADDS     r4,r4,#0xe
        0x00006ace:    4605        .F      MOV      r5,r0
        0x00006ad0:    2100        .!      MOVS     r1,#0
        0x00006ad2:    3524        $5      ADDS     r5,r5,#0x24
        0x00006ad4:    e008        ..      B        0x6ae8 ; _printf_hex_common + 48
        0x00006ad6:    0716        ..      LSLS     r6,r2,#28
        0x00006ad8:    0912        ..      LSRS     r2,r2,#4
        0x00006ada:    0f36        6.      LSRS     r6,r6,#28
        0x00006adc:    5da6        .]      LDRB     r6,[r4,r6]
        0x00006ade:    546e        nT      STRB     r6,[r5,r1]
        0x00006ae0:    071e        ..      LSLS     r6,r3,#28
        0x00006ae2:    1c49        I.      ADDS     r1,r1,#1
        0x00006ae4:    4332        2C      ORRS     r2,r2,r6
        0x00006ae6:    091b        ..      LSRS     r3,r3,#4
        0x00006ae8:    4616        .F      MOV      r6,r2
        0x00006aea:    431e        .C      ORRS     r6,r6,r3
        0x00006aec:    d1f3        ..      BNE      0x6ad6 ; _printf_hex_common + 30
        0x00006aee:    4622        "F      MOV      r2,r4
        0x00006af0:    7804        .x      LDRB     r4,[r0,#0]
        0x00006af2:    2300        .#      MOVS     r3,#0
        0x00006af4:    0724        $.      LSLS     r4,r4,#28
        0x00006af6:    d505        ..      BPL      0x6b04 ; _printf_hex_common + 76
        0x00006af8:    2f70        p/      CMP      r7,#0x70
        0x00006afa:    d006        ..      BEQ      0x6b0a ; _printf_hex_common + 82
        0x00006afc:    2900        .)      CMP      r1,#0
        0x00006afe:    d001        ..      BEQ      0x6b04 ; _printf_hex_common + 76
        0x00006b00:    3211        .2      ADDS     r2,r2,#0x11
        0x00006b02:    2302        .#      MOVS     r3,#2
        0x00006b04:    f7fffe77    ..w.    BL       _printf_int_common ; 0x67f6
        0x00006b08:    bdf8        ..      POP      {r3-r7,pc}
        0x00006b0a:    3210        .2      ADDS     r2,r2,#0x10
        0x00006b0c:    2301        .#      MOVS     r3,#1
        0x00006b0e:    e7f9        ..      B        0x6b04 ; _printf_hex_common + 76
    _printf_int_hex
        0x00006b10:    b570        p.      PUSH     {r4-r6,lr}
        0x00006b12:    4604        .F      MOV      r4,r0
        0x00006b14:    460d        .F      MOV      r5,r1
        0x00006b16:    4621        !F      MOV      r1,r4
        0x00006b18:    6810        .h      LDR      r0,[r2,#0]
        0x00006b1a:    f7fffe3a    ..:.    BL       _printf_truncate_unsigned ; 0x6792
        0x00006b1e:    2300        .#      MOVS     r3,#0
        0x00006b20:    4602        .F      MOV      r2,r0
        0x00006b22:    4629        )F      MOV      r1,r5
        0x00006b24:    4620         F      MOV      r0,r4
        0x00006b26:    f7ffffc7    ....    BL       _printf_hex_common ; 0x6ab8
        0x00006b2a:    bd70        p.      POP      {r4-r6,pc}
    _printf_ll_hex
        0x00006b2c:    1dd2        ..      ADDS     r2,r2,#7
        0x00006b2e:    08d3        ..      LSRS     r3,r2,#3
        0x00006b30:    00db        ..      LSLS     r3,r3,#3
        0x00006b32:    cb0c        ..      LDM      r3,{r2,r3}
        0x00006b34:    e7c0        ..      B        _printf_hex_common ; 0x6ab8
    _printf_hex_ptr
        0x00006b36:    b430        0.      PUSH     {r4,r5}
        0x00006b38:    6803        .h      LDR      r3,[r0,#0]
        0x00006b3a:    2420         $      MOVS     r4,#0x20
        0x00006b3c:    6812        .h      LDR      r2,[r2,#0]
        0x00006b3e:    4323        #C      ORRS     r3,r3,r4
        0x00006b40:    6003        .`      STR      r3,[r0,#0]
        0x00006b42:    2308        .#      MOVS     r3,#8
        0x00006b44:    61c3        .a      STR      r3,[r0,#0x1c]
        0x00006b46:    bc30        0.      POP      {r4,r5}
        0x00006b48:    2300        .#      MOVS     r3,#0
        0x00006b4a:    e7b5        ..      B        _printf_hex_common ; 0x6ab8
    $d
        0x00006b4c:    00000f90    ....    DCD    3984
    $t
    .text
    __rt_udiv10
        0x00006b50:    4601        .F      MOV      r1,r0
        0x00006b52:    0880        ..      LSRS     r0,r0,#2
        0x00006b54:    1a08        ..      SUBS     r0,r1,r0
        0x00006b56:    0902        ..      LSRS     r2,r0,#4
        0x00006b58:    1810        ..      ADDS     r0,r2,r0
        0x00006b5a:    0a02        ..      LSRS     r2,r0,#8
        0x00006b5c:    1810        ..      ADDS     r0,r2,r0
        0x00006b5e:    0c02        ..      LSRS     r2,r0,#16
        0x00006b60:    1810        ..      ADDS     r0,r2,r0
        0x00006b62:    08c0        ..      LSRS     r0,r0,#3
        0x00006b64:    0082        ..      LSLS     r2,r0,#2
        0x00006b66:    1812        ..      ADDS     r2,r2,r0
        0x00006b68:    0052        R.      LSLS     r2,r2,#1
        0x00006b6a:    1a89        ..      SUBS     r1,r1,r2
        0x00006b6c:    e001        ..      B        0x6b72 ; __rt_udiv10 + 34
        0x00006b6e:    390a        .9      SUBS     r1,r1,#0xa
        0x00006b70:    1c40        @.      ADDS     r0,r0,#1
        0x00006b72:    290a        .)      CMP      r1,#0xa
        0x00006b74:    d2fb        ..      BCS      0x6b6e ; __rt_udiv10 + 30
        0x00006b76:    4770        pG      BX       lr
    .text
    _ll_udiv10
        0x00006b78:    460b        .F      MOV      r3,r1
        0x00006b7a:    b570        p.      PUSH     {r4-r6,lr}
        0x00006b7c:    4602        .F      MOV      r2,r0
        0x00006b7e:    0789        ..      LSLS     r1,r1,#30
        0x00006b80:    0880        ..      LSRS     r0,r0,#2
        0x00006b82:    4308        .C      ORRS     r0,r0,r1
        0x00006b84:    4619        .F      MOV      r1,r3
        0x00006b86:    089d        ..      LSRS     r5,r3,#2
        0x00006b88:    1a14        ..      SUBS     r4,r2,r0
        0x00006b8a:    41a9        .A      SBCS     r1,r1,r5
        0x00006b8c:    0925        %.      LSRS     r5,r4,#4
        0x00006b8e:    0708        ..      LSLS     r0,r1,#28
        0x00006b90:    4305        .C      ORRS     r5,r5,r0
        0x00006b92:    0908        ..      LSRS     r0,r1,#4
        0x00006b94:    192c        ,.      ADDS     r4,r5,r4
        0x00006b96:    4148        HA      ADCS     r0,r0,r1
        0x00006b98:    0a25        %.      LSRS     r5,r4,#8
        0x00006b9a:    0601        ..      LSLS     r1,r0,#24
        0x00006b9c:    430d        .C      ORRS     r5,r5,r1
        0x00006b9e:    0a01        ..      LSRS     r1,r0,#8
        0x00006ba0:    192c        ,.      ADDS     r4,r5,r4
        0x00006ba2:    4141        AA      ADCS     r1,r1,r0
        0x00006ba4:    0c20         .      LSRS     r0,r4,#16
        0x00006ba6:    040d        ..      LSLS     r5,r1,#16
        0x00006ba8:    4328        (C      ORRS     r0,r0,r5
        0x00006baa:    0c0d        ..      LSRS     r5,r1,#16
        0x00006bac:    1900        ..      ADDS     r0,r0,r4
        0x00006bae:    414d        MA      ADCS     r5,r5,r1
        0x00006bb0:    2100        .!      MOVS     r1,#0
        0x00006bb2:    1940        @.      ADDS     r0,r0,r5
        0x00006bb4:    414d        MA      ADCS     r5,r5,r1
        0x00006bb6:    08c0        ..      LSRS     r0,r0,#3
        0x00006bb8:    0769        i.      LSLS     r1,r5,#29
        0x00006bba:    4308        .C      ORRS     r0,r0,r1
        0x00006bbc:    08e9        ..      LSRS     r1,r5,#3
        0x00006bbe:    0f84        ..      LSRS     r4,r0,#30
        0x00006bc0:    008d        ..      LSLS     r5,r1,#2
        0x00006bc2:    4325        %C      ORRS     r5,r5,r4
        0x00006bc4:    0084        ..      LSLS     r4,r0,#2
        0x00006bc6:    1824        $.      ADDS     r4,r4,r0
        0x00006bc8:    414d        MA      ADCS     r5,r5,r1
        0x00006bca:    1924        $.      ADDS     r4,r4,r4
        0x00006bcc:    416d        mA      ADCS     r5,r5,r5
        0x00006bce:    1b12        ..      SUBS     r2,r2,r4
        0x00006bd0:    41ab        .A      SBCS     r3,r3,r5
        0x00006bd2:    e007        ..      B        0x6be4 ; _ll_udiv10 + 108
        0x00006bd4:    2509        .%      MOVS     r5,#9
        0x00006bd6:    43ed        .C      MVNS     r5,r5
        0x00006bd8:    112c        ,.      ASRS     r4,r5,#4
        0x00006bda:    1952        R.      ADDS     r2,r2,r5
        0x00006bdc:    4163        cA      ADCS     r3,r3,r4
        0x00006bde:    2400        .$      MOVS     r4,#0
        0x00006be0:    1c40        @.      ADDS     r0,r0,#1
        0x00006be2:    4161        aA      ADCS     r1,r1,r4
        0x00006be4:    461c        .F      MOV      r4,r3
        0x00006be6:    250a        .%      MOVS     r5,#0xa
        0x00006be8:    2600        .&      MOVS     r6,#0
        0x00006bea:    1b55        U.      SUBS     r5,r2,r5
        0x00006bec:    41b4        .A      SBCS     r4,r4,r6
        0x00006bee:    d2f1        ..      BCS      0x6bd4 ; _ll_udiv10 + 92
        0x00006bf0:    bd70        p.      POP      {r4-r6,pc}
        0x00006bf2:    0000        ..      MOVS     r0,r0
    .text
    __lib_sel_fp_printf
        0x00006bf4:    4770        pG      BX       lr
    _fp_digits
        0x00006bf6:    b5ff        ..      PUSH     {r0-r7,lr}
        0x00006bf8:    460c        .F      MOV      r4,r1
        0x00006bfa:    461e        .F      MOV      r6,r3
        0x00006bfc:    b08f        ..      SUB      sp,sp,#0x3c
        0x00006bfe:    ca03        ..      LDM      r2!,{r0,r1}
        0x00006c00:    9008        ..      STR      r0,[sp,#0x20]
        0x00006c02:    9109        ..      STR      r1,[sp,#0x24]
        0x00006c04:    004f        O.      LSLS     r7,r1,#1
        0x00006c06:    0d7d        }.      LSRS     r5,r7,#21
        0x00006c08:    d100        ..      BNE      0x6c0c ; _fp_digits + 22
        0x00006c0a:    1e6d        m.      SUBS     r5,r5,#1
        0x00006c0c:    2100        .!      MOVS     r1,#0
        0x00006c0e:    4608        .F      MOV      r0,r1
        0x00006c10:    2000        .       MOVS     r0,#0
        0x00006c12:    46c0        .F      MOV      r8,r8
        0x00006c14:    2103        .!      MOVS     r1,#3
        0x00006c16:    9a09        ..      LDR      r2,[sp,#0x24]
        0x00006c18:    0589        ..      LSLS     r1,r1,#22
        0x00006c1a:    4008        .@      ANDS     r0,r0,r1
        0x00006c1c:    2a00        .*      CMP      r2,#0
        0x00006c1e:    da03        ..      BGE      0x6c28 ; _fp_digits + 50
        0x00006c20:    0082        ..      LSLS     r2,r0,#2
        0x00006c22:    1880        ..      ADDS     r0,r0,r2
        0x00006c24:    0840        @.      LSRS     r0,r0,#1
        0x00006c26:    4008        .@      ANDS     r0,r0,r1
        0x00006c28:    0d80        ..      LSRS     r0,r0,#22
        0x00006c2a:    2801        .(      CMP      r0,#1
        0x00006c2c:    900a        ..      STR      r0,[sp,#0x28]
        0x00006c2e:    dd02        ..      BLE      0x6c36 ; _fp_digits + 64
        0x00006c30:    2000        .       MOVS     r0,#0
        0x00006c32:    43c0        .C      MVNS     r0,r0
        0x00006c34:    900a        ..      STR      r0,[sp,#0x28]
        0x00006c36:    9808        ..      LDR      r0,[sp,#0x20]
        0x00006c38:    4307        .C      ORRS     r7,r7,r0
        0x00006c3a:    d00d        ..      BEQ      0x6c58 ; _fp_digits + 98
        0x00006c3c:    48ef        .H      LDR      r0,[pc,#956] ; [0x6ffc] = 0xfffffc01
        0x00006c3e:    49f0        .I      LDR      r1,[pc,#960] ; [0x7000] = 0x4d10
        0x00006c40:    1828        (.      ADDS     r0,r5,r0
        0x00006c42:    4348        HC      MULS     r0,r1,r0
        0x00006c44:    1407        ..      ASRS     r7,r0,#16
        0x00006c46:    9818        ..      LDR      r0,[sp,#0x60]
        0x00006c48:    2800        .(      CMP      r0,#0
        0x00006c4a:    d01d        ..      BEQ      0x6c88 ; _fp_digits + 146
        0x00006c4c:    4275        uB      RSBS     r5,r6,#0
        0x00006c4e:    1e29        ).      SUBS     r1,r5,#0
        0x00006c50:    dd1d        ..      BLE      0x6c8e ; _fp_digits + 152
        0x00006c52:    980a        ..      LDR      r0,[sp,#0x28]
        0x00006c54:    4242        BB      RSBS     r2,r0,#0
        0x00006c56:    e01b        ..      B        0x6c90 ; _fp_digits + 154
        0x00006c58:    9818        ..      LDR      r0,[sp,#0x60]
        0x00006c5a:    2801        .(      CMP      r0,#1
        0x00006c5c:    d002        ..      BEQ      0x6c64 ; _fp_digits + 110
        0x00006c5e:    2000        .       MOVS     r0,#0
        0x00006c60:    2130        0!      MOVS     r1,#0x30
        0x00006c62:    e004        ..      B        0x6c6e ; _fp_digits + 120
        0x00006c64:    2000        .       MOVS     r0,#0
        0x00006c66:    43f2        .C      MVNS     r2,r6
        0x00006c68:    e005        ..      B        0x6c76 ; _fp_digits + 128
        0x00006c6a:    5421        !T      STRB     r1,[r4,r0]
        0x00006c6c:    1c40        @.      ADDS     r0,r0,#1
        0x00006c6e:    42b0        .B      CMP      r0,r6
        0x00006c70:    dbfb        ..      BLT      0x6c6a ; _fp_digits + 116
        0x00006c72:    4630        0F      MOV      r0,r6
        0x00006c74:    2200        ."      MOVS     r2,#0
        0x00006c76:    9b18        ..      LDR      r3,[sp,#0x60]
        0x00006c78:    2100        .!      MOVS     r1,#0
        0x00006c7a:    5421        !T      STRB     r1,[r4,r0]
        0x00006c7c:    990f        ..      LDR      r1,[sp,#0x3c]
        0x00006c7e:    608b        .`      STR      r3,[r1,#8]
        0x00006c80:    600a        .`      STR      r2,[r1,#0]
        0x00006c82:    6048        H`      STR      r0,[r1,#4]
        0x00006c84:    b013        ..      ADD      sp,sp,#0x4c
        0x00006c86:    bdf0        ..      POP      {r4-r7,pc}
        0x00006c88:    1bbd        ..      SUBS     r5,r7,r6
        0x00006c8a:    1c6d        m.      ADDS     r5,r5,#1
        0x00006c8c:    e7df        ..      B        0x6c4e ; _fp_digits + 88
        0x00006c8e:    9a0a        ..      LDR      r2,[sp,#0x28]
        0x00006c90:    2900        .)      CMP      r1,#0
        0x00006c92:    da00        ..      BGE      0x6c96 ; _fp_digits + 160
        0x00006c94:    4269        iB      RSBS     r1,r5,#0
        0x00006c96:    a80b        ..      ADD      r0,sp,#0x2c
        0x00006c98:    f000fa76    ..v.    BL       _btod_etento ; 0x7188
        0x00006c9c:    a80b        ..      ADD      r0,sp,#0x2c
        0x00006c9e:    ab03        ..      ADD      r3,sp,#0xc
        0x00006ca0:    c807        ..      LDM      r0,{r0-r2}
        0x00006ca2:    c307        ..      STM      r3!,{r0-r2}
        0x00006ca4:    9908        ..      LDR      r1,[sp,#0x20]
        0x00006ca6:    9809        ..      LDR      r0,[sp,#0x24]
        0x00006ca8:    f000fad4    ....    BL       _btod_d2e ; 0x7254
        0x00006cac:    9101        ..      STR      r1,[sp,#4]
        0x00006cae:    4601        .F      MOV      r1,r0
        0x00006cb0:    48d4        .H      LDR      r0,[pc,#848] ; [0x7004] = 0xffffdfe1
        0x00006cb2:    9202        ..      STR      r2,[sp,#8]
        0x00006cb4:    1809        ..      ADDS     r1,r1,r0
        0x00006cb6:    2d00        .-      CMP      r5,#0
        0x00006cb8:    9100        ..      STR      r1,[sp,#0]
        0x00006cba:    dd0a        ..      BLE      0x6cd2 ; _fp_digits + 220
        0x00006cbc:    49d1        .I      LDR      r1,[pc,#836] ; [0x7004] = 0xffffdfe1
        0x00006cbe:    9803        ..      LDR      r0,[sp,#0xc]
        0x00006cc0:    9a0a        ..      LDR      r2,[sp,#0x28]
        0x00006cc2:    4249        IB      RSBS     r1,r1,#0
        0x00006cc4:    1840        @.      ADDS     r0,r0,r1
        0x00006cc6:    a903        ..      ADD      r1,sp,#0xc
        0x00006cc8:    9003        ..      STR      r0,[sp,#0xc]
        0x00006cca:    4668        hF      MOV      r0,sp
        0x00006ccc:    f000fce7    ....    BL       _btod_ediv ; 0x769e
        0x00006cd0:    e007        ..      B        0x6ce2 ; _fp_digits + 236
        0x00006cd2:    9903        ..      LDR      r1,[sp,#0xc]
        0x00006cd4:    9a0a        ..      LDR      r2,[sp,#0x28]
        0x00006cd6:    1808        ..      ADDS     r0,r1,r0
        0x00006cd8:    a903        ..      ADD      r1,sp,#0xc
        0x00006cda:    9003        ..      STR      r0,[sp,#0xc]
        0x00006cdc:    4668        hF      MOV      r0,sp
        0x00006cde:    f000fcb4    ....    BL       _btod_emul ; 0x764a
        0x00006ce2:    9000        ..      STR      r0,[sp,#0]
        0x00006ce4:    0400        ..      LSLS     r0,r0,#16
        0x00006ce6:    9202        ..      STR      r2,[sp,#8]
        0x00006ce8:    0c00        ..      LSRS     r0,r0,#16
        0x00006cea:    9101        ..      STR      r1,[sp,#4]
        0x00006cec:    d003        ..      BEQ      0x6cf6 ; _fp_digits + 256
        0x00006cee:    2000        .       MOVS     r0,#0
        0x00006cf0:    43c0        .C      MVNS     r0,r0
        0x00006cf2:    0841        A.      LSRS     r1,r0,#1
        0x00006cf4:    e000        ..      B        0x6cf8 ; _fp_digits + 258
        0x00006cf6:    4610        .F      MOV      r0,r2
        0x00006cf8:    9a18        ..      LDR      r2,[sp,#0x60]
        0x00006cfa:    2a00        .*      CMP      r2,#0
        0x00006cfc:    d003        ..      BEQ      0x6d06 ; _fp_digits + 272
        0x00006cfe:    2200        ."      MOVS     r2,#0
        0x00006d00:    9200        ..      STR      r2,[sp,#0]
        0x00006d02:    4615        .F      MOV      r5,r2
        0x00006d04:    e01e        ..      B        0x6d44 ; _fp_digits + 334
        0x00006d06:    1e75        u.      SUBS     r5,r6,#1
        0x00006d08:    d405        ..      BMI      0x6d16 ; _fp_digits + 288
        0x00006d0a:    f7ffff35    ..5.    BL       _ll_udiv10 ; 0x6b78
        0x00006d0e:    3230        02      ADDS     r2,r2,#0x30
        0x00006d10:    5562        bU      STRB     r2,[r4,r5]
        0x00006d12:    1e6d        m.      SUBS     r5,r5,#1
        0x00006d14:    d5f9        ..      BPL      0x6d0a ; _fp_digits + 276
        0x00006d16:    2201        ."      MOVS     r2,#1
        0x00006d18:    4308        .C      ORRS     r0,r0,r1
        0x00006d1a:    9607        ..      STR      r6,[sp,#0x1c]
        0x00006d1c:    d002        ..      BEQ      0x6d24 ; _fp_digits + 302
        0x00006d1e:    2200        ."      MOVS     r2,#0
        0x00006d20:    1c7f        ..      ADDS     r7,r7,#1
        0x00006d22:    e004        ..      B        0x6d2e ; _fp_digits + 312
        0x00006d24:    7820         x      LDRB     r0,[r4,#0]
        0x00006d26:    2830        0(      CMP      r0,#0x30
        0x00006d28:    d101        ..      BNE      0x6d2e ; _fp_digits + 312
        0x00006d2a:    2200        ."      MOVS     r2,#0
        0x00006d2c:    1e7f        ..      SUBS     r7,r7,#1
        0x00006d2e:    2a00        .*      CMP      r2,#0
        0x00006d30:    9706        ..      STR      r7,[sp,#0x18]
        0x00006d32:    d088        ..      BEQ      0x6c46 ; _fp_digits + 80
        0x00006d34:    e01e        ..      B        0x6d74 ; _fp_digits + 382
        0x00006d36:    2d11        .-      CMP      r5,#0x11
        0x00006d38:    da07        ..      BGE      0x6d4a ; _fp_digits + 340
        0x00006d3a:    f7ffff1d    ....    BL       _ll_udiv10 ; 0x6b78
        0x00006d3e:    3230        02      ADDS     r2,r2,#0x30
        0x00006d40:    5562        bU      STRB     r2,[r4,r5]
        0x00006d42:    1c6d        m.      ADDS     r5,r5,#1
        0x00006d44:    4602        .F      MOV      r2,r0
        0x00006d46:    430a        .C      ORRS     r2,r2,r1
        0x00006d48:    d1f5        ..      BNE      0x6d36 ; _fp_digits + 320
        0x00006d4a:    4308        .C      ORRS     r0,r0,r1
        0x00006d4c:    d10f        ..      BNE      0x6d6e ; _fp_digits + 376
        0x00006d4e:    2100        .!      MOVS     r1,#0
        0x00006d50:    1e68        h.      SUBS     r0,r5,#1
        0x00006d52:    e005        ..      B        0x6d60 ; _fp_digits + 362
        0x00006d54:    5c23        #\      LDRB     r3,[r4,r0]
        0x00006d56:    5c62        b\      LDRB     r2,[r4,r1]
        0x00006d58:    5463        cT      STRB     r3,[r4,r1]
        0x00006d5a:    1c49        I.      ADDS     r1,r1,#1
        0x00006d5c:    5422        "T      STRB     r2,[r4,r0]
        0x00006d5e:    1e40        @.      SUBS     r0,r0,#1
        0x00006d60:    4281        .B      CMP      r1,r0
        0x00006d62:    dbf7        ..      BLT      0x6d54 ; _fp_digits + 350
        0x00006d64:    1ba8        ..      SUBS     r0,r5,r6
        0x00006d66:    1e40        @.      SUBS     r0,r0,#1
        0x00006d68:    9507        ..      STR      r5,[sp,#0x1c]
        0x00006d6a:    9006        ..      STR      r0,[sp,#0x18]
        0x00006d6c:    e002        ..      B        0x6d74 ; _fp_digits + 382
        0x00006d6e:    9800        ..      LDR      r0,[sp,#0]
        0x00006d70:    2800        .(      CMP      r0,#0
        0x00006d72:    d00a        ..      BEQ      0x6d8a ; _fp_digits + 404
        0x00006d74:    9a07        ..      LDR      r2,[sp,#0x1c]
        0x00006d76:    9918        ..      LDR      r1,[sp,#0x60]
        0x00006d78:    2000        .       MOVS     r0,#0
        0x00006d7a:    54a0        .T      STRB     r0,[r4,r2]
        0x00006d7c:    980f        ..      LDR      r0,[sp,#0x3c]
        0x00006d7e:    9b07        ..      LDR      r3,[sp,#0x1c]
        0x00006d80:    9a06        ..      LDR      r2,[sp,#0x18]
        0x00006d82:    6043        C`      STR      r3,[r0,#4]
        0x00006d84:    6002        .`      STR      r2,[r0,#0]
        0x00006d86:    6081        .`      STR      r1,[r0,#8]
        0x00006d88:    e77c        |.      B        0x6c84 ; _fp_digits + 142
        0x00006d8a:    2611        .&      MOVS     r6,#0x11
        0x00006d8c:    2000        .       MOVS     r0,#0
        0x00006d8e:    9018        ..      STR      r0,[sp,#0x60]
        0x00006d90:    e759        Y.      B        0x6c46 ; _fp_digits + 80
    _printf_fp_dec_real
        0x00006d92:    1dd2        ..      ADDS     r2,r2,#7
        0x00006d94:    b5f0        ..      PUSH     {r4-r7,lr}
        0x00006d96:    460d        .F      MOV      r5,r1
        0x00006d98:    4604        .F      MOV      r4,r0
        0x00006d9a:    08d1        ..      LSRS     r1,r2,#3
        0x00006d9c:    b093        ..      SUB      sp,sp,#0x4c
        0x00006d9e:    00c9        ..      LSLS     r1,r1,#3
        0x00006da0:    c903        ..      LDM      r1,{r0,r1}
        0x00006da2:    900c        ..      STR      r0,[sp,#0x30]
        0x00006da4:    910d        ..      STR      r1,[sp,#0x34]
        0x00006da6:    f000fd23    ..#.    BL       __ARM_fpclassify ; 0x77f0
        0x00006daa:    4602        .F      MOV      r2,r0
        0x00006dac:    980d        ..      LDR      r0,[sp,#0x34]
        0x00006dae:    0fc0        ..      LSRS     r0,r0,#31
        0x00006db0:    d001        ..      BEQ      0x6db6 ; _printf_fp_dec_real + 36
        0x00006db2:    202d        -       MOVS     r0,#0x2d
        0x00006db4:    e007        ..      B        0x6dc6 ; _printf_fp_dec_real + 52
        0x00006db6:    6820         h      LDR      r0,[r4,#0]
        0x00006db8:    0781        ..      LSLS     r1,r0,#30
        0x00006dba:    d501        ..      BPL      0x6dc0 ; _printf_fp_dec_real + 46
        0x00006dbc:    202b        +       MOVS     r0,#0x2b
        0x00006dbe:    e002        ..      B        0x6dc6 ; _printf_fp_dec_real + 52
        0x00006dc0:    0740        @.      LSLS     r0,r0,#29
        0x00006dc2:    0fc0        ..      LSRS     r0,r0,#31
        0x00006dc4:    0140        @.      LSLS     r0,r0,#5
        0x00006dc6:    2a03        .*      CMP      r2,#3
        0x00006dc8:    900f        ..      STR      r0,[sp,#0x3c]
        0x00006dca:    d001        ..      BEQ      0x6dd0 ; _printf_fp_dec_real + 62
        0x00006dcc:    2a07        .*      CMP      r2,#7
        0x00006dce:    db05        ..      BLT      0x6ddc ; _printf_fp_dec_real + 74
        0x00006dd0:    4603        .F      MOV      r3,r0
        0x00006dd2:    4629        )F      MOV      r1,r5
        0x00006dd4:    4620         F      MOV      r0,r4
        0x00006dd6:    f000f993    ....    BL       _printf_fp_infnan ; 0x7100
        0x00006dda:    e10d        ..      B        0x6ff8 ; _printf_fp_dec_real + 614
        0x00006ddc:    7820         x      LDRB     r0,[r4,#0]
        0x00006dde:    0680        ..      LSLS     r0,r0,#26
        0x00006de0:    d501        ..      BPL      0x6de6 ; _printf_fp_dec_real + 84
        0x00006de2:    69e7        .i      LDR      r7,[r4,#0x1c]
        0x00006de4:    e000        ..      B        0x6de8 ; _printf_fp_dec_real + 86
        0x00006de6:    2706        .'      MOVS     r7,#6
        0x00006de8:    4628        (F      MOV      r0,r5
        0x00006dea:    2d65        e-      CMP      r5,#0x65
        0x00006dec:    d004        ..      BEQ      0x6df8 ; _printf_fp_dec_real + 102
        0x00006dee:    2866        f(      CMP      r0,#0x66
        0x00006df0:    d014        ..      BEQ      0x6e1c ; _printf_fp_dec_real + 138
        0x00006df2:    2d67        g-      CMP      r5,#0x67
        0x00006df4:    d169        i.      BNE      0x6eca ; _printf_fp_dec_real + 312
        0x00006df6:    e02d        -.      B        0x6e54 ; _printf_fp_dec_real + 194
        0x00006df8:    2000        .       MOVS     r0,#0
        0x00006dfa:    2f11        ./      CMP      r7,#0x11
        0x00006dfc:    9000        ..      STR      r0,[sp,#0]
        0x00006dfe:    db01        ..      BLT      0x6e04 ; _printf_fp_dec_real + 114
        0x00006e00:    2311        .#      MOVS     r3,#0x11
        0x00006e02:    e000        ..      B        0x6e06 ; _printf_fp_dec_real + 116
        0x00006e04:    1c7b        {.      ADDS     r3,r7,#1
        0x00006e06:    aa0c        ..      ADD      r2,sp,#0x30
        0x00006e08:    a903        ..      ADD      r1,sp,#0xc
        0x00006e0a:    a810        ..      ADD      r0,sp,#0x40
        0x00006e0c:    f7fffef3    ....    BL       _fp_digits ; 0x6bf6
        0x00006e10:    9911        ..      LDR      r1,[sp,#0x44]
        0x00006e12:    2600        .&      MOVS     r6,#0
        0x00006e14:    9810        ..      LDR      r0,[sp,#0x40]
        0x00006e16:    1c7d        }.      ADDS     r5,r7,#1
        0x00006e18:    910e        ..      STR      r1,[sp,#0x38]
        0x00006e1a:    e042        B.      B        0x6ea2 ; _printf_fp_dec_real + 272
        0x00006e1c:    2001        .       MOVS     r0,#1
        0x00006e1e:    463b        ;F      MOV      r3,r7
        0x00006e20:    aa0c        ..      ADD      r2,sp,#0x30
        0x00006e22:    07c0        ..      LSLS     r0,r0,#31
        0x00006e24:    900b        ..      STR      r0,[sp,#0x2c]
        0x00006e26:    2001        .       MOVS     r0,#1
        0x00006e28:    9000        ..      STR      r0,[sp,#0]
        0x00006e2a:    a903        ..      ADD      r1,sp,#0xc
        0x00006e2c:    a810        ..      ADD      r0,sp,#0x40
        0x00006e2e:    f7fffee2    ....    BL       _fp_digits ; 0x6bf6
        0x00006e32:    9d11        ..      LDR      r5,[sp,#0x44]
        0x00006e34:    9812        ..      LDR      r0,[sp,#0x48]
        0x00006e36:    9910        ..      LDR      r1,[sp,#0x40]
        0x00006e38:    2600        .&      MOVS     r6,#0
        0x00006e3a:    2800        .(      CMP      r0,#0
        0x00006e3c:    950e        ..      STR      r5,[sp,#0x38]
        0x00006e3e:    d101        ..      BNE      0x6e44 ; _printf_fp_dec_real + 178
        0x00006e40:    1c78        x.      ADDS     r0,r7,#1
        0x00006e42:    180d        ..      ADDS     r5,r1,r0
        0x00006e44:    1b78        x.      SUBS     r0,r7,r5
        0x00006e46:    d402        ..      BMI      0x6e4e ; _printf_fp_dec_real + 188
        0x00006e48:    4246        FB      RSBS     r6,r0,#0
        0x00006e4a:    1e76        v.      SUBS     r6,r6,#1
        0x00006e4c:    1c7d        }.      ADDS     r5,r7,#1
        0x00006e4e:    1be8        ..      SUBS     r0,r5,r7
        0x00006e50:    9000        ..      STR      r0,[sp,#0]
        0x00006e52:    e03a        :.      B        0x6eca ; _printf_fp_dec_real + 312
        0x00006e54:    2f01        ./      CMP      r7,#1
        0x00006e56:    da00        ..      BGE      0x6e5a ; _printf_fp_dec_real + 200
        0x00006e58:    2701        .'      MOVS     r7,#1
        0x00006e5a:    2000        .       MOVS     r0,#0
        0x00006e5c:    2f11        ./      CMP      r7,#0x11
        0x00006e5e:    9000        ..      STR      r0,[sp,#0]
        0x00006e60:    dd01        ..      BLE      0x6e66 ; _printf_fp_dec_real + 212
        0x00006e62:    2311        .#      MOVS     r3,#0x11
        0x00006e64:    e000        ..      B        0x6e68 ; _printf_fp_dec_real + 214
        0x00006e66:    463b        ;F      MOV      r3,r7
        0x00006e68:    aa0c        ..      ADD      r2,sp,#0x30
        0x00006e6a:    a903        ..      ADD      r1,sp,#0xc
        0x00006e6c:    a810        ..      ADD      r0,sp,#0x40
        0x00006e6e:    f7fffec2    ....    BL       _fp_digits ; 0x6bf6
        0x00006e72:    9911        ..      LDR      r1,[sp,#0x44]
        0x00006e74:    463d        =F      MOV      r5,r7
        0x00006e76:    9810        ..      LDR      r0,[sp,#0x40]
        0x00006e78:    2600        .&      MOVS     r6,#0
        0x00006e7a:    910e        ..      STR      r1,[sp,#0x38]
        0x00006e7c:    7821        !x      LDRB     r1,[r4,#0]
        0x00006e7e:    0709        ..      LSLS     r1,r1,#28
        0x00006e80:    d40b        ..      BMI      0x6e9a ; _printf_fp_dec_real + 264
        0x00006e82:    990e        ..      LDR      r1,[sp,#0x38]
        0x00006e84:    42a9        .B      CMP      r1,r5
        0x00006e86:    da00        ..      BGE      0x6e8a ; _printf_fp_dec_real + 248
        0x00006e88:    460d        .F      MOV      r5,r1
        0x00006e8a:    a903        ..      ADD      r1,sp,#0xc
        0x00006e8c:    2d01        .-      CMP      r5,#1
        0x00006e8e:    dd04        ..      BLE      0x6e9a ; _printf_fp_dec_real + 264
        0x00006e90:    194a        J.      ADDS     r2,r1,r5
        0x00006e92:    3a20         :      SUBS     r2,r2,#0x20
        0x00006e94:    7fd2        ..      LDRB     r2,[r2,#0x1f]
        0x00006e96:    2a30        0*      CMP      r2,#0x30
        0x00006e98:    d006        ..      BEQ      0x6ea8 ; _printf_fp_dec_real + 278
        0x00006e9a:    42b8        .B      CMP      r0,r7
        0x00006e9c:    da01        ..      BGE      0x6ea2 ; _printf_fp_dec_real + 272
        0x00006e9e:    1d01        ..      ADDS     r1,r0,#4
        0x00006ea0:    da04        ..      BGE      0x6eac ; _printf_fp_dec_real + 282
        0x00006ea2:    2101        .!      MOVS     r1,#1
        0x00006ea4:    9100        ..      STR      r1,[sp,#0]
        0x00006ea6:    e00f        ..      B        0x6ec8 ; _printf_fp_dec_real + 310
        0x00006ea8:    1e6d        m.      SUBS     r5,r5,#1
        0x00006eaa:    e7ef        ..      B        0x6e8c ; _printf_fp_dec_real + 250
        0x00006eac:    2800        .(      CMP      r0,#0
        0x00006eae:    dc02        ..      BGT      0x6eb6 ; _printf_fp_dec_real + 292
        0x00006eb0:    1986        ..      ADDS     r6,r0,r6
        0x00006eb2:    1a2d        -.      SUBS     r5,r5,r0
        0x00006eb4:    e003        ..      B        0x6ebe ; _printf_fp_dec_real + 300
        0x00006eb6:    1c41        A.      ADDS     r1,r0,#1
        0x00006eb8:    42a9        .B      CMP      r1,r5
        0x00006eba:    dd00        ..      BLE      0x6ebe ; _printf_fp_dec_real + 300
        0x00006ebc:    460d        .F      MOV      r5,r1
        0x00006ebe:    1b80        ..      SUBS     r0,r0,r6
        0x00006ec0:    1c40        @.      ADDS     r0,r0,#1
        0x00006ec2:    9000        ..      STR      r0,[sp,#0]
        0x00006ec4:    2001        .       MOVS     r0,#1
        0x00006ec6:    07c0        ..      LSLS     r0,r0,#31
        0x00006ec8:    900b        ..      STR      r0,[sp,#0x2c]
        0x00006eca:    7820         x      LDRB     r0,[r4,#0]
        0x00006ecc:    0700        ..      LSLS     r0,r0,#28
        0x00006ece:    d405        ..      BMI      0x6edc ; _printf_fp_dec_real + 330
        0x00006ed0:    9800        ..      LDR      r0,[sp,#0]
        0x00006ed2:    42a8        .B      CMP      r0,r5
        0x00006ed4:    db02        ..      BLT      0x6edc ; _printf_fp_dec_real + 330
        0x00006ed6:    2000        .       MOVS     r0,#0
        0x00006ed8:    43c0        .C      MVNS     r0,r0
        0x00006eda:    9000        ..      STR      r0,[sp,#0]
        0x00006edc:    4669        iF      MOV      r1,sp
        0x00006ede:    2000        .       MOVS     r0,#0
        0x00006ee0:    72c8        .r      STRB     r0,[r1,#0xb]
        0x00006ee2:    980b        ..      LDR      r0,[sp,#0x2c]
        0x00006ee4:    2101        .!      MOVS     r1,#1
        0x00006ee6:    af02        ..      ADD      r7,sp,#8
        0x00006ee8:    3703        .7      ADDS     r7,#3
        0x00006eea:    07c9        ..      LSLS     r1,r1,#31
        0x00006eec:    4288        .B      CMP      r0,r1
        0x00006eee:    d025        %.      BEQ      0x6f3c ; _printf_fp_dec_real + 426
        0x00006ef0:    2002        .       MOVS     r0,#2
        0x00006ef2:    9010        ..      STR      r0,[sp,#0x40]
        0x00006ef4:    202b        +       MOVS     r0,#0x2b
        0x00006ef6:    9011        ..      STR      r0,[sp,#0x44]
        0x00006ef8:    980b        ..      LDR      r0,[sp,#0x2c]
        0x00006efa:    2800        .(      CMP      r0,#0
        0x00006efc:    da0b        ..      BGE      0x6f16 ; _printf_fp_dec_real + 388
        0x00006efe:    4240        @B      RSBS     r0,r0,#0
        0x00006f00:    900b        ..      STR      r0,[sp,#0x2c]
        0x00006f02:    202d        -       MOVS     r0,#0x2d
        0x00006f04:    9011        ..      STR      r0,[sp,#0x44]
        0x00006f06:    e006        ..      B        0x6f16 ; _printf_fp_dec_real + 388
        0x00006f08:    980b        ..      LDR      r0,[sp,#0x2c]
        0x00006f0a:    f7fffe21    ..!.    BL       __rt_udiv10 ; 0x6b50
        0x00006f0e:    3130        01      ADDS     r1,r1,#0x30
        0x00006f10:    1e7f        ..      SUBS     r7,r7,#1
        0x00006f12:    900b        ..      STR      r0,[sp,#0x2c]
        0x00006f14:    7039        9p      STRB     r1,[r7,#0]
        0x00006f16:    9910        ..      LDR      r1,[sp,#0x40]
        0x00006f18:    1e48        H.      SUBS     r0,r1,#1
        0x00006f1a:    2900        .)      CMP      r1,#0
        0x00006f1c:    9010        ..      STR      r0,[sp,#0x40]
        0x00006f1e:    dcf3        ..      BGT      0x6f08 ; _printf_fp_dec_real + 374
        0x00006f20:    980b        ..      LDR      r0,[sp,#0x2c]
        0x00006f22:    2800        .(      CMP      r0,#0
        0x00006f24:    d1f0        ..      BNE      0x6f08 ; _printf_fp_dec_real + 374
        0x00006f26:    9811        ..      LDR      r0,[sp,#0x44]
        0x00006f28:    1e7f        ..      SUBS     r7,r7,#1
        0x00006f2a:    7038        8p      STRB     r0,[r7,#0]
        0x00006f2c:    8820         .      LDRH     r0,[r4,#0]
        0x00006f2e:    0500        ..      LSLS     r0,r0,#20
        0x00006f30:    d501        ..      BPL      0x6f36 ; _printf_fp_dec_real + 420
        0x00006f32:    2045        E       MOVS     r0,#0x45
        0x00006f34:    e000        ..      B        0x6f38 ; _printf_fp_dec_real + 422
        0x00006f36:    2065        e       MOVS     r0,#0x65
        0x00006f38:    1e7f        ..      SUBS     r7,r7,#1
        0x00006f3a:    7038        8p      STRB     r0,[r7,#0]
        0x00006f3c:    a801        ..      ADD      r0,sp,#4
        0x00006f3e:    1bc0        ..      SUBS     r0,r0,r7
        0x00006f40:    1dc0        ..      ADDS     r0,r0,#7
        0x00006f42:    900b        ..      STR      r0,[sp,#0x2c]
        0x00006f44:    980f        ..      LDR      r0,[sp,#0x3c]
        0x00006f46:    2800        .(      CMP      r0,#0
        0x00006f48:    d000        ..      BEQ      0x6f4c ; _printf_fp_dec_real + 442
        0x00006f4a:    2001        .       MOVS     r0,#1
        0x00006f4c:    1941        A.      ADDS     r1,r0,r5
        0x00006f4e:    9800        ..      LDR      r0,[sp,#0]
        0x00006f50:    17c0        ..      ASRS     r0,r0,#31
        0x00006f52:    1809        ..      ADDS     r1,r1,r0
        0x00006f54:    980b        ..      LDR      r0,[sp,#0x2c]
        0x00006f56:    1808        ..      ADDS     r0,r1,r0
        0x00006f58:    69a1        .i      LDR      r1,[r4,#0x18]
        0x00006f5a:    1a08        ..      SUBS     r0,r1,r0
        0x00006f5c:    1e40        @.      SUBS     r0,r0,#1
        0x00006f5e:    61a0        .a      STR      r0,[r4,#0x18]
        0x00006f60:    7820         x      LDRB     r0,[r4,#0]
        0x00006f62:    06c0        ..      LSLS     r0,r0,#27
        0x00006f64:    d402        ..      BMI      0x6f6c ; _printf_fp_dec_real + 474
        0x00006f66:    4620         F      MOV      r0,r4
        0x00006f68:    f7fff8d6    ....    BL       _printf_pre_padding ; 0x6118
        0x00006f6c:    980f        ..      LDR      r0,[sp,#0x3c]
        0x00006f6e:    2800        .(      CMP      r0,#0
        0x00006f70:    d005        ..      BEQ      0x6f7e ; _printf_fp_dec_real + 492
        0x00006f72:    6862        bh      LDR      r2,[r4,#4]
        0x00006f74:    68a1        .h      LDR      r1,[r4,#8]
        0x00006f76:    4790        .G      BLX      r2
        0x00006f78:    6a20         j      LDR      r0,[r4,#0x20]
        0x00006f7a:    1c40        @.      ADDS     r0,r0,#1
        0x00006f7c:    6220         b      STR      r0,[r4,#0x20]
        0x00006f7e:    7820         x      LDRB     r0,[r4,#0]
        0x00006f80:    06c0        ..      LSLS     r0,r0,#27
        0x00006f82:    d524        $.      BPL      0x6fce ; _printf_fp_dec_real + 572
        0x00006f84:    4620         F      MOV      r0,r4
        0x00006f86:    f7fff8c7    ....    BL       _printf_pre_padding ; 0x6118
        0x00006f8a:    e020         .      B        0x6fce ; _printf_fp_dec_real + 572
        0x00006f8c:    2e00        ..      CMP      r6,#0
        0x00006f8e:    db07        ..      BLT      0x6fa0 ; _printf_fp_dec_real + 526
        0x00006f90:    980e        ..      LDR      r0,[sp,#0x38]
        0x00006f92:    42b0        .B      CMP      r0,r6
        0x00006f94:    dd04        ..      BLE      0x6fa0 ; _printf_fp_dec_real + 526
        0x00006f96:    a803        ..      ADD      r0,sp,#0xc
        0x00006f98:    6862        bh      LDR      r2,[r4,#4]
        0x00006f9a:    5d80        .]      LDRB     r0,[r0,r6]
        0x00006f9c:    68a1        .h      LDR      r1,[r4,#8]
        0x00006f9e:    e002        ..      B        0x6fa6 ; _printf_fp_dec_real + 532
        0x00006fa0:    6862        bh      LDR      r2,[r4,#4]
        0x00006fa2:    68a1        .h      LDR      r1,[r4,#8]
        0x00006fa4:    2030        0       MOVS     r0,#0x30
        0x00006fa6:    4790        .G      BLX      r2
        0x00006fa8:    6a20         j      LDR      r0,[r4,#0x20]
        0x00006faa:    1c76        v.      ADDS     r6,r6,#1
        0x00006fac:    1c40        @.      ADDS     r0,r0,#1
        0x00006fae:    6220         b      STR      r0,[r4,#0x20]
        0x00006fb0:    9800        ..      LDR      r0,[sp,#0]
        0x00006fb2:    1e40        @.      SUBS     r0,r0,#1
        0x00006fb4:    9000        ..      STR      r0,[sp,#0]
        0x00006fb6:    d10a        ..      BNE      0x6fce ; _printf_fp_dec_real + 572
        0x00006fb8:    f000f89e    ....    BL       __rt_locale ; 0x70f8
        0x00006fbc:    68c0        .h      LDR      r0,[r0,#0xc]
        0x00006fbe:    6862        bh      LDR      r2,[r4,#4]
        0x00006fc0:    6801        .h      LDR      r1,[r0,#0]
        0x00006fc2:    5c40        @\      LDRB     r0,[r0,r1]
        0x00006fc4:    68a1        .h      LDR      r1,[r4,#8]
        0x00006fc6:    4790        .G      BLX      r2
        0x00006fc8:    6a20         j      LDR      r0,[r4,#0x20]
        0x00006fca:    1c40        @.      ADDS     r0,r0,#1
        0x00006fcc:    6220         b      STR      r0,[r4,#0x20]
        0x00006fce:    4628        (F      MOV      r0,r5
        0x00006fd0:    1e6d        m.      SUBS     r5,r5,#1
        0x00006fd2:    2800        .(      CMP      r0,#0
        0x00006fd4:    dcda        ..      BGT      0x6f8c ; _printf_fp_dec_real + 506
        0x00006fd6:    e007        ..      B        0x6fe8 ; _printf_fp_dec_real + 598
        0x00006fd8:    6862        bh      LDR      r2,[r4,#4]
        0x00006fda:    7838        8x      LDRB     r0,[r7,#0]
        0x00006fdc:    68a1        .h      LDR      r1,[r4,#8]
        0x00006fde:    1c7f        ..      ADDS     r7,r7,#1
        0x00006fe0:    4790        .G      BLX      r2
        0x00006fe2:    6a20         j      LDR      r0,[r4,#0x20]
        0x00006fe4:    1c40        @.      ADDS     r0,r0,#1
        0x00006fe6:    6220         b      STR      r0,[r4,#0x20]
        0x00006fe8:    990b        ..      LDR      r1,[sp,#0x2c]
        0x00006fea:    1e48        H.      SUBS     r0,r1,#1
        0x00006fec:    2900        .)      CMP      r1,#0
        0x00006fee:    900b        ..      STR      r0,[sp,#0x2c]
        0x00006ff0:    dcf2        ..      BGT      0x6fd8 ; _printf_fp_dec_real + 582
        0x00006ff2:    4620         F      MOV      r0,r4
        0x00006ff4:    f7fff8a6    ....    BL       _printf_post_padding ; 0x6144
        0x00006ff8:    2002        .       MOVS     r0,#2
        0x00006ffa:    e643        C.      B        0x6c84 ; _fp_digits + 142
    $d
        0x00006ffc:    fffffc01    ....    DCD    4294966273
        0x00007000:    00004d10    .M..    DCD    19728
        0x00007004:    ffffdfe1    ....    DCD    4294959073
    $t
    .text
    _printf_cs_common
        0x00007008:    b510        ..      PUSH     {r4,lr}
        0x0000700a:    6943        Ci      LDR      r3,[r0,#0x14]
        0x0000700c:    2b00        .+      CMP      r3,#0
        0x0000700e:    d002        ..      BEQ      0x7016 ; _printf_cs_common + 14
        0x00007010:    46c0        .F      MOV      r8,r8
        0x00007012:    46c0        .F      MOV      r8,r8
        0x00007014:    e001        ..      B        0x701a ; _printf_cs_common + 18
        0x00007016:    f7fffbc5    ....    BL       _printf_str ; 0x67a4
        0x0000701a:    2001        .       MOVS     r0,#1
        0x0000701c:    bd10        ..      POP      {r4,pc}
    _printf_char
        0x0000701e:    7812        .x      LDRB     r2,[r2,#0]
        0x00007020:    4601        .F      MOV      r1,r0
        0x00007022:    3124        $1      ADDS     r1,r1,#0x24
        0x00007024:    700a        .p      STRB     r2,[r1,#0]
        0x00007026:    2200        ."      MOVS     r2,#0
        0x00007028:    704a        Jp      STRB     r2,[r1,#1]
        0x0000702a:    2201        ."      MOVS     r2,#1
        0x0000702c:    e7ec        ..      B        _printf_cs_common ; 0x7008
    _printf_string
        0x0000702e:    6811        .h      LDR      r1,[r2,#0]
        0x00007030:    2200        ."      MOVS     r2,#0
        0x00007032:    43d2        .C      MVNS     r2,r2
        0x00007034:    e7e8        ..      B        _printf_cs_common ; 0x7008
    .text
    _printf_lcs_common
        0x00007036:    b510        ..      PUSH     {r4,lr}
        0x00007038:    6943        Ci      LDR      r3,[r0,#0x14]
        0x0000703a:    2b00        .+      CMP      r3,#0
        0x0000703c:    d002        ..      BEQ      0x7044 ; _printf_lcs_common + 14
        0x0000703e:    46c0        .F      MOV      r8,r8
        0x00007040:    46c0        .F      MOV      r8,r8
        0x00007042:    e001        ..      B        0x7048 ; _printf_lcs_common + 18
        0x00007044:    f7fffc6a    ..j.    BL       _printf_wctomb ; 0x691c
        0x00007048:    2001        .       MOVS     r0,#1
        0x0000704a:    bd10        ..      POP      {r4,pc}
    _printf_wchar
        0x0000704c:    8812        ..      LDRH     r2,[r2,#0]
        0x0000704e:    4601        .F      MOV      r1,r0
        0x00007050:    3124        $1      ADDS     r1,r1,#0x24
        0x00007052:    8482        ..      STRH     r2,[r0,#0x24]
        0x00007054:    2200        ."      MOVS     r2,#0
        0x00007056:    84c2        ..      STRH     r2,[r0,#0x26]
        0x00007058:    2201        ."      MOVS     r2,#1
        0x0000705a:    e7ec        ..      B        _printf_lcs_common ; 0x7036
    _printf_wstring
        0x0000705c:    6811        .h      LDR      r1,[r2,#0]
        0x0000705e:    2200        ."      MOVS     r2,#0
        0x00007060:    43d2        .C      MVNS     r2,r2
        0x00007062:    e7e8        ..      B        _printf_lcs_common ; 0x7036
    .text
    _wcrtomb
        0x00007064:    b570        p.      PUSH     {r4-r6,lr}
        0x00007066:    4616        .F      MOV      r6,r2
        0x00007068:    460c        .F      MOV      r4,r1
        0x0000706a:    4605        .F      MOV      r5,r0
        0x0000706c:    f000f83c    ..<.    BL       __rt_ctype_table ; 0x70e8
        0x00007070:    6803        .h      LDR      r3,[r0,#0]
        0x00007072:    20ff        .       MOVS     r0,#0xff
        0x00007074:    3002        .0      ADDS     r0,#2
        0x00007076:    5cc0        .\      LDRB     r0,[r0,r3]
        0x00007078:    2801        .(      CMP      r0,#1
        0x0000707a:    d007        ..      BEQ      0x708c ; _wcrtomb + 40
        0x0000707c:    2cff        .,      CMP      r4,#0xff
        0x0000707e:    d810        ..      BHI      0x70a2 ; _wcrtomb + 62
        0x00007080:    5d18        .]      LDRB     r0,[r3,r4]
        0x00007082:    2800        .(      CMP      r0,#0
        0x00007084:    d00d        ..      BEQ      0x70a2 ; _wcrtomb + 62
        0x00007086:    2001        .       MOVS     r0,#1
        0x00007088:    702c        ,p      STRB     r4,[r5,#0]
        0x0000708a:    bd70        p.      POP      {r4-r6,pc}
        0x0000708c:    20ff        .       MOVS     r0,#0xff
        0x0000708e:    4632        2F      MOV      r2,r6
        0x00007090:    4621        !F      MOV      r1,r4
        0x00007092:    3008        .0      ADDS     r0,r0,#8
        0x00007094:    58c0        .X      LDR      r0,[r0,r3]
        0x00007096:    181b        ..      ADDS     r3,r3,r0
        0x00007098:    4628        (F      MOV      r0,r5
        0x0000709a:    33ff        .3      ADDS     r3,r3,#0xff
        0x0000709c:    3308        .3      ADDS     r3,r3,#8
        0x0000709e:    4798        .G      BLX      r3
        0x000070a0:    bd70        p.      POP      {r4-r6,pc}
        0x000070a2:    2000        .       MOVS     r0,#0
        0x000070a4:    43c0        .C      MVNS     r0,r0
        0x000070a6:    bd70        p.      POP      {r4-r6,pc}
    .text
    __user_setup_stackheap
        0x000070a8:    4675        uF      MOV      r5,lr
        0x000070aa:    f000fb2d    ..-.    BL       __user_libspace ; 0x7708
        0x000070ae:    46ae        .F      MOV      lr,r5
        0x000070b0:    0005        ..      MOVS     r5,r0
        0x000070b2:    4669        iF      MOV      r1,sp
        0x000070b4:    4653        SF      MOV      r3,r10
        0x000070b6:    08c0        ..      LSRS     r0,r0,#3
        0x000070b8:    00c0        ..      LSLS     r0,r0,#3
        0x000070ba:    4685        .F      MOV      sp,r0
        0x000070bc:    b018        ..      ADD      sp,sp,#0x60
        0x000070be:    b520         .      PUSH     {r5,lr}
        0x000070c0:    f7f9f986    ....    BL       __user_initial_stackheap ; 0x3d0
        0x000070c4:    bc60        `.      POP      {r5,r6}
        0x000070c6:    2700        .'      MOVS     r7,#0
        0x000070c8:    0849        I.      LSRS     r1,r1,#1
        0x000070ca:    46b6        .F      MOV      lr,r6
        0x000070cc:    2600        .&      MOVS     r6,#0
        0x000070ce:    c5c0        ..      STM      r5!,{r6,r7}
        0x000070d0:    c5c0        ..      STM      r5!,{r6,r7}
        0x000070d2:    c5c0        ..      STM      r5!,{r6,r7}
        0x000070d4:    c5c0        ..      STM      r5!,{r6,r7}
        0x000070d6:    c5c0        ..      STM      r5!,{r6,r7}
        0x000070d8:    c5c0        ..      STM      r5!,{r6,r7}
        0x000070da:    c5c0        ..      STM      r5!,{r6,r7}
        0x000070dc:    c5c0        ..      STM      r5!,{r6,r7}
        0x000070de:    3d40        @=      SUBS     r5,r5,#0x40
        0x000070e0:    0049        I.      LSLS     r1,r1,#1
        0x000070e2:    468d        .F      MOV      sp,r1
        0x000070e4:    4770        pG      BX       lr
        0x000070e6:    0000        ..      MOVS     r0,r0
    .text
    __rt_ctype_table
        0x000070e8:    b510        ..      PUSH     {r4,lr}
        0x000070ea:    f000f805    ....    BL       __rt_locale ; 0x70f8
        0x000070ee:    1d00        ..      ADDS     r0,r0,#4
        0x000070f0:    bd10        ..      POP      {r4,pc}
        0x000070f2:    bf00        ..      NOP      
    $d
        0x000070f4:    00000765    e...    DCD    1893
    $t
    .text
    __rt_locale
        0x000070f8:    4800        .H      LDR      r0,[pc,#0] ; [0x70fc] = 0x200006f8
        0x000070fa:    4770        pG      BX       lr
    $d
        0x000070fc:    200006f8    ...     DCD    536872696
    $t
    .text
    _printf_fp_infnan
        0x00007100:    b5f8        ..      PUSH     {r3-r7,lr}
        0x00007102:    461f        .F      MOV      r7,r3
        0x00007104:    4604        .F      MOV      r4,r0
        0x00007106:    2301        .#      MOVS     r3,#1
        0x00007108:    6800        .h      LDR      r0,[r0,#0]
        0x0000710a:    02db        ..      LSLS     r3,r3,#11
        0x0000710c:    2603        .&      MOVS     r6,#3
        0x0000710e:    4601        .F      MOV      r1,r0
        0x00007110:    4018        .@      ANDS     r0,r0,r3
        0x00007112:    2a07        .*      CMP      r2,#7
        0x00007114:    db05        ..      BLT      0x7122 ; _printf_fp_infnan + 34
        0x00007116:    2800        .(      CMP      r0,#0
        0x00007118:    d001        ..      BEQ      0x711e ; _printf_fp_infnan + 30
        0x0000711a:    a517        ..      ADR      r5,{pc}+0x5e ; 0x7178
        0x0000711c:    e006        ..      B        0x712c ; _printf_fp_infnan + 44
        0x0000711e:    a517        ..      ADR      r5,{pc}+0x5e ; 0x717c
        0x00007120:    e004        ..      B        0x712c ; _printf_fp_infnan + 44
        0x00007122:    2800        .(      CMP      r0,#0
        0x00007124:    d001        ..      BEQ      0x712a ; _printf_fp_infnan + 42
        0x00007126:    a516        ..      ADR      r5,{pc}+0x5a ; 0x7180
        0x00007128:    e000        ..      B        0x712c ; _printf_fp_infnan + 44
        0x0000712a:    a516        ..      ADR      r5,{pc}+0x5a ; 0x7184
        0x0000712c:    2010        .       MOVS     r0,#0x10
        0x0000712e:    4381        .C      BICS     r1,r1,r0
        0x00007130:    6021        !`      STR      r1,[r4,#0]
        0x00007132:    69a0        .i      LDR      r0,[r4,#0x18]
        0x00007134:    1ec0        ..      SUBS     r0,r0,#3
        0x00007136:    2f00        ./      CMP      r7,#0
        0x00007138:    61a0        .a      STR      r0,[r4,#0x18]
        0x0000713a:    d001        ..      BEQ      0x7140 ; _printf_fp_infnan + 64
        0x0000713c:    1e40        @.      SUBS     r0,r0,#1
        0x0000713e:    61a0        .a      STR      r0,[r4,#0x18]
        0x00007140:    4620         F      MOV      r0,r4
        0x00007142:    f7feffe9    ....    BL       _printf_pre_padding ; 0x6118
        0x00007146:    2f00        ./      CMP      r7,#0
        0x00007148:    d009        ..      BEQ      0x715e ; _printf_fp_infnan + 94
        0x0000714a:    4638        8F      MOV      r0,r7
        0x0000714c:    6862        bh      LDR      r2,[r4,#4]
        0x0000714e:    68a1        .h      LDR      r1,[r4,#8]
        0x00007150:    4790        .G      BLX      r2
        0x00007152:    6a20         j      LDR      r0,[r4,#0x20]
        0x00007154:    1c40        @.      ADDS     r0,r0,#1
        0x00007156:    6220         b      STR      r0,[r4,#0x20]
        0x00007158:    1cc0        ..      ADDS     r0,r0,#3
        0x0000715a:    6220         b      STR      r0,[r4,#0x20]
        0x0000715c:    e006        ..      B        0x716c ; _printf_fp_infnan + 108
        0x0000715e:    6a20         j      LDR      r0,[r4,#0x20]
        0x00007160:    e7fa        ..      B        0x7158 ; _printf_fp_infnan + 88
        0x00007162:    6862        bh      LDR      r2,[r4,#4]
        0x00007164:    7828        (x      LDRB     r0,[r5,#0]
        0x00007166:    68a1        .h      LDR      r1,[r4,#8]
        0x00007168:    1c6d        m.      ADDS     r5,r5,#1
        0x0000716a:    4790        .G      BLX      r2
        0x0000716c:    1e76        v.      SUBS     r6,r6,#1
        0x0000716e:    d2f8        ..      BCS      0x7162 ; _printf_fp_infnan + 98
        0x00007170:    4620         F      MOV      r0,r4
        0x00007172:    f7feffe7    ....    BL       _printf_post_padding ; 0x6144
        0x00007176:    bdf8        ..      POP      {r3-r7,pc}
    $d
        0x00007178:    004e414e    NAN.    DCD    5128526
        0x0000717c:    006e616e    nan.    DCD    7233902
        0x00007180:    00464e49    INF.    DCD    4607561
        0x00007184:    00666e69    inf.    DCD    6712937
    $t
    .text
    _btod_etento
        0x00007188:    b5f7        ..      PUSH     {r0-r2,r4-r7,lr}
        0x0000718a:    4616        .F      MOV      r6,r2
        0x0000718c:    b08a        ..      SUB      sp,sp,#0x28
        0x0000718e:    4830        0H      LDR      r0,[pc,#192] ; [0x7250] = 0x8ec
        0x00007190:    4478        xD      ADD      r0,r0,pc
        0x00007192:    466c        lF      MOV      r4,sp
        0x00007194:    4603        .F      MOV      r3,r0
        0x00007196:    337c        |3      ADDS     r3,r3,#0x7c
        0x00007198:    6fc0        .o      LDR      r0,[r0,#0x7c]
        0x0000719a:    685a        Zh      LDR      r2,[r3,#4]
        0x0000719c:    689b        .h      LDR      r3,[r3,#8]
        0x0000719e:    c40d        ..      STM      r4!,{r0,r2,r3}
        0x000071a0:    4b2b        +K      LDR      r3,[pc,#172] ; [0x7250] = 0x8ec
        0x000071a2:    447b        {D      ADD      r3,r3,pc
        0x000071a4:    336e        n3      ADDS     r3,r3,#0x6e
        0x000071a6:    3308        .3      ADDS     r3,r3,#8
        0x000071a8:    ac03        ..      ADD      r4,sp,#0xc
        0x000071aa:    cb0d        ..      LDM      r3,{r0,r2,r3}
        0x000071ac:    c40d        ..      STM      r4!,{r0,r2,r3}
        0x000071ae:    2037        7       MOVS     r0,#0x37
        0x000071b0:    01c0        ..      LSLS     r0,r0,#7
        0x000071b2:    1808        ..      ADDS     r0,r1,r0
        0x000071b4:    2137        7!      MOVS     r1,#0x37
        0x000071b6:    301b        .0      ADDS     r0,r0,#0x1b
        0x000071b8:    f7fffa3c    ..<.    BL       __aeabi_idiv ; 0x6634
        0x000071bc:    4605        .F      MOV      r5,r0
        0x000071be:    460c        .F      MOV      r4,r1
        0x000071c0:    3d80        .=      SUBS     r5,r5,#0x80
        0x000071c2:    3c1b        .<      SUBS     r4,r4,#0x1b
        0x000071c4:    d502        ..      BPL      0x71cc ; _btod_etento + 68
        0x000071c6:    4264        dB      RSBS     r4,r4,#0
        0x000071c8:    2001        .       MOVS     r0,#1
        0x000071ca:    e000        ..      B        0x71ce ; _btod_etento + 70
        0x000071cc:    2000        .       MOVS     r0,#0
        0x000071ce:    2700        .'      MOVS     r7,#0
        0x000071d0:    9009        ..      STR      r0,[sp,#0x24]
        0x000071d2:    e00f        ..      B        0x71f4 ; _btod_etento + 108
        0x000071d4:    07e0        ..      LSLS     r0,r4,#31
        0x000071d6:    d00b        ..      BEQ      0x71f0 ; _btod_etento + 104
        0x000071d8:    200c        .       MOVS     r0,#0xc
        0x000071da:    491d        .I      LDR      r1,[pc,#116] ; [0x7250] = 0x8ec
        0x000071dc:    4378        xC      MULS     r0,r7,r0
        0x000071de:    4479        yD      ADD      r1,r1,pc
        0x000071e0:    4632        2F      MOV      r2,r6
        0x000071e2:    394e        N9      SUBS     r1,r1,#0x4e
        0x000071e4:    1841        A.      ADDS     r1,r0,r1
        0x000071e6:    4668        hF      MOV      r0,sp
        0x000071e8:    f000fa2f    ../.    BL       _btod_emul ; 0x764a
        0x000071ec:    466b        kF      MOV      r3,sp
        0x000071ee:    c307        ..      STM      r3!,{r0-r2}
        0x000071f0:    1064        d.      ASRS     r4,r4,#1
        0x000071f2:    1c7f        ..      ADDS     r7,r7,#1
        0x000071f4:    2c00        .,      CMP      r4,#0
        0x000071f6:    d1ed        ..      BNE      0x71d4 ; _btod_etento + 76
        0x000071f8:    4f15        .O      LDR      r7,[pc,#84] ; [0x7250] = 0x8ec
        0x000071fa:    447f        .D      ADD      r7,r7,pc
        0x000071fc:    3f2e        .?      SUBS     r7,r7,#0x2e
        0x000071fe:    e016        ..      B        0x722e ; _btod_etento + 166
        0x00007200:    07e8        ..      LSLS     r0,r5,#31
        0x00007202:    d012        ..      BEQ      0x722a ; _btod_etento + 162
        0x00007204:    0120         .      LSLS     r0,r4,#4
        0x00007206:    19c0        ..      ADDS     r0,r0,r7
        0x00007208:    4601        .F      MOV      r1,r0
        0x0000720a:    c90e        ..      LDM      r1,{r1-r3}
        0x0000720c:    9106        ..      STR      r1,[sp,#0x18]
        0x0000720e:    9308        ..      STR      r3,[sp,#0x20]
        0x00007210:    9207        ..      STR      r2,[sp,#0x1c]
        0x00007212:    68c0        .h      LDR      r0,[r0,#0xc]
        0x00007214:    42f0        .B      CMN      r0,r6
        0x00007216:    d101        ..      BNE      0x721c ; _btod_etento + 148
        0x00007218:    1998        ..      ADDS     r0,r3,r6
        0x0000721a:    9008        ..      STR      r0,[sp,#0x20]
        0x0000721c:    4632        2F      MOV      r2,r6
        0x0000721e:    a906        ..      ADD      r1,sp,#0x18
        0x00007220:    a803        ..      ADD      r0,sp,#0xc
        0x00007222:    f000fa12    ....    BL       _btod_emul ; 0x764a
        0x00007226:    ab03        ..      ADD      r3,sp,#0xc
        0x00007228:    c307        ..      STM      r3!,{r0-r2}
        0x0000722a:    106d        m.      ASRS     r5,r5,#1
        0x0000722c:    1c64        d.      ADDS     r4,r4,#1
        0x0000722e:    2d00        .-      CMP      r5,#0
        0x00007230:    d1e6        ..      BNE      0x7200 ; _btod_etento + 120
        0x00007232:    4632        2F      MOV      r2,r6
        0x00007234:    4669        iF      MOV      r1,sp
        0x00007236:    9809        ..      LDR      r0,[sp,#0x24]
        0x00007238:    2800        .(      CMP      r0,#0
        0x0000723a:    a803        ..      ADD      r0,sp,#0xc
        0x0000723c:    d002        ..      BEQ      0x7244 ; _btod_etento + 188
        0x0000723e:    f000fa2e    ....    BL       _btod_ediv ; 0x769e
        0x00007242:    e001        ..      B        0x7248 ; _btod_etento + 192
        0x00007244:    f000fa01    ....    BL       _btod_emul ; 0x764a
        0x00007248:    9b0a        ..      LDR      r3,[sp,#0x28]
        0x0000724a:    c307        ..      STM      r3!,{r0-r2}
        0x0000724c:    b00d        ..      ADD      sp,sp,#0x34
        0x0000724e:    bdf0        ..      POP      {r4-r7,pc}
    $d
        0x00007250:    000008ec    ....    DCD    2284
    $t
    .text
    _btod_d2e
        0x00007254:    4603        .F      MOV      r3,r0
        0x00007256:    0040        @.      LSLS     r0,r0,#1
        0x00007258:    460a        .F      MOV      r2,r1
        0x0000725a:    b510        ..      PUSH     {r4,lr}
        0x0000725c:    0d40        @.      LSRS     r0,r0,#21
        0x0000725e:    d00b        ..      BEQ      0x7278 ; _btod_d2e + 36
        0x00007260:    2101        .!      MOVS     r1,#1
        0x00007262:    07c9        ..      LSLS     r1,r1,#31
        0x00007264:    240f        .$      MOVS     r4,#0xf
        0x00007266:    02a4        ..      LSLS     r4,r4,#10
        0x00007268:    1900        ..      ADDS     r0,r0,r4
        0x0000726a:    031c        ..      LSLS     r4,r3,#12
        0x0000726c:    0864        d.      LSRS     r4,r4,#1
        0x0000726e:    4321        !C      ORRS     r1,r1,r4
        0x00007270:    0d54        T.      LSRS     r4,r2,#21
        0x00007272:    4321        !C      ORRS     r1,r1,r4
        0x00007274:    02d2        ..      LSLS     r2,r2,#11
        0x00007276:    e007        ..      B        0x7288 ; _btod_d2e + 52
        0x00007278:    2100        .!      MOVS     r1,#0
        0x0000727a:    2001        .       MOVS     r0,#1
        0x0000727c:    e7f2        ..      B        0x7264 ; _btod_d2e + 16
        0x0000727e:    0fd4        ..      LSRS     r4,r2,#31
        0x00007280:    0049        I.      LSLS     r1,r1,#1
        0x00007282:    4321        !C      ORRS     r1,r1,r4
        0x00007284:    0052        R.      LSLS     r2,r2,#1
        0x00007286:    1e40        @.      SUBS     r0,r0,#1
        0x00007288:    2900        .)      CMP      r1,#0
        0x0000728a:    daf8        ..      BGE      0x727e ; _btod_d2e + 42
        0x0000728c:    0fdb        ..      LSRS     r3,r3,#31
        0x0000728e:    07db        ..      LSLS     r3,r3,#31
        0x00007290:    4318        .C      ORRS     r0,r0,r3
        0x00007292:    bd10        ..      POP      {r4,pc}
    btod_internal_mul
        0x00007294:    b5ff        ..      PUSH     {r0-r7,lr}
        0x00007296:    460d        .F      MOV      r5,r1
        0x00007298:    4614        .F      MOV      r4,r2
        0x0000729a:    b085        ..      SUB      sp,sp,#0x14
        0x0000729c:    6848        Hh      LDR      r0,[r1,#4]
        0x0000729e:    6851        Qh      LDR      r1,[r2,#4]
        0x000072a0:    f000fa81    ....    BL       __ARM_common_ll_muluu ; 0x77a6
        0x000072a4:    9100        ..      STR      r1,[sp,#0]
        0x000072a6:    9001        ..      STR      r0,[sp,#4]
        0x000072a8:    68a8        .h      LDR      r0,[r5,#8]
        0x000072aa:    68a1        .h      LDR      r1,[r4,#8]
        0x000072ac:    f000fa7b    ..{.    BL       __ARM_common_ll_muluu ; 0x77a6
        0x000072b0:    9102        ..      STR      r1,[sp,#8]
        0x000072b2:    9003        ..      STR      r0,[sp,#0xc]
        0x000072b4:    68a8        .h      LDR      r0,[r5,#8]
        0x000072b6:    6861        ah      LDR      r1,[r4,#4]
        0x000072b8:    f000fa75    ..u.    BL       __ARM_common_ll_muluu ; 0x77a6
        0x000072bc:    9a02        ..      LDR      r2,[sp,#8]
        0x000072be:    1812        ..      ADDS     r2,r2,r0
        0x000072c0:    4282        .B      CMP      r2,r0
        0x000072c2:    9202        ..      STR      r2,[sp,#8]
        0x000072c4:    d201        ..      BCS      0x72ca ; btod_internal_mul + 54
        0x000072c6:    2001        .       MOVS     r0,#1
        0x000072c8:    e000        ..      B        0x72cc ; btod_internal_mul + 56
        0x000072ca:    2000        .       MOVS     r0,#0
        0x000072cc:    9a01        ..      LDR      r2,[sp,#4]
        0x000072ce:    180b        ..      ADDS     r3,r1,r0
        0x000072d0:    18d2        ..      ADDS     r2,r2,r3
        0x000072d2:    2800        .(      CMP      r0,#0
        0x000072d4:    9201        ..      STR      r2,[sp,#4]
        0x000072d6:    d002        ..      BEQ      0x72de ; btod_internal_mul + 74
        0x000072d8:    428a        .B      CMP      r2,r1
        0x000072da:    d902        ..      BLS      0x72e2 ; btod_internal_mul + 78
        0x000072dc:    e003        ..      B        0x72e6 ; btod_internal_mul + 82
        0x000072de:    428a        .B      CMP      r2,r1
        0x000072e0:    d201        ..      BCS      0x72e6 ; btod_internal_mul + 82
        0x000072e2:    2001        .       MOVS     r0,#1
        0x000072e4:    e000        ..      B        0x72e8 ; btod_internal_mul + 84
        0x000072e6:    2000        .       MOVS     r0,#0
        0x000072e8:    9900        ..      LDR      r1,[sp,#0]
        0x000072ea:    1808        ..      ADDS     r0,r1,r0
        0x000072ec:    9000        ..      STR      r0,[sp,#0]
        0x000072ee:    6868        hh      LDR      r0,[r5,#4]
        0x000072f0:    68a1        .h      LDR      r1,[r4,#8]
        0x000072f2:    f000fa58    ..X.    BL       __ARM_common_ll_muluu ; 0x77a6
        0x000072f6:    9a02        ..      LDR      r2,[sp,#8]
        0x000072f8:    1812        ..      ADDS     r2,r2,r0
        0x000072fa:    4282        .B      CMP      r2,r0
        0x000072fc:    9202        ..      STR      r2,[sp,#8]
        0x000072fe:    d201        ..      BCS      0x7304 ; btod_internal_mul + 112
        0x00007300:    2001        .       MOVS     r0,#1
        0x00007302:    e000        ..      B        0x7306 ; btod_internal_mul + 114
        0x00007304:    2000        .       MOVS     r0,#0
        0x00007306:    9a01        ..      LDR      r2,[sp,#4]
        0x00007308:    180b        ..      ADDS     r3,r1,r0
        0x0000730a:    18d2        ..      ADDS     r2,r2,r3
        0x0000730c:    2800        .(      CMP      r0,#0
        0x0000730e:    9201        ..      STR      r2,[sp,#4]
        0x00007310:    d002        ..      BEQ      0x7318 ; btod_internal_mul + 132
        0x00007312:    428a        .B      CMP      r2,r1
        0x00007314:    d902        ..      BLS      0x731c ; btod_internal_mul + 136
        0x00007316:    e003        ..      B        0x7320 ; btod_internal_mul + 140
        0x00007318:    428a        .B      CMP      r2,r1
        0x0000731a:    d201        ..      BCS      0x7320 ; btod_internal_mul + 140
        0x0000731c:    2001        .       MOVS     r0,#1
        0x0000731e:    e000        ..      B        0x7322 ; btod_internal_mul + 142
        0x00007320:    2000        .       MOVS     r0,#0
        0x00007322:    9900        ..      LDR      r1,[sp,#0]
        0x00007324:    1808        ..      ADDS     r0,r1,r0
        0x00007326:    9000        ..      STR      r0,[sp,#0]
        0x00007328:    6828        (h      LDR      r0,[r5,#0]
        0x0000732a:    6821        !h      LDR      r1,[r4,#0]
        0x0000732c:    0040        @.      LSLS     r0,r0,#1
        0x0000732e:    0049        I.      LSLS     r1,r1,#1
        0x00007330:    0840        @.      LSRS     r0,r0,#1
        0x00007332:    0849        I.      LSRS     r1,r1,#1
        0x00007334:    1840        @.      ADDS     r0,r0,r1
        0x00007336:    49ee        .I      LDR      r1,[pc,#952] ; [0x76f0] = 0xffffc002
        0x00007338:    1847        G.      ADDS     r7,r0,r1
        0x0000733a:    e014        ..      B        0x7366 ; btod_internal_mul + 210
        0x0000733c:    9901        ..      LDR      r1,[sp,#4]
        0x0000733e:    0040        @.      LSLS     r0,r0,#1
        0x00007340:    0fc9        ..      LSRS     r1,r1,#31
        0x00007342:    4308        .C      ORRS     r0,r0,r1
        0x00007344:    9000        ..      STR      r0,[sp,#0]
        0x00007346:    9801        ..      LDR      r0,[sp,#4]
        0x00007348:    9902        ..      LDR      r1,[sp,#8]
        0x0000734a:    0040        @.      LSLS     r0,r0,#1
        0x0000734c:    0fc9        ..      LSRS     r1,r1,#31
        0x0000734e:    4308        .C      ORRS     r0,r0,r1
        0x00007350:    9001        ..      STR      r0,[sp,#4]
        0x00007352:    9802        ..      LDR      r0,[sp,#8]
        0x00007354:    9903        ..      LDR      r1,[sp,#0xc]
        0x00007356:    0040        @.      LSLS     r0,r0,#1
        0x00007358:    0fc9        ..      LSRS     r1,r1,#31
        0x0000735a:    4308        .C      ORRS     r0,r0,r1
        0x0000735c:    9002        ..      STR      r0,[sp,#8]
        0x0000735e:    9803        ..      LDR      r0,[sp,#0xc]
        0x00007360:    0040        @.      LSLS     r0,r0,#1
        0x00007362:    1e7f        ..      SUBS     r7,r7,#1
        0x00007364:    9003        ..      STR      r0,[sp,#0xc]
        0x00007366:    9800        ..      LDR      r0,[sp,#0]
        0x00007368:    2800        .(      CMP      r0,#0
        0x0000736a:    dae7        ..      BGE      0x733c ; btod_internal_mul + 168
        0x0000736c:    9808        ..      LDR      r0,[sp,#0x20]
        0x0000736e:    2800        .(      CMP      r0,#0
        0x00007370:    d001        ..      BEQ      0x7376 ; btod_internal_mul + 226
        0x00007372:    4ee0        .N      LDR      r6,[pc,#896] ; [0x76f4] = 0x3c01
        0x00007374:    e000        ..      B        0x7378 ; btod_internal_mul + 228
        0x00007376:    2600        .&      MOVS     r6,#0
        0x00007378:    42b7        .B      CMP      r7,r6
        0x0000737a:    da28        (.      BGE      0x73ce ; btod_internal_mul + 314
        0x0000737c:    1bf7        ..      SUBS     r7,r6,r7
        0x0000737e:    06f8        ..      LSLS     r0,r7,#27
        0x00007380:    0ec0        ..      LSRS     r0,r0,#27
        0x00007382:    d015        ..      BEQ      0x73b0 ; btod_internal_mul + 284
        0x00007384:    9b02        ..      LDR      r3,[sp,#8]
        0x00007386:    2120         !      MOVS     r1,#0x20
        0x00007388:    1a09        ..      SUBS     r1,r1,r0
        0x0000738a:    9a03        ..      LDR      r2,[sp,#0xc]
        0x0000738c:    408b        .@      LSLS     r3,r3,r1
        0x0000738e:    431a        .C      ORRS     r2,r2,r3
        0x00007390:    9203        ..      STR      r2,[sp,#0xc]
        0x00007392:    9a02        ..      LDR      r2,[sp,#8]
        0x00007394:    9b01        ..      LDR      r3,[sp,#4]
        0x00007396:    40c2        .@      LSRS     r2,r2,r0
        0x00007398:    408b        .@      LSLS     r3,r3,r1
        0x0000739a:    431a        .C      ORRS     r2,r2,r3
        0x0000739c:    9202        ..      STR      r2,[sp,#8]
        0x0000739e:    9a01        ..      LDR      r2,[sp,#4]
        0x000073a0:    9b00        ..      LDR      r3,[sp,#0]
        0x000073a2:    40c2        .@      LSRS     r2,r2,r0
        0x000073a4:    408b        .@      LSLS     r3,r3,r1
        0x000073a6:    9900        ..      LDR      r1,[sp,#0]
        0x000073a8:    431a        .C      ORRS     r2,r2,r3
        0x000073aa:    9201        ..      STR      r2,[sp,#4]
        0x000073ac:    40c1        .@      LSRS     r1,r1,r0
        0x000073ae:    9100        ..      STR      r1,[sp,#0]
        0x000073b0:    117a        z.      ASRS     r2,r7,#5
        0x000073b2:    d00b        ..      BEQ      0x73cc ; btod_internal_mul + 312
        0x000073b4:    466b        kF      MOV      r3,sp
        0x000073b6:    2003        .       MOVS     r0,#3
        0x000073b8:    1a81        ..      SUBS     r1,r0,r2
        0x000073ba:    d501        ..      BPL      0x73c0 ; btod_internal_mul + 300
        0x000073bc:    2100        .!      MOVS     r1,#0
        0x000073be:    e001        ..      B        0x73c4 ; btod_internal_mul + 304
        0x000073c0:    0089        ..      LSLS     r1,r1,#2
        0x000073c2:    5859        YX      LDR      r1,[r3,r1]
        0x000073c4:    0087        ..      LSLS     r7,r0,#2
        0x000073c6:    1e40        @.      SUBS     r0,r0,#1
        0x000073c8:    51d9        .Q      STR      r1,[r3,r7]
        0x000073ca:    d5f5        ..      BPL      0x73b8 ; btod_internal_mul + 292
        0x000073cc:    4637        7F      MOV      r7,r6
        0x000073ce:    9803        ..      LDR      r0,[sp,#0xc]
        0x000073d0:    9902        ..      LDR      r1,[sp,#8]
        0x000073d2:    2800        .(      CMP      r0,#0
        0x000073d4:    d000        ..      BEQ      0x73d8 ; btod_internal_mul + 324
        0x000073d6:    2001        .       MOVS     r0,#1
        0x000073d8:    4301        .C      ORRS     r1,r1,r0
        0x000073da:    9808        ..      LDR      r0,[sp,#0x20]
        0x000073dc:    9102        ..      STR      r1,[sp,#8]
        0x000073de:    2800        .(      CMP      r0,#0
        0x000073e0:    4608        .F      MOV      r0,r1
        0x000073e2:    d00c        ..      BEQ      0x73fe ; btod_internal_mul + 362
        0x000073e4:    2800        .(      CMP      r0,#0
        0x000073e6:    d000        ..      BEQ      0x73ea ; btod_internal_mul + 342
        0x000073e8:    2001        .       MOVS     r0,#1
        0x000073ea:    9901        ..      LDR      r1,[sp,#4]
        0x000073ec:    9a01        ..      LDR      r2,[sp,#4]
        0x000073ee:    0549        I.      LSLS     r1,r1,#21
        0x000073f0:    4308        .C      ORRS     r0,r0,r1
        0x000073f2:    2101        .!      MOVS     r1,#1
        0x000073f4:    0ad2        ..      LSRS     r2,r2,#11
        0x000073f6:    02c9        ..      LSLS     r1,r1,#11
        0x000073f8:    02d2        ..      LSLS     r2,r2,#11
        0x000073fa:    9201        ..      STR      r2,[sp,#4]
        0x000073fc:    e000        ..      B        0x7400 ; btod_internal_mul + 364
        0x000073fe:    2101        .!      MOVS     r1,#1
        0x00007400:    9b0e        ..      LDR      r3,[sp,#0x38]
        0x00007402:    2201        ."      MOVS     r2,#1
        0x00007404:    07d2        ..      LSLS     r2,r2,#31
        0x00007406:    2b01        .+      CMP      r3,#1
        0x00007408:    d002        ..      BEQ      0x7410 ; btod_internal_mul + 380
        0x0000740a:    2b00        .+      CMP      r3,#0
        0x0000740c:    d003        ..      BEQ      0x7416 ; btod_internal_mul + 386
        0x0000740e:    e013        ..      B        0x7438 ; btod_internal_mul + 420
        0x00007410:    2800        .(      CMP      r0,#0
        0x00007412:    d107        ..      BNE      0x7424 ; btod_internal_mul + 400
        0x00007414:    e016        ..      B        0x7444 ; btod_internal_mul + 432
        0x00007416:    4290        .B      CMP      r0,r2
        0x00007418:    d804        ..      BHI      0x7424 ; btod_internal_mul + 400
        0x0000741a:    4290        .B      CMP      r0,r2
        0x0000741c:    d10c        ..      BNE      0x7438 ; btod_internal_mul + 420
        0x0000741e:    9b01        ..      LDR      r3,[sp,#4]
        0x00007420:    420b        .B      TST      r3,r1
        0x00007422:    d009        ..      BEQ      0x7438 ; btod_internal_mul + 420
        0x00007424:    9b01        ..      LDR      r3,[sp,#4]
        0x00007426:    1859        Y.      ADDS     r1,r3,r1
        0x00007428:    9101        ..      STR      r1,[sp,#4]
        0x0000742a:    d105        ..      BNE      0x7438 ; btod_internal_mul + 420
        0x0000742c:    9900        ..      LDR      r1,[sp,#0]
        0x0000742e:    1c49        I.      ADDS     r1,r1,#1
        0x00007430:    9100        ..      STR      r1,[sp,#0]
        0x00007432:    d101        ..      BNE      0x7438 ; btod_internal_mul + 420
        0x00007434:    1c7f        ..      ADDS     r7,r7,#1
        0x00007436:    9200        ..      STR      r2,[sp,#0]
        0x00007438:    2800        .(      CMP      r0,#0
        0x0000743a:    d003        ..      BEQ      0x7444 ; btod_internal_mul + 432
        0x0000743c:    2110        .!      MOVS     r1,#0x10
        0x0000743e:    4608        .F      MOV      r0,r1
        0x00007440:    2000        .       MOVS     r0,#0
        0x00007442:    46c0        .F      MOV      r8,r8
        0x00007444:    6828        (h      LDR      r0,[r5,#0]
        0x00007446:    6821        !h      LDR      r1,[r4,#0]
        0x00007448:    9b01        ..      LDR      r3,[sp,#4]
        0x0000744a:    9a00        ..      LDR      r2,[sp,#0]
        0x0000744c:    4048        H@      EORS     r0,r0,r1
        0x0000744e:    0fc1        ..      LSRS     r1,r0,#31
        0x00007450:    9805        ..      LDR      r0,[sp,#0x14]
        0x00007452:    07c9        ..      LSLS     r1,r1,#31
        0x00007454:    4339        9C      ORRS     r1,r1,r7
        0x00007456:    c00e        ..      STM      r0!,{r1-r3}
        0x00007458:    b009        ..      ADD      sp,sp,#0x24
        0x0000745a:    bdf0        ..      POP      {r4-r7,pc}
    btod_internal_div
        0x0000745c:    b5ff        ..      PUSH     {r0-r7,lr}
        0x0000745e:    b087        ..      SUB      sp,sp,#0x1c
        0x00007460:    9a09        ..      LDR      r2,[sp,#0x24]
        0x00007462:    9808        ..      LDR      r0,[sp,#0x20]
        0x00007464:    9908        ..      LDR      r1,[sp,#0x20]
        0x00007466:    6853        Sh      LDR      r3,[r2,#4]
        0x00007468:    6892        .h      LDR      r2,[r2,#8]
        0x0000746a:    6840        @h      LDR      r0,[r0,#4]
        0x0000746c:    6889        .h      LDR      r1,[r1,#8]
        0x0000746e:    4696        .F      MOV      lr,r2
        0x00007470:    2200        ."      MOVS     r2,#0
        0x00007472:    9303        ..      STR      r3,[sp,#0xc]
        0x00007474:    4617        .F      MOV      r7,r2
        0x00007476:    4694        .F      MOV      r12,r2
        0x00007478:    9a08        ..      LDR      r2,[sp,#0x20]
        0x0000747a:    6812        .h      LDR      r2,[r2,#0]
        0x0000747c:    0053        S.      LSLS     r3,r2,#1
        0x0000747e:    9a09        ..      LDR      r2,[sp,#0x24]
        0x00007480:    085b        [.      LSRS     r3,r3,#1
        0x00007482:    6812        .h      LDR      r2,[r2,#0]
        0x00007484:    0052        R.      LSLS     r2,r2,#1
        0x00007486:    0852        R.      LSRS     r2,r2,#1
        0x00007488:    1a9a        ..      SUBS     r2,r3,r2
        0x0000748a:    4b9b        .K      LDR      r3,[pc,#620] ; [0x76f8] = 0x3fff
        0x0000748c:    18d4        ..      ADDS     r4,r2,r3
        0x0000748e:    9a0a        ..      LDR      r2,[sp,#0x28]
        0x00007490:    2a00        .*      CMP      r2,#0
        0x00007492:    d001        ..      BEQ      0x7498 ; btod_internal_div + 60
        0x00007494:    2235        5"      MOVS     r2,#0x35
        0x00007496:    e000        ..      B        0x749a ; btod_internal_div + 62
        0x00007498:    2240        @"      MOVS     r2,#0x40
        0x0000749a:    9206        ..      STR      r2,[sp,#0x18]
        0x0000749c:    2200        ."      MOVS     r2,#0
        0x0000749e:    2301        .#      MOVS     r3,#1
        0x000074a0:    4615        .F      MOV      r5,r2
        0x000074a2:    9204        ..      STR      r2,[sp,#0x10]
        0x000074a4:    07db        ..      LSLS     r3,r3,#31
        0x000074a6:    9305        ..      STR      r3,[sp,#0x14]
        0x000074a8:    e024        $.      B        0x74f4 ; btod_internal_div + 152
        0x000074aa:    2d00        .-      CMP      r5,#0
        0x000074ac:    d105        ..      BNE      0x74ba ; btod_internal_div + 94
        0x000074ae:    4675        uF      MOV      r5,lr
        0x000074b0:    4603        .F      MOV      r3,r0
        0x000074b2:    9e03        ..      LDR      r6,[sp,#0xc]
        0x000074b4:    1b4d        M.      SUBS     r5,r1,r5
        0x000074b6:    41b3        .A      SBCS     r3,r3,r6
        0x000074b8:    d309        ..      BCC      0x74ce ; btod_internal_div + 114
        0x000074ba:    4675        uF      MOV      r5,lr
        0x000074bc:    4666        fF      MOV      r6,r12
        0x000074be:    9b03        ..      LDR      r3,[sp,#0xc]
        0x000074c0:    1b49        I.      SUBS     r1,r1,r5
        0x000074c2:    9d04        ..      LDR      r5,[sp,#0x10]
        0x000074c4:    4198        .A      SBCS     r0,r0,r3
        0x000074c6:    9b05        ..      LDR      r3,[sp,#0x14]
        0x000074c8:    1975        u.      ADDS     r5,r6,r5
        0x000074ca:    46ac        .F      MOV      r12,r5
        0x000074cc:    415f        _A      ADCS     r7,r7,r3
        0x000074ce:    4663        cF      MOV      r3,r12
        0x000074d0:    433b        ;C      ORRS     r3,r3,r7
        0x000074d2:    d008        ..      BEQ      0x74e6 ; btod_internal_div + 138
        0x000074d4:    9b05        ..      LDR      r3,[sp,#0x14]
        0x000074d6:    9e04        ..      LDR      r6,[sp,#0x10]
        0x000074d8:    07dd        ..      LSLS     r5,r3,#31
        0x000074da:    0876        v.      LSRS     r6,r6,#1
        0x000074dc:    432e        .C      ORRS     r6,r6,r5
        0x000074de:    085b        [.      LSRS     r3,r3,#1
        0x000074e0:    9604        ..      STR      r6,[sp,#0x10]
        0x000074e2:    9305        ..      STR      r3,[sp,#0x14]
        0x000074e4:    e001        ..      B        0x74ea ; btod_internal_div + 142
        0x000074e6:    1e64        d.      SUBS     r4,r4,#1
        0x000074e8:    1e52        R.      SUBS     r2,r2,#1
        0x000074ea:    0fc5        ..      LSRS     r5,r0,#31
        0x000074ec:    07ed        ..      LSLS     r5,r5,#31
        0x000074ee:    1849        I.      ADDS     r1,r1,r1
        0x000074f0:    4140        @A      ADCS     r0,r0,r0
        0x000074f2:    1c52        R.      ADDS     r2,r2,#1
        0x000074f4:    9b06        ..      LDR      r3,[sp,#0x18]
        0x000074f6:    429a        .B      CMP      r2,r3
        0x000074f8:    dbd7        ..      BLT      0x74aa ; btod_internal_div + 78
        0x000074fa:    2d00        .-      CMP      r5,#0
        0x000074fc:    d104        ..      BNE      0x7508 ; btod_internal_div + 172
        0x000074fe:    4675        uF      MOV      r5,lr
        0x00007500:    9a03        ..      LDR      r2,[sp,#0xc]
        0x00007502:    1a6b        k.      SUBS     r3,r5,r1
        0x00007504:    4182        .A      SBCS     r2,r2,r0
        0x00007506:    d201        ..      BCS      0x750c ; btod_internal_div + 176
        0x00007508:    2003        .       MOVS     r0,#3
        0x0000750a:    e00c        ..      B        0x7526 ; btod_internal_div + 202
        0x0000750c:    9a03        ..      LDR      r2,[sp,#0xc]
        0x0000750e:    460b        .F      MOV      r3,r1
        0x00007510:    406b        k@      EORS     r3,r3,r5
        0x00007512:    4042        B@      EORS     r2,r2,r0
        0x00007514:    4313        .C      ORRS     r3,r3,r2
        0x00007516:    d101        ..      BNE      0x751c ; btod_internal_div + 192
        0x00007518:    2002        .       MOVS     r0,#2
        0x0000751a:    e004        ..      B        0x7526 ; btod_internal_div + 202
        0x0000751c:    4301        .C      ORRS     r1,r1,r0
        0x0000751e:    d001        ..      BEQ      0x7524 ; btod_internal_div + 200
        0x00007520:    2001        .       MOVS     r0,#1
        0x00007522:    e000        ..      B        0x7526 ; btod_internal_div + 202
        0x00007524:    2000        .       MOVS     r0,#0
        0x00007526:    4661        aF      MOV      r1,r12
        0x00007528:    9101        ..      STR      r1,[sp,#4]
        0x0000752a:    2100        .!      MOVS     r1,#0
        0x0000752c:    9700        ..      STR      r7,[sp,#0]
        0x0000752e:    9102        ..      STR      r1,[sp,#8]
        0x00007530:    990a        ..      LDR      r1,[sp,#0x28]
        0x00007532:    2900        .)      CMP      r1,#0
        0x00007534:    d005        ..      BEQ      0x7542 ; btod_internal_div + 230
        0x00007536:    4661        aF      MOV      r1,r12
        0x00007538:    0240        @.      LSLS     r0,r0,#9
        0x0000753a:    4301        .C      ORRS     r1,r1,r0
        0x0000753c:    4b6d        mK      LDR      r3,[pc,#436] ; [0x76f4] = 0x3c01
        0x0000753e:    9101        ..      STR      r1,[sp,#4]
        0x00007540:    e002        ..      B        0x7548 ; btod_internal_div + 236
        0x00007542:    0780        ..      LSLS     r0,r0,#30
        0x00007544:    2300        .#      MOVS     r3,#0
        0x00007546:    9002        ..      STR      r0,[sp,#8]
        0x00007548:    429c        .B      CMP      r4,r3
        0x0000754a:    da3a        :.      BGE      0x75c2 ; btod_internal_div + 358
        0x0000754c:    1b1a        ..      SUBS     r2,r3,r4
        0x0000754e:    06d0        ..      LSLS     r0,r2,#27
        0x00007550:    0ec0        ..      LSRS     r0,r0,#27
        0x00007552:    d015        ..      BEQ      0x7580 ; btod_internal_div + 292
        0x00007554:    9d02        ..      LDR      r5,[sp,#8]
        0x00007556:    2120         !      MOVS     r1,#0x20
        0x00007558:    9c01        ..      LDR      r4,[sp,#4]
        0x0000755a:    1a09        ..      SUBS     r1,r1,r0
        0x0000755c:    40c5        .@      LSRS     r5,r5,r0
        0x0000755e:    408c        .@      LSLS     r4,r4,r1
        0x00007560:    4325        %C      ORRS     r5,r5,r4
        0x00007562:    9c02        ..      LDR      r4,[sp,#8]
        0x00007564:    408c        .@      LSLS     r4,r4,r1
        0x00007566:    d000        ..      BEQ      0x756a ; btod_internal_div + 270
        0x00007568:    2401        .$      MOVS     r4,#1
        0x0000756a:    4325        %C      ORRS     r5,r5,r4
        0x0000756c:    9c01        ..      LDR      r4,[sp,#4]
        0x0000756e:    9502        ..      STR      r5,[sp,#8]
        0x00007570:    463d        =F      MOV      r5,r7
        0x00007572:    40c4        .@      LSRS     r4,r4,r0
        0x00007574:    408d        .@      LSLS     r5,r5,r1
        0x00007576:    4639        9F      MOV      r1,r7
        0x00007578:    432c        ,C      ORRS     r4,r4,r5
        0x0000757a:    40c1        .@      LSRS     r1,r1,r0
        0x0000757c:    9401        ..      STR      r4,[sp,#4]
        0x0000757e:    9100        ..      STR      r1,[sp,#0]
        0x00007580:    1154        T.      ASRS     r4,r2,#5
        0x00007582:    d01d        ..      BEQ      0x75c0 ; btod_internal_div + 356
        0x00007584:    466d        mF      MOV      r5,sp
        0x00007586:    2102        .!      MOVS     r1,#2
        0x00007588:    2200        ."      MOVS     r2,#0
        0x0000758a:    2902        .)      CMP      r1,#2
        0x0000758c:    d10c        ..      BNE      0x75a8 ; btod_internal_div + 332
        0x0000758e:    2003        .       MOVS     r0,#3
        0x00007590:    1b00        ..      SUBS     r0,r0,r4
        0x00007592:    e007        ..      B        0x75a4 ; btod_internal_div + 328
        0x00007594:    2800        .(      CMP      r0,#0
        0x00007596:    db04        ..      BLT      0x75a2 ; btod_internal_div + 326
        0x00007598:    0086        ..      LSLS     r6,r0,#2
        0x0000759a:    59ae        .Y      LDR      r6,[r5,r6]
        0x0000759c:    2e00        ..      CMP      r6,#0
        0x0000759e:    d000        ..      BEQ      0x75a2 ; btod_internal_div + 326
        0x000075a0:    2201        ."      MOVS     r2,#1
        0x000075a2:    1c40        @.      ADDS     r0,r0,#1
        0x000075a4:    2803        .(      CMP      r0,#3
        0x000075a6:    dbf5        ..      BLT      0x7594 ; btod_internal_div + 312
        0x000075a8:    1b08        ..      SUBS     r0,r1,r4
        0x000075aa:    d502        ..      BPL      0x75b2 ; btod_internal_div + 342
        0x000075ac:    0088        ..      LSLS     r0,r1,#2
        0x000075ae:    502a        *P      STR      r2,[r5,r0]
        0x000075b0:    e004        ..      B        0x75bc ; btod_internal_div + 352
        0x000075b2:    0080        ..      LSLS     r0,r0,#2
        0x000075b4:    5828        (X      LDR      r0,[r5,r0]
        0x000075b6:    4310        .C      ORRS     r0,r0,r2
        0x000075b8:    008a        ..      LSLS     r2,r1,#2
        0x000075ba:    50a8        .P      STR      r0,[r5,r2]
        0x000075bc:    1e49        I.      SUBS     r1,r1,#1
        0x000075be:    d5e3        ..      BPL      0x7588 ; btod_internal_div + 300
        0x000075c0:    461c        .F      MOV      r4,r3
        0x000075c2:    980a        ..      LDR      r0,[sp,#0x28]
        0x000075c4:    2800        .(      CMP      r0,#0
        0x000075c6:    9802        ..      LDR      r0,[sp,#8]
        0x000075c8:    d00c        ..      BEQ      0x75e4 ; btod_internal_div + 392
        0x000075ca:    2800        .(      CMP      r0,#0
        0x000075cc:    d000        ..      BEQ      0x75d0 ; btod_internal_div + 372
        0x000075ce:    2001        .       MOVS     r0,#1
        0x000075d0:    9901        ..      LDR      r1,[sp,#4]
        0x000075d2:    9a01        ..      LDR      r2,[sp,#4]
        0x000075d4:    0549        I.      LSLS     r1,r1,#21
        0x000075d6:    4308        .C      ORRS     r0,r0,r1
        0x000075d8:    2101        .!      MOVS     r1,#1
        0x000075da:    0ad2        ..      LSRS     r2,r2,#11
        0x000075dc:    02c9        ..      LSLS     r1,r1,#11
        0x000075de:    02d2        ..      LSLS     r2,r2,#11
        0x000075e0:    9201        ..      STR      r2,[sp,#4]
        0x000075e2:    e000        ..      B        0x75e6 ; btod_internal_div + 394
        0x000075e4:    2101        .!      MOVS     r1,#1
        0x000075e6:    9b10        ..      LDR      r3,[sp,#0x40]
        0x000075e8:    2201        ."      MOVS     r2,#1
        0x000075ea:    07d2        ..      LSLS     r2,r2,#31
        0x000075ec:    2b01        .+      CMP      r3,#1
        0x000075ee:    d002        ..      BEQ      0x75f6 ; btod_internal_div + 410
        0x000075f0:    2b00        .+      CMP      r3,#0
        0x000075f2:    d003        ..      BEQ      0x75fc ; btod_internal_div + 416
        0x000075f4:    e013        ..      B        0x761e ; btod_internal_div + 450
        0x000075f6:    2800        .(      CMP      r0,#0
        0x000075f8:    d107        ..      BNE      0x760a ; btod_internal_div + 430
        0x000075fa:    e016        ..      B        0x762a ; btod_internal_div + 462
        0x000075fc:    4290        .B      CMP      r0,r2
        0x000075fe:    d804        ..      BHI      0x760a ; btod_internal_div + 430
        0x00007600:    4290        .B      CMP      r0,r2
        0x00007602:    d10c        ..      BNE      0x761e ; btod_internal_div + 450
        0x00007604:    9b01        ..      LDR      r3,[sp,#4]
        0x00007606:    420b        .B      TST      r3,r1
        0x00007608:    d009        ..      BEQ      0x761e ; btod_internal_div + 450
        0x0000760a:    9b01        ..      LDR      r3,[sp,#4]
        0x0000760c:    1859        Y.      ADDS     r1,r3,r1
        0x0000760e:    9101        ..      STR      r1,[sp,#4]
        0x00007610:    d105        ..      BNE      0x761e ; btod_internal_div + 450
        0x00007612:    9900        ..      LDR      r1,[sp,#0]
        0x00007614:    1c49        I.      ADDS     r1,r1,#1
        0x00007616:    9100        ..      STR      r1,[sp,#0]
        0x00007618:    d101        ..      BNE      0x761e ; btod_internal_div + 450
        0x0000761a:    1c64        d.      ADDS     r4,r4,#1
        0x0000761c:    9200        ..      STR      r2,[sp,#0]
        0x0000761e:    2800        .(      CMP      r0,#0
        0x00007620:    d003        ..      BEQ      0x762a ; btod_internal_div + 462
        0x00007622:    2110        .!      MOVS     r1,#0x10
        0x00007624:    4608        .F      MOV      r0,r1
        0x00007626:    2000        .       MOVS     r0,#0
        0x00007628:    46c0        .F      MOV      r8,r8
        0x0000762a:    9808        ..      LDR      r0,[sp,#0x20]
        0x0000762c:    9909        ..      LDR      r1,[sp,#0x24]
        0x0000762e:    9a01        ..      LDR      r2,[sp,#4]
        0x00007630:    6800        .h      LDR      r0,[r0,#0]
        0x00007632:    6809        .h      LDR      r1,[r1,#0]
        0x00007634:    4048        H@      EORS     r0,r0,r1
        0x00007636:    9900        ..      LDR      r1,[sp,#0]
        0x00007638:    0fc3        ..      LSRS     r3,r0,#31
        0x0000763a:    9807        ..      LDR      r0,[sp,#0x1c]
        0x0000763c:    07db        ..      LSLS     r3,r3,#31
        0x0000763e:    4323        #C      ORRS     r3,r3,r4
        0x00007640:    6003        .`      STR      r3,[r0,#0]
        0x00007642:    6082        .`      STR      r2,[r0,#8]
        0x00007644:    6041        A`      STR      r1,[r0,#4]
        0x00007646:    b00b        ..      ADD      sp,sp,#0x2c
        0x00007648:    bdf0        ..      POP      {r4-r7,pc}
    _btod_emul
        0x0000764a:    b51f        ..      PUSH     {r0-r4,lr}
        0x0000764c:    2300        .#      MOVS     r3,#0
        0x0000764e:    9200        ..      STR      r2,[sp,#0]
        0x00007650:    460a        .F      MOV      r2,r1
        0x00007652:    4601        .F      MOV      r1,r0
        0x00007654:    a801        ..      ADD      r0,sp,#4
        0x00007656:    f7fffe1d    ....    BL       btod_internal_mul ; 0x7294
        0x0000765a:    a801        ..      ADD      r0,sp,#4
        0x0000765c:    c807        ..      LDM      r0,{r0-r2}
        0x0000765e:    b004        ..      ADD      sp,sp,#0x10
        0x00007660:    bd10        ..      POP      {r4,pc}
    _btod_emuld
        0x00007662:    b51f        ..      PUSH     {r0-r4,lr}
        0x00007664:    2301        .#      MOVS     r3,#1
        0x00007666:    9200        ..      STR      r2,[sp,#0]
        0x00007668:    460a        .F      MOV      r2,r1
        0x0000766a:    4601        .F      MOV      r1,r0
        0x0000766c:    a801        ..      ADD      r0,sp,#4
        0x0000766e:    f7fffe11    ....    BL       btod_internal_mul ; 0x7294
        0x00007672:    a801        ..      ADD      r0,sp,#4
        0x00007674:    240f        .$      MOVS     r4,#0xf
        0x00007676:    c807        ..      LDM      r0,{r0-r2}
        0x00007678:    02a4        ..      LSLS     r4,r4,#10
        0x0000767a:    0fc3        ..      LSRS     r3,r0,#31
        0x0000767c:    0040        @.      LSLS     r0,r0,#1
        0x0000767e:    07db        ..      LSLS     r3,r3,#31
        0x00007680:    0840        @.      LSRS     r0,r0,#1
        0x00007682:    1b00        ..      SUBS     r0,r0,r4
        0x00007684:    2900        .)      CMP      r1,#0
        0x00007686:    db00        ..      BLT      0x768a ; _btod_emuld + 40
        0x00007688:    2000        .       MOVS     r0,#0
        0x0000768a:    0049        I.      LSLS     r1,r1,#1
        0x0000768c:    0500        ..      LSLS     r0,r0,#20
        0x0000768e:    0849        I.      LSRS     r1,r1,#1
        0x00007690:    0acc        ..      LSRS     r4,r1,#11
        0x00007692:    4320         C      ORRS     r0,r0,r4
        0x00007694:    0549        I.      LSLS     r1,r1,#21
        0x00007696:    4318        .C      ORRS     r0,r0,r3
        0x00007698:    0ad2        ..      LSRS     r2,r2,#11
        0x0000769a:    4311        .C      ORRS     r1,r1,r2
        0x0000769c:    e7df        ..      B        0x765e ; _btod_emul + 20
    _btod_ediv
        0x0000769e:    b51f        ..      PUSH     {r0-r4,lr}
        0x000076a0:    2300        .#      MOVS     r3,#0
        0x000076a2:    9200        ..      STR      r2,[sp,#0]
        0x000076a4:    460a        .F      MOV      r2,r1
        0x000076a6:    4601        .F      MOV      r1,r0
        0x000076a8:    a801        ..      ADD      r0,sp,#4
        0x000076aa:    f7fffed7    ....    BL       btod_internal_div ; 0x745c
        0x000076ae:    a801        ..      ADD      r0,sp,#4
        0x000076b0:    c807        ..      LDM      r0,{r0-r2}
        0x000076b2:    e7d4        ..      B        0x765e ; _btod_emul + 20
    _btod_edivd
        0x000076b4:    b51f        ..      PUSH     {r0-r4,lr}
        0x000076b6:    2301        .#      MOVS     r3,#1
        0x000076b8:    9200        ..      STR      r2,[sp,#0]
        0x000076ba:    460a        .F      MOV      r2,r1
        0x000076bc:    4601        .F      MOV      r1,r0
        0x000076be:    a801        ..      ADD      r0,sp,#4
        0x000076c0:    f7fffecc    ....    BL       btod_internal_div ; 0x745c
        0x000076c4:    a801        ..      ADD      r0,sp,#4
        0x000076c6:    240f        .$      MOVS     r4,#0xf
        0x000076c8:    c807        ..      LDM      r0,{r0-r2}
        0x000076ca:    02a4        ..      LSLS     r4,r4,#10
        0x000076cc:    0fc3        ..      LSRS     r3,r0,#31
        0x000076ce:    0040        @.      LSLS     r0,r0,#1
        0x000076d0:    07db        ..      LSLS     r3,r3,#31
        0x000076d2:    0840        @.      LSRS     r0,r0,#1
        0x000076d4:    1b00        ..      SUBS     r0,r0,r4
        0x000076d6:    2900        .)      CMP      r1,#0
        0x000076d8:    db00        ..      BLT      0x76dc ; _btod_edivd + 40
        0x000076da:    2000        .       MOVS     r0,#0
        0x000076dc:    0049        I.      LSLS     r1,r1,#1
        0x000076de:    0500        ..      LSLS     r0,r0,#20
        0x000076e0:    0849        I.      LSRS     r1,r1,#1
        0x000076e2:    0acc        ..      LSRS     r4,r1,#11
        0x000076e4:    4320         C      ORRS     r0,r0,r4
        0x000076e6:    0549        I.      LSLS     r1,r1,#21
        0x000076e8:    4318        .C      ORRS     r0,r0,r3
        0x000076ea:    0ad2        ..      LSRS     r2,r2,#11
        0x000076ec:    4311        .C      ORRS     r1,r1,r2
        0x000076ee:    e7b6        ..      B        0x765e ; _btod_emul + 20
    $d
        0x000076f0:    ffffc002    ....    DCD    4294950914
        0x000076f4:    00003c01    .<..    DCD    15361
        0x000076f8:    00003fff    .?..    DCD    16383
    $t
    .text
    exit
        0x000076fc:    4604        .F      MOV      r4,r0
        0x000076fe:    46c0        .F      MOV      r8,r8
        0x00007700:    46c0        .F      MOV      r8,r8
        0x00007702:    4620         F      MOV      r0,r4
        0x00007704:    f7f8fda8    ....    BL       __rt_exit ; 0x258
    .text
    __user_libspace
    __user_perproc_libspace
    __user_perthread_libspace
        0x00007708:    4800        .H      LDR      r0,[pc,#0] ; [0x770c] = 0x200006d8
        0x0000770a:    4770        pG      BX       lr
    $d
        0x0000770c:    200006d8    ...     DCD    536872664
    $t
    .text
    strcmp
        0x00007710:    4602        .F      MOV      r2,r0
        0x00007712:    b570        p.      PUSH     {r4-r6,lr}
        0x00007714:    430a        .C      ORRS     r2,r2,r1
        0x00007716:    0792        ..      LSLS     r2,r2,#30
        0x00007718:    d12a        *.      BNE      0x7770 ; strcmp + 96
        0x0000771a:    4d1e        .M      LDR      r5,[pc,#120] ; [0x7794] = 0x1010101
        0x0000771c:    01ee        ..      LSLS     r6,r5,#7
        0x0000771e:    c804        ..      LDM      r0!,{r2}
        0x00007720:    c908        ..      LDM      r1!,{r3}
        0x00007722:    1b54        T.      SUBS     r4,r2,r5
        0x00007724:    4394        .C      BICS     r4,r4,r2
        0x00007726:    4034        4@      ANDS     r4,r4,r6
        0x00007728:    d017        ..      BEQ      0x775a ; strcmp + 74
        0x0000772a:    b2d0        ..      UXTB     r0,r2
        0x0000772c:    b2d9        ..      UXTB     r1,r3
        0x0000772e:    1a40        @.      SUBS     r0,r0,r1
        0x00007730:    0621        !.      LSLS     r1,r4,#24
        0x00007732:    4301        .C      ORRS     r1,r1,r0
        0x00007734:    d110        ..      BNE      0x7758 ; strcmp + 72
        0x00007736:    b290        ..      UXTH     r0,r2
        0x00007738:    b299        ..      UXTH     r1,r3
        0x0000773a:    1a40        @.      SUBS     r0,r0,r1
        0x0000773c:    0421        !.      LSLS     r1,r4,#16
        0x0000773e:    4301        .C      ORRS     r1,r1,r0
        0x00007740:    d10a        ..      BNE      0x7758 ; strcmp + 72
        0x00007742:    0210        ..      LSLS     r0,r2,#8
        0x00007744:    0219        ..      LSLS     r1,r3,#8
        0x00007746:    0a00        ..      LSRS     r0,r0,#8
        0x00007748:    0a09        ..      LSRS     r1,r1,#8
        0x0000774a:    1a40        @.      SUBS     r0,r0,r1
        0x0000774c:    0221        !.      LSLS     r1,r4,#8
        0x0000774e:    4301        .C      ORRS     r1,r1,r0
        0x00007750:    d102        ..      BNE      0x7758 ; strcmp + 72
        0x00007752:    0e10        ..      LSRS     r0,r2,#24
        0x00007754:    0e19        ..      LSRS     r1,r3,#24
        0x00007756:    1a40        @.      SUBS     r0,r0,r1
        0x00007758:    bd70        p.      POP      {r4-r6,pc}
        0x0000775a:    429a        .B      CMP      r2,r3
        0x0000775c:    d0df        ..      BEQ      0x771e ; strcmp + 14
        0x0000775e:    ba10        ..      REV      r0,r2
        0x00007760:    ba19        ..      REV      r1,r3
        0x00007762:    4288        .B      CMP      r0,r1
        0x00007764:    d901        ..      BLS      0x776a ; strcmp + 90
        0x00007766:    2001        .       MOVS     r0,#1
        0x00007768:    bd70        p.      POP      {r4-r6,pc}
        0x0000776a:    2000        .       MOVS     r0,#0
        0x0000776c:    43c0        .C      MVNS     r0,r0
        0x0000776e:    bd70        p.      POP      {r4-r6,pc}
        0x00007770:    7802        .x      LDRB     r2,[r0,#0]
        0x00007772:    780b        .x      LDRB     r3,[r1,#0]
        0x00007774:    1c40        @.      ADDS     r0,r0,#1
        0x00007776:    1c49        I.      ADDS     r1,r1,#1
        0x00007778:    2a00        .*      CMP      r2,#0
        0x0000777a:    d009        ..      BEQ      0x7790 ; strcmp + 128
        0x0000777c:    429a        .B      CMP      r2,r3
        0x0000777e:    d107        ..      BNE      0x7790 ; strcmp + 128
        0x00007780:    7802        .x      LDRB     r2,[r0,#0]
        0x00007782:    780b        .x      LDRB     r3,[r1,#0]
        0x00007784:    1c40        @.      ADDS     r0,r0,#1
        0x00007786:    1c49        I.      ADDS     r1,r1,#1
        0x00007788:    2a00        .*      CMP      r2,#0
        0x0000778a:    d001        ..      BEQ      0x7790 ; strcmp + 128
        0x0000778c:    429a        .B      CMP      r2,r3
        0x0000778e:    d0ef        ..      BEQ      0x7770 ; strcmp + 96
        0x00007790:    1ad0        ..      SUBS     r0,r2,r3
        0x00007792:    bd70        p.      POP      {r4-r6,pc}
    $d
        0x00007794:    01010101    ....    DCD    16843009
    $t
    .text
    _sys_exit
        0x00007798:    4901        .I      LDR      r1,[pc,#4] ; [0x77a0] = 0x20026
        0x0000779a:    2018        .       MOVS     r0,#0x18
        0x0000779c:    beab        ..      BKPT     #0xab
        0x0000779e:    e7fe        ..      B        0x779e ; _sys_exit + 6
    $d
        0x000077a0:    00020026    &...    DCD    131110
    $t
    .text
    __I$use$semihosting
    __use_no_semihosting_swi
        0x000077a4:    4770        pG      BX       lr
    i.__ARM_common_ll_muluu
    .text
    __ARM_common_ll_muluu
    __semihosting_library_function
        0x000077a6:    b5f8        ..      PUSH     {r3-r7,lr}
        0x000077a8:    0c04        ..      LSRS     r4,r0,#16
        0x000077aa:    b28b        ..      UXTH     r3,r1
        0x000077ac:    4626        &F      MOV      r6,r4
        0x000077ae:    b282        ..      UXTH     r2,r0
        0x000077b0:    435e        ^C      MULS     r6,r3,r6
        0x000077b2:    4610        .F      MOV      r0,r2
        0x000077b4:    4358        XC      MULS     r0,r3,r0
        0x000077b6:    0c0d        ..      LSRS     r5,r1,#16
        0x000077b8:    0c37        7.      LSRS     r7,r6,#16
        0x000077ba:    0436        6.      LSLS     r6,r6,#16
        0x000077bc:    2100        .!      MOVS     r1,#0
        0x000077be:    1980        ..      ADDS     r0,r0,r6
        0x000077c0:    4616        .F      MOV      r6,r2
        0x000077c2:    4179        yA      ADCS     r1,r1,r7
        0x000077c4:    436e        nC      MULS     r6,r5,r6
        0x000077c6:    0c37        7.      LSRS     r7,r6,#16
        0x000077c8:    0436        6.      LSLS     r6,r6,#16
        0x000077ca:    1980        ..      ADDS     r0,r0,r6
        0x000077cc:    4626        &F      MOV      r6,r4
        0x000077ce:    4179        yA      ADCS     r1,r1,r7
        0x000077d0:    436e        nC      MULS     r6,r5,r6
        0x000077d2:    1989        ..      ADDS     r1,r1,r6
        0x000077d4:    bdf8        ..      POP      {r3-r7,pc}
    i.__ARM_common_switch8
    __ARM_common_switch8
        0x000077d6:    b430        0.      PUSH     {r4,r5}
        0x000077d8:    4674        tF      MOV      r4,lr
        0x000077da:    1e64        d.      SUBS     r4,r4,#1
        0x000077dc:    7825        %x      LDRB     r5,[r4,#0]
        0x000077de:    1c64        d.      ADDS     r4,r4,#1
        0x000077e0:    42ab        .B      CMP      r3,r5
        0x000077e2:    d200        ..      BCS      0x77e6 ; __ARM_common_switch8 + 16
        0x000077e4:    461d        .F      MOV      r5,r3
        0x000077e6:    5d63        c]      LDRB     r3,[r4,r5]
        0x000077e8:    005b        [.      LSLS     r3,r3,#1
        0x000077ea:    18e3        ..      ADDS     r3,r4,r3
        0x000077ec:    bc30        0.      POP      {r4,r5}
        0x000077ee:    4718        .G      BX       r3
    i.__ARM_fpclassify
    __ARM_fpclassify
        0x000077f0:    0049        I.      LSLS     r1,r1,#1
        0x000077f2:    02ca        ..      LSLS     r2,r1,#11
        0x000077f4:    4310        .C      ORRS     r0,r0,r2
        0x000077f6:    d000        ..      BEQ      0x77fa ; __ARM_fpclassify + 10
        0x000077f8:    2004        .       MOVS     r0,#4
        0x000077fa:    0d4a        J.      LSRS     r2,r1,#21
        0x000077fc:    d001        ..      BEQ      0x7802 ; __ARM_fpclassify + 18
        0x000077fe:    2201        ."      MOVS     r2,#1
        0x00007800:    4310        .C      ORRS     r0,r0,r2
        0x00007802:    4a05        .J      LDR      r2,[pc,#20] ; [0x7818] = 0x7ff
        0x00007804:    0d49        I.      LSRS     r1,r1,#21
        0x00007806:    4291        .B      CMP      r1,r2
        0x00007808:    d101        ..      BNE      0x780e ; __ARM_fpclassify + 30
        0x0000780a:    2102        .!      MOVS     r1,#2
        0x0000780c:    4308        .C      ORRS     r0,r0,r1
        0x0000780e:    2801        .(      CMP      r0,#1
        0x00007810:    d100        ..      BNE      0x7814 ; __ARM_fpclassify + 36
        0x00007812:    2005        .       MOVS     r0,#5
        0x00007814:    4770        pG      BX       lr
    $d
        0x00007816:    0000        ..      DCW    0
        0x00007818:    000007ff    ....    DCD    2047
    $t
    i._is_digit
    _is_digit
        0x0000781c:    3830        08      SUBS     r0,r0,#0x30
        0x0000781e:    280a        .(      CMP      r0,#0xa
        0x00007820:    d201        ..      BCS      0x7826 ; _is_digit + 10
        0x00007822:    2001        .       MOVS     r0,#1
        0x00007824:    4770        pG      BX       lr
        0x00007826:    2000        .       MOVS     r0,#0
        0x00007828:    4770        pG      BX       lr
        0x0000782a:    0000        ..      MOVS     r0,r0
    locale$$code
    _get_lc_numeric
        0x0000782c:    b510        ..      PUSH     {r4,lr}
        0x0000782e:    2900        .)      CMP      r1,#0
        0x00007830:    d00a        ..      BEQ      0x7848 ; _get_lc_numeric + 28
        0x00007832:    7808        .x      LDRB     r0,[r1,#0]
        0x00007834:    2800        .(      CMP      r0,#0
        0x00007836:    d007        ..      BEQ      0x7848 ; _get_lc_numeric + 28
        0x00007838:    4805        .H      LDR      r0,[pc,#20] ; [0x7850] = 0x556
        0x0000783a:    4478        xD      ADD      r0,r0,pc
        0x0000783c:    f7ffff68    ..h.    BL       strcmp ; 0x7710
        0x00007840:    2800        .(      CMP      r0,#0
        0x00007842:    d001        ..      BEQ      0x7848 ; _get_lc_numeric + 28
        0x00007844:    2000        .       MOVS     r0,#0
        0x00007846:    bd10        ..      POP      {r4,pc}
        0x00007848:    4802        .H      LDR      r0,[pc,#8] ; [0x7854] = 0x54e
        0x0000784a:    4478        xD      ADD      r0,r0,pc
        0x0000784c:    bd10        ..      POP      {r4,pc}
    $d
        0x0000784e:    0000        ..      DCW    0
        0x00007850:    00000556    V...    DCD    1366
        0x00007854:    0000054e    N...    DCD    1358
    $t
    locale$$code
    _get_lc_ctype
        0x00007858:    b510        ..      PUSH     {r4,lr}
        0x0000785a:    2900        .)      CMP      r1,#0
        0x0000785c:    d00a        ..      BEQ      0x7874 ; _get_lc_ctype + 28
        0x0000785e:    7808        .x      LDRB     r0,[r1,#0]
        0x00007860:    2800        .(      CMP      r0,#0
        0x00007862:    d007        ..      BEQ      0x7874 ; _get_lc_ctype + 28
        0x00007864:    4805        .H      LDR      r0,[pc,#20] ; [0x787c] = 0x546
        0x00007866:    4478        xD      ADD      r0,r0,pc
        0x00007868:    f7ffff52    ..R.    BL       strcmp ; 0x7710
        0x0000786c:    2800        .(      CMP      r0,#0
        0x0000786e:    d001        ..      BEQ      0x7874 ; _get_lc_ctype + 28
        0x00007870:    2000        .       MOVS     r0,#0
        0x00007872:    bd10        ..      POP      {r4,pc}
        0x00007874:    4802        .H      LDR      r0,[pc,#8] ; [0x7880] = 0x53e
        0x00007876:    4478        xD      ADD      r0,r0,pc
        0x00007878:    bd10        ..      POP      {r4,pc}
    $d
        0x0000787a:    0000        ..      DCW    0
        0x0000787c:    00000546    F...    DCD    1350
        0x00007880:    0000053e    >...    DCD    1342
    $t
    x$fpl$printf1
    _printf_fp_dec
        0x00007884:    b403        ..      PUSH     {r0,r1}
        0x00007886:    4802        .H      LDR      r0,[pc,#8] ; [0x7890] = 0xfffff507
        0x00007888:    4478        xD      ADD      r0,r0,pc
        0x0000788a:    4684        .F      MOV      r12,r0
        0x0000788c:    bc03        ..      POP      {r0,r1}
        0x0000788e:    4760        `G      BX       r12
    $d
        0x00007890:    fffff507    ....    DCD    4294964487
    $d.realdata
    .constdata
    x$fpl$usenofp
    __I$use$fp
    gau32ClkSrcTbl
        0x00007894:    00b71b00    ....    DCD    12000000
        0x00007898:    00000000    ....    DCD    0
        0x0000789c:    02faf080    ....    DCD    50000000
        0x000078a0:    00002710    .'..    DCD    10000
        0x000078a4:    00000000    ....    DCD    0
        0x000078a8:    00000000    ....    DCD    0
        0x000078ac:    00000000    ....    DCD    0
        0x000078b0:    01518000    ..Q.    DCD    22118400
    .constdata
        0x000078b4:    3169724e    Nri1    DCD    828994126
        0x000078b8:    0000002f    /...    DCD    47
        0x000078bc:    00000000    ....    DCD    0
        0x000078c0:    00000000    ....    DCD    0
        0x000078c4:    00000000    ....    DCD    0
        0x000078c8:    00000000    ....    DCD    0
        0x000078cc:    00000000    ....    DCD    0
        0x000078d0:    00000000    ....    DCD    0
        0x000078d4:    00000000    ....    DCD    0
    .constdata
    CustermTable
        0x000078d8:    00007d18    .}..    DCD    32024
        0x000078dc:    00000fc7    ....    DCD    4039
        0x000078e0:    00007d33    3}..    DCD    32051
        0x000078e4:    0000107b    {...    DCD    4219
        0x000078e8:    00007cee    .|..    DCD    31982
        0x000078ec:    00001135    5...    DCD    4405
        0x000078f0:    00007c9f    .|..    DCD    31903
        0x000078f4:    000011e9    ....    DCD    4585
        0x000078f8:    00007cd7    .|..    DCD    31959
        0x000078fc:    00000edb    ....    DCD    3803
        0x00007900:    00007d20     }..    DCD    32032
        0x00007904:    00000ee3    ....    DCD    3811
        0x00007908:    00007c8c    .|..    DCD    31884
        0x0000790c:    00000eeb    ....    DCD    3819
        0x00007910:    00007c97    .|..    DCD    31895
        0x00007914:    00000eef    ....    DCD    3823
        0x00007918:    00007c85    .|..    DCD    31877
        0x0000791c:    00000ef7    ....    DCD    3831
        0x00007920:    00007c90    .|..    DCD    31888
        0x00007924:    00000efb    ....    DCD    3835
        0x00007928:    00007d0e    .}..    DCD    32014
        0x0000792c:    00000eff    ....    DCD    3839
        0x00007930:    00007d06    .}..    DCD    32006
        0x00007934:    00000f95    ....    DCD    3989
        0x00007938:    00007d2d    -}..    DCD    32045
        0x0000793c:    0000129f    ....    DCD    4767
        0x00007940:    00007c9b    .|..    DCD    31899
        0x00007944:    00000f03    ....    DCD    3843
        0x00007948:    00007ce8    .|..    DCD    31976
        0x0000794c:    000013e5    ....    DCD    5093
        0x00007950:    00007cdb    .|..    DCD    31963
        0x00007954:    000014b5    ....    DCD    5301
        0x00007958:    00007cbd    .|..    DCD    31933
        0x0000795c:    00001627    '...    DCD    5671
        0x00007960:    00007cfd    .|..    DCD    31997
        0x00007964:    0000162b    +...    DCD    5675
        0x00007968:    00007ccf    .|..    DCD    31951
        0x0000796c:    0000162f    /...    DCD    5679
        0x00007970:    00007cc8    .|..    DCD    31944
        0x00007974:    00000ef3    ....    DCD    3827
        0x00007978:    00007d27    '}..    DCD    32039
        0x0000797c:    00000f07    ....    DCD    3847
        0x00007980:    00007cf8    .|..    DCD    31992
        0x00007984:    00000f0b    ....    DCD    3851
        0x00007988:    00007cb9    .|..    DCD    31929
        0x0000798c:    00001653    S...    DCD    5715
        0x00007990:    00007ce0    .|..    DCD    31968
        0x00007994:    000016e5    ....    DCD    5861
        0x00007998:    00007cc3    .|..    DCD    31939
        0x0000799c:    0000171b    ....    DCD    5915
        0x000079a0:    00007cb0    .|..    DCD    31920
        0x000079a4:    00001853    S...    DCD    6227
        0x000079a8:    00007cb4    .|..    DCD    31924
        0x000079ac:    00001891    ....    DCD    6289
        0x000079b0:    00007d02    .}..    DCD    32002
        0x000079b4:    000018bd    ....    DCD    6333
        0x000079b8:    00007caa    .|..    DCD    31914
        0x000079bc:    00001515    ....    DCD    5397
        0x000079c0:    00000000    ....    DCD    0
        0x000079c4:    00000000    ....    DCD    0
    .constdata
    table
        0x000079c8:    33323130    0123    DCD    858927408
        0x000079cc:    37363534    4567    DCD    926299444
        0x000079d0:    42413938    89AB    DCD    1111570744
        0x000079d4:    46454443    CDEF    DCD    1178944579
    .constdata
        0x000079d8:    432b5441    AT+C    DCD    1126913089
        0x000079dc:    4c564c56    VLVL    DCD    1280724054
        0x000079e0:    2d2c313d    =1,-    DCD    757870909
        0x000079e4:    30303231    1200    DCD    808464945
        0x000079e8:    56432b3b    ;+CV    DCD    1447242555
        0x000079ec:    3d4c564c    LVL=    DCD    1028413004
        0x000079f0:    362d2c32    2,-6    DCD    908930098
        0x000079f4:    2b3b3030    00;+    DCD    725299248
        0x000079f8:    564c5643    CVLV    DCD    1447843395
        0x000079fc:    2c333d4c    L=3,    DCD    741555532
        0x00007a00:    3030322d    -200    DCD    808464941
        0x00007a04:    56432b3b    ;+CV    DCD    1447242555
        0x00007a08:    3d4c564c    LVL=    DCD    1028413004
        0x00007a0c:    30312c34    4,10    DCD    808528948
        0x00007a10:    432b3b30    0;+C    DCD    1126906672
        0x00007a14:    4c564c56    VLVL    DCD    1280724054
        0x00007a18:    342c353d    =5,4    DCD    875312445
        0x00007a1c:    2b3b3030    00;+    DCD    725299248
        0x00007a20:    564c5643    CVLV    DCD    1447843395
        0x00007a24:    2c363d4c    L=6,    DCD    741752140
        0x00007a28:    3b303038    800;    DCD    993013816
        0x00007a2c:    4c56432b    +CVL    DCD    1280721707
        0x00007a30:    373d4c56    VL=7    DCD    926764118
        0x00007a34:    3030312c    ,100    DCD    808464684
        0x00007a38:    000a0d30    0...    DCD    658736
    .constdata
    maptable
        0x00007a3c:    08000004    ....    DCD    134217732
        0x00007a40:    00000000    ....    DCD    0
        0x00007a44:    02000000    ....    DCD    33554432
        0x00007a48:    00000100    ....    DCD    256
        0x00007a4c:    00000010    ....    DCD    16
    .constdata
    initial_mbstate
        0x00007a50:    00000000    ....    DCD    0
        0x00007a54:    00000000    ....    DCD    0
    .constdata
    uc_hextab
        0x00007a58:    33323130    0123    DCD    858927408
        0x00007a5c:    37363534    4567    DCD    926299444
        0x00007a60:    42413938    89AB    DCD    1111570744
        0x00007a64:    46454443    CDEF    DCD    1178944579
        0x00007a68:    00583040    @0X.    DCD    5779520
    lc_hextab
        0x00007a6c:    33323130    0123    DCD    858927408
        0x00007a70:    37363534    4567    DCD    926299444
        0x00007a74:    62613938    89ab    DCD    1650538808
        0x00007a78:    66656463    cdef    DCD    1717920867
        0x00007a7c:    00783040    @0x.    DCD    7876672
    .constdata
    tenpwrs_x
        0x00007a80:    00004002    .@..    DCD    16386
        0x00007a84:    a0000000    ....    DCD    2684354560
        0x00007a88:    00000000    ....    DCD    0
        0x00007a8c:    00004005    .@..    DCD    16389
        0x00007a90:    c8000000    ....    DCD    3355443200
        0x00007a94:    00000000    ....    DCD    0
        0x00007a98:    0000400c    .@..    DCD    16396
        0x00007a9c:    9c400000    ..@.    DCD    2621440000
        0x00007aa0:    00000000    ....    DCD    0
        0x00007aa4:    00004019    .@..    DCD    16409
        0x00007aa8:    bebc2000    . ..    DCD    3200000000
        0x00007aac:    00000000    ....    DCD    0
        0x00007ab0:    00004034    4@..    DCD    16436
        0x00007ab4:    8e1bc9bf    ....    DCD    2384185791
        0x00007ab8:    04000000    ....    DCD    67108864
    tenpwrs_i
        0x00007abc:    000040b5    .@..    DCD    16565
        0x00007ac0:    d0cf4b50    PK..    DCD    3503246160
        0x00007ac4:    cfe20766    f...    DCD    3487696742
        0x00007ac8:    00000001    ....    DCD    1
        0x00007acc:    0000416c    lA..    DCD    16748
        0x00007ad0:    aa51823e    >.Q.    DCD    2857468478
        0x00007ad4:    34a7eedf    ...4    DCD    883420895
        0x00007ad8:    00000001    ....    DCD    1
        0x00007adc:    000042d9    .B..    DCD    17113
        0x00007ae0:    e2a0b5dc    ....    DCD    3802183132
        0x00007ae4:    971f303a    :0..    DCD    2535403578
        0x00007ae8:    ffffffff    ....    DCD    4294967295
        0x00007aec:    000045b4    .E..    DCD    17844
        0x00007af0:    c8a025fd    .%..    DCD    3365938685
        0x00007af4:    4fc1a3e9    ...O    DCD    1338090473
        0x00007af8:    ffffffff    ....    DCD    4294967295
        0x00007afc:    00003fff    .?..    DCD    16383
        0x00007b00:    80000000    ....    DCD    2147483648
        0x00007b04:    00000000    ....    DCD    0
        0x00007b08:    00003fff    .?..    DCD    16383
        0x00007b0c:    80000000    ....    DCD    2147483648
        0x00007b10:    00000000    ....    DCD    0
    .conststring
        0x00007b14:    2e326822    "h2.    DCD    775055394
        0x00007b18:    22766177    wav"    DCD    578183543
        0x00007b1c:    0a0d322c    ,2..    DCD    168636972
        0x00007b20:    2e612200    ."a.    DCD    778117632
        0x00007b24:    22766177    wav"    DCD    578183543
        0x00007b28:    0a0d322c    ,2..    DCD    168636972
        0x00007b2c:    2e652200    ."e.    DCD    778379776
        0x00007b30:    22766177    wav"    DCD    578183543
        0x00007b34:    0a0d322c    ,2..    DCD    168636972
        0x00007b38:    2e662200    ."f.    DCD    778445312
        0x00007b3c:    22766177    wav"    DCD    578183543
        0x00007b40:    0a0d322c    ,2..    DCD    168636972
        0x00007b44:    6f702200    ."po    DCD    1869619712
        0x00007b48:    65726577    were    DCD    1701995895
        0x00007b4c:    66664f64    dOff    DCD    1717981028
        0x00007b50:    7661772e    .wav    DCD    1986098990
        0x00007b54:    0d322c22    ",2.    DCD    221391906
        0x00007b58:    6822000a    .."h    DCD    1747058698
        0x00007b5c:    7661772e    .wav    DCD    1986098990
        0x00007b60:    0d322c22    ",2.    DCD    221391906
        0x00007b64:    3022000a    .."0    DCD    807534602
        0x00007b68:    7661772e    .wav    DCD    1986098990
        0x00007b6c:    0d322c22    ",2.    DCD    221391906
        0x00007b70:    2e312200    ."1.    DCD    774971904
        0x00007b74:    22766177    wav"    DCD    578183543
        0x00007b78:    000d322c    ,2..    DCD    864812
        0x00007b7c:    772e3222    "2.w    DCD    1999516194
        0x00007b80:    2c227661    av",    DCD    740456033
        0x00007b84:    22000d32    2.."    DCD    570428722
        0x00007b88:    61772e33    3.wa    DCD    1635200563
        0x00007b8c:    322c2276    v",2    DCD    841753206
        0x00007b90:    3422000d    .."4    DCD    874643469
        0x00007b94:    7661772e    .wav    DCD    1986098990
        0x00007b98:    0d322c22    ",2.    DCD    221391906
        0x00007b9c:    2e352200    ."5.    DCD    775234048
        0x00007ba0:    22766177    wav"    DCD    578183543
        0x00007ba4:    000d322c    ,2..    DCD    864812
        0x00007ba8:    772e3622    "6.w    DCD    1999517218
        0x00007bac:    2c227661    av",    DCD    740456033
        0x00007bb0:    22000d32    2.."    DCD    570428722
        0x00007bb4:    61772e37    7.wa    DCD    1635200567
        0x00007bb8:    322c2276    v",2    DCD    841753206
        0x00007bbc:    3822000d    .."8    DCD    941752333
        0x00007bc0:    7661772e    .wav    DCD    1986098990
        0x00007bc4:    0d322c22    ",2.    DCD    221391906
        0x00007bc8:    2e392200    ."9.    DCD    775496192
        0x00007bcc:    22766177    wav"    DCD    578183543
        0x00007bd0:    000d322c    ,2..    DCD    864812
        0x00007bd4:    656e6f22    "one    DCD    1701736226
        0x00007bd8:    2e726142    Bar.    DCD    779247938
        0x00007bdc:    22766177    wav"    DCD    578183543
        0x00007be0:    000d322c    ,2..    DCD    864812
        0x00007be4:    30303122    "100    DCD    808464674
        0x00007be8:    2e726570    per.    DCD    779249008
        0x00007bec:    22766177    wav"    DCD    578183543
        0x00007bf0:    000d322c    ,2..    DCD    864812
        0x00007bf4:    70303222    "20p    DCD    1882206754
        0x00007bf8:    772e7265    er.w    DCD    1999532645
        0x00007bfc:    2c227661    av",    DCD    740456033
        0x00007c00:    22000d32    2.."    DCD    570428722
        0x00007c04:    65703034    40pe    DCD    1701851188
        0x00007c08:    61772e72    r.wa    DCD    1635200626
        0x00007c0c:    322c2276    v",2    DCD    841753206
        0x00007c10:    3622000d    .."6    DCD    908197901
        0x00007c14:    72657030    0per    DCD    1919250480
        0x00007c18:    7661772e    .wav    DCD    1986098990
        0x00007c1c:    0d322c22    ",2.    DCD    221391906
        0x00007c20:    30382200    ."80    DCD    808985088
        0x00007c24:    2e726570    per.    DCD    779249008
        0x00007c28:    22766177    wav"    DCD    578183543
        0x00007c2c:    000d322c    ,2..    DCD    864812
        0x00007c30:    72687422    "thr    DCD    1919448098
        0x00007c34:    61426565    eeBa    DCD    1631741285
        0x00007c38:    772e7372    rs.w    DCD    1999532914
        0x00007c3c:    2c227661    av",    DCD    740456033
        0x00007c40:    22000d32    2.."    DCD    570428722
        0x00007c44:    65766966    five    DCD    1702259046
        0x00007c48:    73726142    Bars    DCD    1936875842
        0x00007c4c:    7661772e    .wav    DCD    1986098990
        0x00007c50:    0d322c22    ",2.    DCD    221391906
        0x00007c54:    77742200    ."tw    DCD    2004099584
        0x00007c58:    7261426f    oBar    DCD    1918976623
        0x00007c5c:    61772e73    s.wa    DCD    1635200627
        0x00007c60:    322c2276    v",2    DCD    841753206
        0x00007c64:    6622000d    .."f    DCD    1713504269
        0x00007c68:    4272756f    ourB    DCD    1114797423
        0x00007c6c:    2e737261    ars.    DCD    779317857
        0x00007c70:    22766177    wav"    DCD    578183543
        0x00007c74:    000d322c    ,2..    DCD    864812
        0x00007c78:    746f6422    "dot    DCD    1953457186
        0x00007c7c:    7661772e    .wav    DCD    1986098990
        0x00007c80:    0d322c22    ",2.    DCD    221391906
        0x00007c84:    00          .       DCB    0
    .conststring
        0x00007c85:    50484f      PHO     DCB    80,72,79
        0x00007c88:    0031454e    NE1.    DCD    3229006
        0x00007c8c:    00315049    IP1.    DCD    3231817
        0x00007c90:    4e4f4850    PHON    DCD    1313818704
        0x00007c94:    49003245    E2.I    DCD    1224749637
        0x00007c98:    53003250    P2.S    DCD    1392521808
        0x00007c9c:    4c004149    IA.L    DCD    1275085129
        0x00007ca0:    4142574f    OWBA    DCD    1094866767
        0x00007ca4:    53494454    TDIS    DCD    1397310548
        0x00007ca8:    43490043    C.IC    DCD    1128857667
        0x00007cac:    00444943    CID.    DCD    4475203
        0x00007cb0:    00444e45    END.    DCD    4476485
        0x00007cb4:    41454c43    CLEA    DCD    1095060547
        0x00007cb8:    474f4c4e    NLOG    DCD    1196379214
        0x00007cbc:    42454400    .DEB    DCD    1111835648
        0x00007cc0:    43004755    UG.C    DCD    1124091733
        0x00007cc4:    004c4c41    ALL.    DCD    5000257
        0x00007cc8:    55535047    GPSU    DCD    1431523399
        0x00007ccc:    56004c52    RL.V    DCD    1442860114
        0x00007cd0:    49535245    ERSI    DCD    1230197317
        0x00007cd4:    41004e4f    ON.A    DCD    1090539087
        0x00007cd8:    43004e50    PN.C    DCD    1124093520
        0x00007cdc:    004e5347    GSN.    DCD    5133127
        0x00007ce0:    49535047    GPSI    DCD    1230196807
        0x00007ce4:    004f464e    NFO.    DCD    5195342
        0x00007ce8:    52424946    FIBR    DCD    1380075846
        0x00007cec:    4f4c004f    O.LO    DCD    1330380879
        0x00007cf0:    54414257    WBAT    DCD    1413562967
        0x00007cf4:    00504552    REP.    DCD    5260626
        0x00007cf8:    51534343    CCSQ    DCD    1364411203
        0x00007cfc:    50474100    .AGP    DCD    1346846976
        0x00007d00:    41420053    S.BA    DCD    1094844499
        0x00007d04:    45440054    T.DE    DCD    1162084436
        0x00007d08:    4c554146    FAUL    DCD    1280655686
        0x00007d0c:    4f4c0054    T.LO    DCD    1330380884
        0x00007d10:    504c4143    CALP    DCD    1347174723
        0x00007d14:    0054524f    ORT.    DCD    5526095
        0x00007d18:    54544142    BATT    DCD    1414807874
        0x00007d1c:    00574f4c    LOW.    DCD    5721932
        0x00007d20:    52455355    USER    DCD    1380275029
        0x00007d24:    53005750    PW.S    DCD    1392531280
        0x00007d28:    5750534d    MSPW    DCD    1464881997
        0x00007d2c:    4c454400    .DEL    DCD    1279607808
        0x00007d30:    42005941    AY.B    DCD    1107319105
        0x00007d34:    45545441    ATTE    DCD    1163154497
        0x00007d38:    5954504d    MPTY    DCD    1498697805
        0x00007d3c:    00          .       DCB    0
    .conststring
        0x00007d3d:    310d0a      1..     DCB    49,13,10
        0x00007d40:    0a0d3300    .3..    DCD    168637184
        0x00007d44:    0a0d3400    .4..    DCD    168637440
        0x00007d48:    0a0d3500    .5..    DCD    168637696
        0x00007d4c:    0a0d3600    .6..    DCD    168637952
        0x00007d50:    0a0d3700    .7..    DCD    168638208
        0x00007d54:    0a0d3800    .8..    DCD    168638464
        0x00007d58:    00          .       DCB    0
    .conststring
        0x00007d59:    30302e      00.     DCB    48,48,46
        0x00007d5c:    30303030    0000    DCD    808464432
        0x00007d60:    2d2c3030    00,-    DCD    757870640
        0x00007d64:    302e3030    00.0    DCD    808333360
        0x00007d68:    30303030    0000    DCD    808464432
        0x00007d6c:    00000030    0...    DCD    48
    Region$$Table$$Base
        0x00007d70:    00007ebc    .~..    DCD    32444
        0x00007d74:    20000000    ...     DCD    536870912
        0x00007d78:    00000114    ....    DCD    276
        0x00007d7c:    00000104    ....    DCD    260
        0x00007d80:    00007fd0    ....    DCD    32720
        0x00007d84:    20000114    ...     DCD    536871188
        0x00007d88:    00000824    $...    DCD    2084
        0x00007d8c:    00000120     ...    DCD    288
    locale$$data
    Region$$Table$$Limit
        0x00007d90:    0000001c    ....    DCD    28
    __lcnum_c_name
        0x00007d94:    00000043    C...    DCD    67
        0x00007d98:    fffffff8    ....    DCD    4294967288
    __lcnum_c_start
        0x00007d9c:    0000000c    ....    DCD    12
        0x00007da0:    0000000e    ....    DCD    14
        0x00007da4:    0000000f    ....    DCD    15
    __lcnum_c_point
        0x00007da8:    002e        ..      DCW    46
    __lcnum_c_thousands
        0x00007daa:    00          .       DCB    0
    __lcnum_c_grouping
        0x00007dab:    00          .       DCB    0
    __lcnum_c_end
    locale$$data
        0x00007dac:    00000110    ....    DCD    272
    __lcctype_c_name
        0x00007db0:    00000043    C...    DCD    67
        0x00007db4:    fffffff8    ....    DCD    4294967288
    __lcctype_c_start
        0x00007db8:    00          .       DCB    0
    __ctype
        0x00007db9:    404040      @@@     DCB    64,64,64
        0x00007dbc:    40404040    @@@@    DCD    1077952576
        0x00007dc0:    41414040    @@AA    DCD    1094795328
        0x00007dc4:    40414141    AAA@    DCD    1078018369
        0x00007dc8:    40404040    @@@@    DCD    1077952576
        0x00007dcc:    40404040    @@@@    DCD    1077952576
        0x00007dd0:    40404040    @@@@    DCD    1077952576
        0x00007dd4:    40404040    @@@@    DCD    1077952576
        0x00007dd8:    02020540    @...    DCD    33686848
        0x00007ddc:    02020202    ....    DCD    33686018
        0x00007de0:    02020202    ....    DCD    33686018
        0x00007de4:    02020202    ....    DCD    33686018
        0x00007de8:    20202002    .       DCD    538976258
        0x00007dec:    20202020            DCD    538976288
        0x00007df0:    02202020       .    DCD    35659808
        0x00007df4:    02020202    ....    DCD    33686018
        0x00007df8:    90900202    ....    DCD    2425356802
        0x00007dfc:    90909090    ....    DCD    2425393296
        0x00007e00:    10101010    ....    DCD    269488144
        0x00007e04:    10101010    ....    DCD    269488144
        0x00007e08:    10101010    ....    DCD    269488144
        0x00007e0c:    10101010    ....    DCD    269488144
        0x00007e10:    10101010    ....    DCD    269488144
        0x00007e14:    02020202    ....    DCD    33686018
        0x00007e18:    88880202    ....    DCD    2290614786
        0x00007e1c:    88888888    ....    DCD    2290649224
        0x00007e20:    08080808    ....    DCD    134744072
        0x00007e24:    08080808    ....    DCD    134744072
        0x00007e28:    08080808    ....    DCD    134744072
        0x00007e2c:    08080808    ....    DCD    134744072
        0x00007e30:    08080808    ....    DCD    134744072
        0x00007e34:    02020202    ....    DCD    33686018
        0x00007e38:    00000040    @...    DCD    64
        0x00007e3c:    00000000    ....    DCD    0
        0x00007e40:    00000000    ....    DCD    0
        0x00007e44:    00000000    ....    DCD    0
        0x00007e48:    00000000    ....    DCD    0
        0x00007e4c:    00000000    ....    DCD    0
        0x00007e50:    00000000    ....    DCD    0
        0x00007e54:    00000000    ....    DCD    0
        0x00007e58:    00000000    ....    DCD    0
        0x00007e5c:    00000000    ....    DCD    0
        0x00007e60:    00000000    ....    DCD    0
        0x00007e64:    00000000    ....    DCD    0
        0x00007e68:    00000000    ....    DCD    0
        0x00007e6c:    00000000    ....    DCD    0
        0x00007e70:    00000000    ....    DCD    0
        0x00007e74:    00000000    ....    DCD    0
        0x00007e78:    00000000    ....    DCD    0
        0x00007e7c:    00000000    ....    DCD    0
        0x00007e80:    00000000    ....    DCD    0
        0x00007e84:    00000000    ....    DCD    0
        0x00007e88:    00000000    ....    DCD    0
        0x00007e8c:    00000000    ....    DCD    0
        0x00007e90:    00000000    ....    DCD    0
        0x00007e94:    00000000    ....    DCD    0
        0x00007e98:    00000000    ....    DCD    0
        0x00007e9c:    00000000    ....    DCD    0
        0x00007ea0:    00000000    ....    DCD    0
        0x00007ea4:    00000000    ....    DCD    0
        0x00007ea8:    00000000    ....    DCD    0
        0x00007eac:    00000000    ....    DCD    0
        0x00007eb0:    00000000    ....    DCD    0
        0x00007eb4:    00000000    ....    DCD    0
        0x00007eb8:    00000000    ....    DCD    0
    __lcctype_c_end

** Section #2 'RW_IRAM1' (SHT_PROGBITS) [SHF_ALLOC + SHF_WRITE]
    Size   : 276 bytes (alignment 4)
    Address: 0x20000000


** Section #3 'RW_IRAM1' (SHT_NOBITS) [SHF_ALLOC + SHF_WRITE]
    Size   : 2084 bytes (alignment 8)
    Address: 0x20000114


** Section #4 '.debug_abbrev' (SHT_PROGBITS)
    Size   : 1476 bytes


** Section #5 '.debug_frame' (SHT_PROGBITS)
    Size   : 7968 bytes


** Section #6 '.debug_info' (SHT_PROGBITS)
    Size   : 39152 bytes


** Section #7 '.debug_line' (SHT_PROGBITS)
    Size   : 24560 bytes


** Section #8 '.debug_loc' (SHT_PROGBITS)
    Size   : 17072 bytes


** Section #9 '.debug_macinfo' (SHT_PROGBITS)
    Size   : 154352 bytes


** Section #10 '.debug_pubnames' (SHT_PROGBITS)
    Size   : 5210 bytes


** Section #11 '.symtab' (SHT_SYMTAB)
    Size   : 16336 bytes (alignment 4)
    String table #12 '.strtab'
    Last local symbol no. 524


** Section #12 '.strtab' (SHT_STRTAB)
    Size   : 11524 bytes


** Section #13 '.note' (SHT_NOTE)
    Size   : 28 bytes (alignment 4)


** Section #14 '.comment' (SHT_PROGBITS)
    Size   : 5536 bytes


** Section #15 '.shstrtab' (SHT_STRTAB)
    Size   : 156 bytes


